	.text
	.file	"llvm-link"
	.globl	keymatch                        // -- Begin function keymatch
	.p2align	2
	.type	keymatch,@function
keymatch:                               // @keymatch
	.cfi_startproc
// %bb.0:                               // %entry
	sub	sp, sp, #80                     // =80
	stp	x29, x30, [sp, #64]             // 16-byte Folded Spill
	add	x29, sp, #64                    // =64
	.cfi_def_cfa w29, 16
	.cfi_offset w30, -8
	.cfi_offset w29, -16
	stp	x1, x0, [x29, #-24]
	stur	w2, [x29, #-28]
	str	wzr, [sp, #24]
.LBB0_1:                                // %while.cond
                                        // =>This Inner Loop Header: Depth=1
	ldur	x8, [x29, #-16]
	add	x9, x8, #1                      // =1
	stur	x9, [x29, #-16]
	ldrb	w8, [x8]
	str	w8, [sp, #32]
	cbz	w8, .LBB0_7
// %bb.2:                               // %while.body
                                        //   in Loop: Header=BB0_1 Depth=1
	ldur	x8, [x29, #-24]
	add	x9, x8, #1                      // =1
	stur	x9, [x29, #-24]
	ldrb	w8, [x8]
	str	w8, [sp, #28]
	cbz	w8, .LBB0_8
// %bb.3:                               // %if.end
                                        //   in Loop: Header=BB0_1 Depth=1
	bl	__ctype_b_loc
	ldr	x8, [x0]
	ldrsw	x9, [sp, #32]
	ldrh	w8, [x8, x9, lsl #1]
	tbz	w8, #8, .LBB0_5
// %bb.4:                               // %if.else
                                        //   in Loop: Header=BB0_1 Depth=1
	ldr	w0, [sp, #32]
	bl	tolower
	mov	w8, w0
	str	w0, [sp, #16]
	str	w8, [sp, #8]
	str	w8, [sp, #32]
.LBB0_5:                                // %if.end18
                                        //   in Loop: Header=BB0_1 Depth=1
	ldp	w9, w8, [sp, #28]
	cmp	w8, w9
	b.ne	.LBB0_8
// %bb.6:                               // %if.end22
                                        //   in Loop: Header=BB0_1 Depth=1
	ldr	w8, [sp, #24]
	add	w8, w8, #1                      // =1
	str	w8, [sp, #24]
	b	.LBB0_1
.LBB0_7:                                // %while.end
	ldr	w8, [sp, #24]
	ldur	w9, [x29, #-28]
	cmp	w8, w9
	b.ge	.LBB0_10
.LBB0_8:                                // %if.then
	stur	wzr, [x29, #-4]
	mov	w8, #1
.LBB0_9:                                // %cleanup
	ldur	w0, [x29, #-4]
	ldp	x29, x30, [sp, #64]             // 16-byte Folded Reload
	str	w8, [sp, #20]
	add	sp, sp, #80                     // =80
	ret
.LBB0_10:                               // %if.end26
	mov	w8, #1
	stur	w8, [x29, #-4]
	b	.LBB0_9
.Lfunc_end0:
	.size	keymatch, .Lfunc_end0-keymatch
	.cfi_endproc
                                        // -- End function
	.globl	read_stdin                      // -- Begin function read_stdin
	.p2align	2
	.type	read_stdin,@function
read_stdin:                             // @read_stdin
	.cfi_startproc
// %bb.0:                               // %entry
	sub	sp, sp, #16                     // =16
	.cfi_def_cfa_offset 16
	adrp	x8, stdin
	ldr	x0, [x8, :lo12:stdin]
	add	sp, sp, #16                     // =16
	ret
.Lfunc_end1:
	.size	read_stdin, .Lfunc_end1-read_stdin
	.cfi_endproc
                                        // -- End function
	.globl	write_stdout                    // -- Begin function write_stdout
	.p2align	2
	.type	write_stdout,@function
write_stdout:                           // @write_stdout
	.cfi_startproc
// %bb.0:                               // %entry
	sub	sp, sp, #16                     // =16
	.cfi_def_cfa_offset 16
	adrp	x8, stdout
	ldr	x0, [x8, :lo12:stdout]
	add	sp, sp, #16                     // =16
	ret
.Lfunc_end2:
	.size	write_stdout, .Lfunc_end2-write_stdout
	.cfi_endproc
                                        // -- End function
	.globl	main1                           // -- Begin function main1
	.p2align	2
	.type	main1,@function
main1:                                  // @main1
	.cfi_startproc
// %bb.0:                               // %entry
	stp	x29, x30, [sp, #-48]!           // 16-byte Folded Spill
	str	x28, [sp, #16]                  // 8-byte Folded Spill
	stp	x20, x19, [sp, #32]             // 16-byte Folded Spill
	mov	x29, sp
	sub	sp, sp, #720                    // =720
	.cfi_def_cfa w29, 48
	.cfi_offset w19, -8
	.cfi_offset w20, -16
	.cfi_offset w28, -32
	.cfi_offset w30, -40
	.cfi_offset w29, -48
	add	x19, sp, #40                    // =40
	stur	w0, [x29, #-4]
	str	x1, [x19, #664]
	ldr	x8, [x1]
	adrp	x20, .L_MergedGlobals+8
	str	x8, [x20, :lo12:.L_MergedGlobals+8]
	cbz	x8, .LBB3_2
// %bb.1:                               // %lor.lhs.false
	ldr	x8, [x20, :lo12:.L_MergedGlobals+8]
	ldrb	w8, [x8]
	cbnz	w8, .LBB3_3
.LBB3_2:                                // %if.then
	adrp	x8, .L.str
	add	x8, x8, :lo12:.L.str
	str	x8, [x20, :lo12:.L_MergedGlobals+8]
.LBB3_3:                                // %if.end
	add	x0, sp, #40                     // =40
	bl	jpeg_std_error
	str	x0, [x19, #168]
	add	x0, sp, #208                    // =208
	mov	w1, #61
	mov	w2, #496
	bl	jpeg_CreateCompress
	adrp	x8, cdjpeg_message_table
	mov	x9, #1000
	add	x8, x8, :lo12:cdjpeg_message_table
	movk	x9, #1043, lsl #32
	mov	w10, #2
	add	x0, sp, #208                    // =208
	stp	x8, x9, [x19, #152]
	str	w10, [sp, #260]
	bl	jpeg_set_defaults
	ldur	w1, [x29, #-4]
	ldr	x2, [x19, #664]
	add	x0, sp, #208                    // =208
	mov	w3, wzr
	mov	w4, wzr
	bl	parse_switches
	ldur	w8, [x29, #-4]
	str	w0, [sp, #36]
	sub	w8, w8, #1                      // =1
	cmp	w0, w8
	b.ge	.LBB3_5
// %bb.4:                               // %if.then7
	adrp	x8, stderr
	ldr	x0, [x8, :lo12:stderr]
	ldr	x2, [x20, :lo12:.L_MergedGlobals+8]
	adrp	x1, .L.str.1
	add	x1, x1, :lo12:.L.str.1
	bl	fprintf
	bl	usage
.LBB3_5:                                // %if.end9
	ldr	w8, [sp, #36]
	ldur	w9, [x29, #-4]
	cmp	w8, w9
	b.ge	.LBB3_10
// %bb.6:                               // %if.then12
	ldr	x8, [x19, #664]
	ldrsw	x9, [sp, #36]
	adrp	x1, .L.str.2
	add	x1, x1, :lo12:.L.str.2
	ldr	x0, [x8, x9, lsl #3]
	bl	fopen
	str	x0, [sp, #16]
	cbz	x0, .LBB3_20
// %bb.7:                               // %if.end23
	adrp	x8, .L_MergedGlobals+16
	ldr	x9, [x8, :lo12:.L_MergedGlobals+16]
	cbz	x9, .LBB3_11
.LBB3_8:                                // %if.then26
	ldr	x0, [x8, :lo12:.L_MergedGlobals+16]
	adrp	x1, .L.str.4
	add	x1, x1, :lo12:.L.str.4
	bl	fopen
	str	x0, [sp, #8]
	cbnz	x0, .LBB3_12
// %bb.9:                               // %if.then30
	adrp	x9, .L_MergedGlobals+8
	adrp	x8, stderr
	add	x9, x9, :lo12:.L_MergedGlobals+8
	ldr	x0, [x8, :lo12:stderr]
	ldp	x2, x3, [x9]
	b	.LBB3_21
.LBB3_10:                               // %if.else
	bl	read_stdin
	str	x0, [sp, #16]
	adrp	x8, .L_MergedGlobals+16
	ldr	x9, [x8, :lo12:.L_MergedGlobals+16]
	cbnz	x9, .LBB3_8
.LBB3_11:                               // %if.else33
	bl	write_stdout
	str	x0, [sp, #8]
.LBB3_12:                               // %if.end35
	ldr	x1, [sp, #16]
	add	x0, sp, #208                    // =208
	bl	select_file_type
	ldr	x8, [sp, #16]
	str	x0, [sp, #24]
	mov	x1, x0
	str	x8, [x0, #24]
	ldr	x8, [x1]
	add	x0, sp, #208                    // =208
	blr	x8
	add	x0, sp, #208                    // =208
	bl	jpeg_default_colorspace
	ldur	w1, [x29, #-4]
	ldr	x2, [x19, #664]
	add	x0, sp, #208                    // =208
	mov	w4, #1
	mov	w3, wzr
	bl	parse_switches
	ldr	x1, [sp, #8]
	str	w0, [sp, #36]
	add	x0, sp, #208                    // =208
	bl	jpeg_stdio_dest
	add	x0, sp, #208                    // =208
	mov	w1, #1
	bl	jpeg_start_compress
.LBB3_13:                               // %while.cond
                                        // =>This Inner Loop Header: Depth=1
	ldr	w9, [sp, #504]
	ldr	w10, [sp, #252]
	ldr	x8, [sp, #24]
	cmp	w9, w10
	b.hs	.LBB3_15
// %bb.14:                              // %while.body
                                        //   in Loop: Header=BB3_13 Depth=1
	ldr	x8, [x8, #8]
	ldr	x1, [sp, #24]
	add	x0, sp, #208                    // =208
	blr	x8
	ldr	x8, [sp, #24]
	str	w0, [sp, #4]
	mov	w2, w0
	add	x0, sp, #208                    // =208
	ldr	x1, [x8, #32]
	bl	jpeg_write_scanlines
	b	.LBB3_13
.LBB3_15:                               // %while.end
	ldr	x8, [x8, #16]
	ldr	x1, [sp, #24]
	add	x0, sp, #208                    // =208
	blr	x8
	add	x0, sp, #208                    // =208
	bl	jpeg_finish_compress
	add	x0, sp, #208                    // =208
	bl	jpeg_destroy_compress
	adrp	x9, stdin
	ldr	x8, [sp, #16]
	ldr	x9, [x9, :lo12:stdin]
	cmp	x8, x9
	b.eq	.LBB3_17
// %bb.16:                              // %if.then45
	ldr	x0, [sp, #16]
	bl	fclose
.LBB3_17:                               // %if.end47
	adrp	x9, stdout
	ldr	x8, [sp, #8]
	ldr	x9, [x9, :lo12:stdout]
	cmp	x8, x9
	b.eq	.LBB3_19
// %bb.18:                              // %if.then50
	ldr	x0, [sp, #8]
	bl	fclose
.LBB3_19:                               // %if.end52
	mov	w0, wzr
	add	sp, sp, #720                    // =720
	ldp	x20, x19, [sp, #32]             // 16-byte Folded Reload
	ldr	x28, [sp, #16]                  // 8-byte Folded Reload
	ldp	x29, x30, [sp], #48             // 16-byte Folded Reload
	ret
.LBB3_20:                               // %if.then17
	ldr	x8, [x19, #664]
	ldrsw	x9, [sp, #36]
	adrp	x10, stderr
	ldr	x0, [x10, :lo12:stderr]
	ldr	x2, [x20, :lo12:.L_MergedGlobals+8]
	ldr	x3, [x8, x9, lsl #3]
.LBB3_21:                               // %if.then30
	adrp	x1, .L.str.3
	add	x1, x1, :lo12:.L.str.3
	bl	fprintf
	mov	w0, #1
	bl	exit
.Lfunc_end3:
	.size	main1, .Lfunc_end3-main1
	.cfi_endproc
                                        // -- End function
	.p2align	2                               // -- Begin function parse_switches
	.type	parse_switches,@function
parse_switches:                         // @parse_switches
	.cfi_startproc
// %bb.0:                               // %entry
	sub	sp, sp, #208                    // =208
	stp	x29, x30, [sp, #112]            // 16-byte Folded Spill
	stp	x28, x27, [sp, #128]            // 16-byte Folded Spill
	stp	x26, x25, [sp, #144]            // 16-byte Folded Spill
	stp	x24, x23, [sp, #160]            // 16-byte Folded Spill
	stp	x22, x21, [sp, #176]            // 16-byte Folded Spill
	stp	x20, x19, [sp, #192]            // 16-byte Folded Spill
	add	x29, sp, #112                   // =112
	.cfi_def_cfa w29, 96
	.cfi_offset w19, -8
	.cfi_offset w20, -16
	.cfi_offset w21, -24
	.cfi_offset w22, -32
	.cfi_offset w23, -40
	.cfi_offset w24, -48
	.cfi_offset w25, -56
	.cfi_offset w26, -64
	.cfi_offset w27, -72
	.cfi_offset w28, -80
	.cfi_offset w30, -88
	.cfi_offset w29, -96
	stur	x0, [x29, #-8]
	mov	w8, #75
	stur	w8, [x29, #-52]
	mov	x8, x0
	adrp	x10, .L_MergedGlobals
	mov	w9, #100
	add	x10, x10, :lo12:.L_MergedGlobals
	stur	w1, [x29, #-12]
	stur	x2, [x29, #-24]
	stp	w4, w3, [x29, #-32]
	stp	xzr, xzr, [sp, #32]
	stp	xzr, xzr, [sp, #16]
	str	xzr, [sp, #48]
	str	w9, [sp, #56]
	str	wzr, [x10]
	str	xzr, [x10, #16]
	ldr	x8, [x8]
	adrp	x19, .L.str.47
	adrp	x20, .L.str.49
	adrp	x21, .L.str.50
	adrp	x22, .L.str.51
	adrp	x23, .L.str.52
	adrp	x25, .L.str.54
	adrp	x24, .L.str.55
	mov	w26, #1
	adrp	x27, .L_MergedGlobals+16
	add	x19, x19, :lo12:.L.str.47
	add	x20, x20, :lo12:.L.str.49
	add	x21, x21, :lo12:.L.str.50
	add	x22, x22, :lo12:.L.str.51
	add	x23, x23, :lo12:.L.str.52
	add	x25, x25, :lo12:.L.str.54
	adrp	x28, .L_MergedGlobals+4
	add	x24, x24, :lo12:.L.str.55
	str	wzr, [x8, #124]
	stur	w26, [x29, #-36]
	b	.LBB4_3
.LBB4_1:                                // %if.then11
                                        //   in Loop: Header=BB4_3 Depth=1
	str	w26, [sp, #52]
.LBB4_2:                                // %for.inc
                                        //   in Loop: Header=BB4_3 Depth=1
	ldur	w8, [x29, #-36]
	add	w8, w8, #1                      // =1
	stur	w8, [x29, #-36]
.LBB4_3:                                // %for.cond
                                        // =>This Inner Loop Header: Depth=1
	ldur	w8, [x29, #-36]
	ldur	w9, [x29, #-12]
	cmp	w8, w9
	b.ge	.LBB4_90
// %bb.4:                               // %for.body
                                        //   in Loop: Header=BB4_3 Depth=1
	ldur	x8, [x29, #-24]
	ldursw	x9, [x29, #-36]
	ldr	x8, [x8, x9, lsl #3]
	stur	x8, [x29, #-48]
	ldrb	w8, [x8]
	cmp	w8, #45                         // =45
	b.eq	.LBB4_7
// %bb.5:                               // %if.then
                                        //   in Loop: Header=BB4_3 Depth=1
	ldur	w8, [x29, #-36]
	ldur	w9, [x29, #-28]
	cmp	w8, w9
	b.gt	.LBB4_90
// %bb.6:                               // %if.then5
                                        //   in Loop: Header=BB4_3 Depth=1
	str	xzr, [x27, :lo12:.L_MergedGlobals+16]
	b	.LBB4_2
.LBB4_7:                                // %if.end6
                                        //   in Loop: Header=BB4_3 Depth=1
	ldur	x8, [x29, #-48]
	mov	w2, #1
	mov	x1, x19
	add	x0, x8, #1                      // =1
	stur	x0, [x29, #-48]
	bl	keymatch
	cbnz	w0, .LBB4_106
// %bb.8:                               // %if.else
                                        //   in Loop: Header=BB4_3 Depth=1
	ldur	x0, [x29, #-48]
	mov	w2, #1
	mov	x1, x20
	bl	keymatch
	cbnz	w0, .LBB4_1
// %bb.9:                               // %if.else12
                                        //   in Loop: Header=BB4_3 Depth=1
	ldur	x0, [x29, #-48]
	mov	w2, #2
	mov	x1, x21
	bl	keymatch
	cbz	w0, .LBB4_14
// %bb.10:                              // %if.then15
                                        //   in Loop: Header=BB4_3 Depth=1
	ldur	w8, [x29, #-36]
	ldur	w9, [x29, #-12]
	add	w8, w8, #1                      // =1
	cmp	w8, w9
	stur	w8, [x29, #-36]
	b.lt	.LBB4_12
// %bb.11:                              // %if.then18
                                        //   in Loop: Header=BB4_3 Depth=1
	bl	usage
.LBB4_12:                               // %if.end19
                                        //   in Loop: Header=BB4_3 Depth=1
	ldur	x8, [x29, #-24]
	ldursw	x9, [x29, #-36]
	mov	w2, #1
	mov	x1, x22
	ldr	x0, [x8, x9, lsl #3]
	bl	keymatch
	cbz	w0, .LBB4_19
// %bb.13:                              // %if.then24
                                        //   in Loop: Header=BB4_3 Depth=1
	ldur	x8, [x29, #-8]
	str	wzr, [x8, #268]
	b	.LBB4_2
.LBB4_14:                               // %if.else43
                                        //   in Loop: Header=BB4_3 Depth=1
	ldur	x0, [x29, #-48]
	mov	w2, #1
	mov	x1, x25
	bl	keymatch
	cbnz	w0, .LBB4_16
// %bb.15:                              // %lor.lhs.false
                                        //   in Loop: Header=BB4_3 Depth=1
	ldur	x0, [x29, #-48]
	mov	w2, #1
	mov	x1, x24
	bl	keymatch
	cbz	w0, .LBB4_23
.LBB4_16:                               // %if.then48
                                        //   in Loop: Header=BB4_3 Depth=1
	ldr	w8, [x28, :lo12:.L_MergedGlobals+4]
	cbnz	w8, .LBB4_18
// %bb.17:                              // %if.then50
                                        //   in Loop: Header=BB4_3 Depth=1
	adrp	x8, stderr
	ldr	x0, [x8, :lo12:stderr]
	adrp	x1, .L.str.56
	adrp	x2, .L.str.57
	adrp	x3, .L.str.58
	add	x1, x1, :lo12:.L.str.56
	add	x2, x2, :lo12:.L.str.57
	add	x3, x3, :lo12:.L.str.58
	bl	fprintf
	str	w26, [x28, :lo12:.L_MergedGlobals+4]
.LBB4_18:                               // %if.end52
                                        //   in Loop: Header=BB4_3 Depth=1
	ldur	x8, [x29, #-8]
	ldr	x8, [x8]
	ldr	w9, [x8, #124]
	add	w9, w9, #1                      // =1
	str	w9, [x8, #124]
	b	.LBB4_2
.LBB4_19:                               // %if.else25
                                        //   in Loop: Header=BB4_3 Depth=1
	ldur	x8, [x29, #-24]
	ldursw	x9, [x29, #-36]
	mov	w2, #2
	mov	x1, x23
	ldr	x0, [x8, x9, lsl #3]
	bl	keymatch
	cbz	w0, .LBB4_21
// %bb.20:                              // %if.then30
                                        //   in Loop: Header=BB4_3 Depth=1
	ldur	x8, [x29, #-8]
	str	w26, [x8, #268]
	b	.LBB4_2
.LBB4_21:                               // %if.else32
                                        //   in Loop: Header=BB4_3 Depth=1
	ldur	x8, [x29, #-24]
	ldursw	x9, [x29, #-36]
	adrp	x1, .L.str.53
	mov	w2, #2
	add	x1, x1, :lo12:.L.str.53
	ldr	x0, [x8, x9, lsl #3]
	bl	keymatch
	cbz	w0, .LBB4_89
// %bb.22:                              // %if.then37
                                        //   in Loop: Header=BB4_3 Depth=1
	ldur	x8, [x29, #-8]
	mov	w9, #2
	str	w9, [x8, #268]
	b	.LBB4_2
.LBB4_23:                               // %if.else56
                                        //   in Loop: Header=BB4_3 Depth=1
	ldur	x0, [x29, #-48]
	adrp	x1, .L.str.59
	mov	w2, #2
	add	x1, x1, :lo12:.L.str.59
	bl	keymatch
	cbnz	w0, .LBB4_25
// %bb.24:                              // %lor.lhs.false59
                                        //   in Loop: Header=BB4_3 Depth=1
	ldur	x0, [x29, #-48]
	adrp	x1, .L.str.60
	mov	w2, #2
	add	x1, x1, :lo12:.L.str.60
	bl	keymatch
	cbz	w0, .LBB4_26
.LBB4_25:                               // %if.then62
                                        //   in Loop: Header=BB4_3 Depth=1
	ldur	x0, [x29, #-8]
	mov	w1, #1
	bl	jpeg_set_colorspace
	b	.LBB4_2
.LBB4_26:                               // %if.else63
                                        //   in Loop: Header=BB4_3 Depth=1
	ldur	x0, [x29, #-48]
	adrp	x1, .L.str.61
	mov	w2, #3
	add	x1, x1, :lo12:.L.str.61
	bl	keymatch
	cbz	w0, .LBB4_35
// %bb.27:                              // %if.then66
                                        //   in Loop: Header=BB4_3 Depth=1
	ldur	w8, [x29, #-36]
	ldur	w9, [x29, #-12]
	mov	w10, #120
	strb	w10, [sp, #4]
	add	w8, w8, #1                      // =1
	cmp	w8, w9
	stur	w8, [x29, #-36]
	b.lt	.LBB4_29
// %bb.28:                              // %if.then70
                                        //   in Loop: Header=BB4_3 Depth=1
	bl	usage
.LBB4_29:                               // %if.end71
                                        //   in Loop: Header=BB4_3 Depth=1
	ldur	x8, [x29, #-24]
	ldursw	x9, [x29, #-36]
	adrp	x1, .L.str.62
	add	x2, sp, #8                      // =8
	add	x3, sp, #4                      // =4
	ldr	x0, [x8, x9, lsl #3]
	add	x1, x1, :lo12:.L.str.62
	bl	__isoc99_sscanf
	cmp	w0, #0                          // =0
	b.gt	.LBB4_31
// %bb.30:                              // %if.then77
                                        //   in Loop: Header=BB4_3 Depth=1
	bl	usage
.LBB4_31:                               // %if.end78
                                        //   in Loop: Header=BB4_3 Depth=1
	ldrb	w8, [sp, #4]
	cmp	w8, #109                        // =109
	b.eq	.LBB4_33
// %bb.32:                              // %lor.lhs.false82
                                        //   in Loop: Header=BB4_3 Depth=1
	ldrb	w8, [sp, #4]
	cmp	w8, #77                         // =77
	b.ne	.LBB4_34
.LBB4_33:                               // %if.then86
                                        //   in Loop: Header=BB4_3 Depth=1
	ldr	x8, [sp, #8]
	mov	w9, #1000
	mul	x8, x8, x9
	str	x8, [sp, #8]
.LBB4_34:                               // %if.end87
                                        //   in Loop: Header=BB4_3 Depth=1
	ldur	x8, [x29, #-8]
	ldr	x9, [sp, #8]
	mov	w10, #1000
	ldr	x8, [x8, #8]
	mul	x9, x9, x10
	str	x9, [x8, #88]
	b	.LBB4_2
.LBB4_35:                               // %if.else89
                                        //   in Loop: Header=BB4_3 Depth=1
	ldur	x0, [x29, #-48]
	adrp	x1, .L.str.63
	mov	w2, #1
	add	x1, x1, :lo12:.L.str.63
	bl	keymatch
	cbnz	w0, .LBB4_37
// %bb.36:                              // %lor.lhs.false92
                                        //   in Loop: Header=BB4_3 Depth=1
	ldur	x0, [x29, #-48]
	adrp	x1, .L.str.64
	mov	w2, #1
	add	x1, x1, :lo12:.L.str.64
	bl	keymatch
	cbz	w0, .LBB4_38
.LBB4_37:                               // %if.then95
                                        //   in Loop: Header=BB4_3 Depth=1
	ldur	x8, [x29, #-8]
	str	w26, [x8, #256]
	b	.LBB4_2
.LBB4_38:                               // %if.else96
                                        //   in Loop: Header=BB4_3 Depth=1
	ldur	x0, [x29, #-48]
	adrp	x1, .L.str.65
	mov	w2, #4
	add	x1, x1, :lo12:.L.str.65
	bl	keymatch
	cbz	w0, .LBB4_42
// %bb.39:                              // %if.then99
                                        //   in Loop: Header=BB4_3 Depth=1
	ldur	w8, [x29, #-36]
	ldur	w9, [x29, #-12]
	add	w8, w8, #1                      // =1
	cmp	w8, w9
	stur	w8, [x29, #-36]
	b.lt	.LBB4_41
// %bb.40:                              // %if.then103
                                        //   in Loop: Header=BB4_3 Depth=1
	bl	usage
.LBB4_41:                               // %if.end104
                                        //   in Loop: Header=BB4_3 Depth=1
	ldur	x8, [x29, #-24]
	ldursw	x9, [x29, #-36]
	ldr	x8, [x8, x9, lsl #3]
	str	x8, [x27, :lo12:.L_MergedGlobals+16]
	b	.LBB4_2
.LBB4_42:                               // %if.else107
                                        //   in Loop: Header=BB4_3 Depth=1
	ldur	x0, [x29, #-48]
	adrp	x1, .L.str.66
	mov	w2, #1
	add	x1, x1, :lo12:.L.str.66
	bl	keymatch
	cbz	w0, .LBB4_44
// %bb.43:                              // %if.then110
                                        //   in Loop: Header=BB4_3 Depth=1
	str	w26, [sp, #48]
	b	.LBB4_2
.LBB4_44:                               // %if.else111
                                        //   in Loop: Header=BB4_3 Depth=1
	ldur	x0, [x29, #-48]
	adrp	x1, .L.str.67
	mov	w2, #1
	add	x1, x1, :lo12:.L.str.67
	bl	keymatch
	cbz	w0, .LBB4_50
// %bb.45:                              // %if.then114
                                        //   in Loop: Header=BB4_3 Depth=1
	ldur	w8, [x29, #-36]
	ldur	w9, [x29, #-12]
	add	w8, w8, #1                      // =1
	cmp	w8, w9
	stur	w8, [x29, #-36]
	b.lt	.LBB4_47
// %bb.46:                              // %if.then118
                                        //   in Loop: Header=BB4_3 Depth=1
	bl	usage
.LBB4_47:                               // %if.end119
                                        //   in Loop: Header=BB4_3 Depth=1
	ldur	x8, [x29, #-24]
	ldursw	x9, [x29, #-36]
	adrp	x1, .L.str.68
	sub	x2, x29, #52                    // =52
	add	x1, x1, :lo12:.L.str.68
	ldr	x0, [x8, x9, lsl #3]
	bl	__isoc99_sscanf
	cmp	w0, #1                          // =1
	b.eq	.LBB4_49
// %bb.48:                              // %if.then125
                                        //   in Loop: Header=BB4_3 Depth=1
	bl	usage
.LBB4_49:                               // %if.end126
                                        //   in Loop: Header=BB4_3 Depth=1
	ldur	w0, [x29, #-52]
	bl	jpeg_quality_scaling
	str	w0, [sp, #56]
	b	.LBB4_2
.LBB4_50:                               // %if.else128
                                        //   in Loop: Header=BB4_3 Depth=1
	ldur	x0, [x29, #-48]
	adrp	x1, .L.str.69
	mov	w2, #2
	add	x1, x1, :lo12:.L.str.69
	bl	keymatch
	cbz	w0, .LBB4_54
// %bb.51:                              // %if.then131
                                        //   in Loop: Header=BB4_3 Depth=1
	ldur	w8, [x29, #-36]
	ldur	w9, [x29, #-12]
	add	w8, w8, #1                      // =1
	cmp	w8, w9
	stur	w8, [x29, #-36]
	b.lt	.LBB4_53
// %bb.52:                              // %if.then135
                                        //   in Loop: Header=BB4_3 Depth=1
	bl	usage
.LBB4_53:                               // %if.end136
                                        //   in Loop: Header=BB4_3 Depth=1
	ldur	x8, [x29, #-24]
	ldursw	x9, [x29, #-36]
	ldr	x8, [x8, x9, lsl #3]
	str	x8, [sp, #32]
	b	.LBB4_2
.LBB4_54:                               // %if.else139
                                        //   in Loop: Header=BB4_3 Depth=1
	ldur	x0, [x29, #-48]
	adrp	x1, .L.str.70
	mov	w2, #2
	add	x1, x1, :lo12:.L.str.70
	bl	keymatch
	cbz	w0, .LBB4_58
// %bb.55:                              // %if.then142
                                        //   in Loop: Header=BB4_3 Depth=1
	ldur	w8, [x29, #-36]
	ldur	w9, [x29, #-12]
	add	w8, w8, #1                      // =1
	cmp	w8, w9
	stur	w8, [x29, #-36]
	b.lt	.LBB4_57
// %bb.56:                              // %if.then146
                                        //   in Loop: Header=BB4_3 Depth=1
	bl	usage
.LBB4_57:                               // %if.end147
                                        //   in Loop: Header=BB4_3 Depth=1
	ldur	x8, [x29, #-24]
	ldursw	x9, [x29, #-36]
	ldr	x8, [x8, x9, lsl #3]
	str	x8, [sp, #40]
	b	.LBB4_2
.LBB4_58:                               // %if.else150
                                        //   in Loop: Header=BB4_3 Depth=1
	ldur	x0, [x29, #-48]
	adrp	x1, .L.str.71
	mov	w2, #1
	add	x1, x1, :lo12:.L.str.71
	bl	keymatch
	cbz	w0, .LBB4_69
// %bb.59:                              // %if.then153
                                        //   in Loop: Header=BB4_3 Depth=1
	ldur	w8, [x29, #-36]
	ldur	w9, [x29, #-12]
	mov	w10, #120
	strb	w10, [sp, #4]
	add	w8, w8, #1                      // =1
	cmp	w8, w9
	stur	w8, [x29, #-36]
	b.lt	.LBB4_61
// %bb.60:                              // %if.then159
                                        //   in Loop: Header=BB4_3 Depth=1
	bl	usage
.LBB4_61:                               // %if.end160
                                        //   in Loop: Header=BB4_3 Depth=1
	ldur	x8, [x29, #-24]
	ldursw	x9, [x29, #-36]
	adrp	x1, .L.str.62
	add	x2, sp, #8                      // =8
	add	x3, sp, #4                      // =4
	ldr	x0, [x8, x9, lsl #3]
	add	x1, x1, :lo12:.L.str.62
	bl	__isoc99_sscanf
	cmp	w0, #0                          // =0
	b.gt	.LBB4_63
// %bb.62:                              // %if.then166
                                        //   in Loop: Header=BB4_3 Depth=1
	bl	usage
.LBB4_63:                               // %if.end167
                                        //   in Loop: Header=BB4_3 Depth=1
	ldr	x8, [sp, #8]
	tbnz	x8, #63, .LBB4_65
// %bb.64:                              // %if.end167
                                        //   in Loop: Header=BB4_3 Depth=1
	cmp	x8, #16, lsl #12                // =65536
	b.lt	.LBB4_66
.LBB4_65:                               // %if.then173
                                        //   in Loop: Header=BB4_3 Depth=1
	bl	usage
.LBB4_66:                               // %if.end174
                                        //   in Loop: Header=BB4_3 Depth=1
	ldrb	w8, [sp, #4]
	cmp	w8, #98                         // =98
	b.eq	.LBB4_68
// %bb.67:                              // %lor.lhs.false178
                                        //   in Loop: Header=BB4_3 Depth=1
	ldrb	w8, [sp, #4]
	cmp	w8, #66                         // =66
	b.ne	.LBB4_73
.LBB4_68:                               // %if.then182
                                        //   in Loop: Header=BB4_3 Depth=1
	ldr	x8, [sp, #8]
	ldur	x9, [x29, #-8]
	str	w8, [x9, #272]
	ldur	x8, [x29, #-8]
	str	wzr, [x8, #276]
	b	.LBB4_2
.LBB4_69:                               // %if.else188
                                        //   in Loop: Header=BB4_3 Depth=1
	ldur	x0, [x29, #-48]
	adrp	x1, .L.str.72
	mov	w2, #2
	add	x1, x1, :lo12:.L.str.72
	bl	keymatch
	cbz	w0, .LBB4_74
// %bb.70:                              // %if.then191
                                        //   in Loop: Header=BB4_3 Depth=1
	ldur	w8, [x29, #-36]
	ldur	w9, [x29, #-12]
	add	w8, w8, #1                      // =1
	cmp	w8, w9
	stur	w8, [x29, #-36]
	b.lt	.LBB4_72
// %bb.71:                              // %if.then195
                                        //   in Loop: Header=BB4_3 Depth=1
	bl	usage
.LBB4_72:                               // %if.end196
                                        //   in Loop: Header=BB4_3 Depth=1
	ldur	x8, [x29, #-24]
	ldursw	x9, [x29, #-36]
	ldr	x8, [x8, x9, lsl #3]
	str	x8, [sp, #24]
	b	.LBB4_2
.LBB4_73:                               // %if.else184
                                        //   in Loop: Header=BB4_3 Depth=1
	ldr	w8, [sp, #8]
	ldur	x9, [x29, #-8]
	str	w8, [x9, #276]
	b	.LBB4_2
.LBB4_74:                               // %if.else199
                                        //   in Loop: Header=BB4_3 Depth=1
	ldur	x0, [x29, #-48]
	adrp	x1, .L.str.73
	mov	w2, #2
	add	x1, x1, :lo12:.L.str.73
	bl	keymatch
	cbz	w0, .LBB4_78
// %bb.75:                              // %if.then202
                                        //   in Loop: Header=BB4_3 Depth=1
	ldur	w8, [x29, #-36]
	ldur	w9, [x29, #-12]
	add	w8, w8, #1                      // =1
	cmp	w8, w9
	stur	w8, [x29, #-36]
	b.lt	.LBB4_77
// %bb.76:                              // %if.then206
                                        //   in Loop: Header=BB4_3 Depth=1
	bl	usage
.LBB4_77:                               // %if.end207
                                        //   in Loop: Header=BB4_3 Depth=1
	ldur	x8, [x29, #-24]
	ldursw	x9, [x29, #-36]
	ldr	x8, [x8, x9, lsl #3]
	str	x8, [sp, #16]
	b	.LBB4_2
.LBB4_78:                               // %if.else210
                                        //   in Loop: Header=BB4_3 Depth=1
	ldur	x0, [x29, #-48]
	adrp	x1, .L.str.74
	mov	w2, #2
	add	x1, x1, :lo12:.L.str.74
	bl	keymatch
	cbz	w0, .LBB4_87
// %bb.79:                              // %if.then213
                                        //   in Loop: Header=BB4_3 Depth=1
	ldur	w8, [x29, #-36]
	ldur	w9, [x29, #-12]
	add	w8, w8, #1                      // =1
	cmp	w8, w9
	stur	w8, [x29, #-36]
	b.lt	.LBB4_81
// %bb.80:                              // %if.then217
                                        //   in Loop: Header=BB4_3 Depth=1
	bl	usage
.LBB4_81:                               // %if.end218
                                        //   in Loop: Header=BB4_3 Depth=1
	ldur	x8, [x29, #-24]
	ldursw	x9, [x29, #-36]
	adrp	x1, .L.str.68
	add	x2, sp, #8                      // =8
	add	x1, x1, :lo12:.L.str.68
	ldr	x0, [x8, x9, lsl #3]
	bl	__isoc99_sscanf
	cmp	w0, #1                          // =1
	b.eq	.LBB4_83
// %bb.82:                              // %if.then224
                                        //   in Loop: Header=BB4_3 Depth=1
	bl	usage
.LBB4_83:                               // %if.end225
                                        //   in Loop: Header=BB4_3 Depth=1
	ldr	w8, [sp, #8]
	tbnz	w8, #31, .LBB4_85
// %bb.84:                              // %if.end225
                                        //   in Loop: Header=BB4_3 Depth=1
	cmp	w8, #101                        // =101
	b.lt	.LBB4_86
.LBB4_85:                               // %if.then231
                                        //   in Loop: Header=BB4_3 Depth=1
	bl	usage
.LBB4_86:                               // %if.end232
                                        //   in Loop: Header=BB4_3 Depth=1
	ldr	w8, [sp, #8]
	ldur	x9, [x29, #-8]
	str	w8, [x9, #264]
	b	.LBB4_2
.LBB4_87:                               // %if.else233
                                        //   in Loop: Header=BB4_3 Depth=1
	ldur	x0, [x29, #-48]
	adrp	x1, .L.str.75
	mov	w2, #1
	add	x1, x1, :lo12:.L.str.75
	bl	keymatch
	cbz	w0, .LBB4_89
// %bb.88:                              // %if.then236
                                        //   in Loop: Header=BB4_3 Depth=1
	adrp	x8, .L_MergedGlobals
	str	w26, [x8, :lo12:.L_MergedGlobals]
	b	.LBB4_2
.LBB4_89:                               // %if.else237
                                        //   in Loop: Header=BB4_3 Depth=1
	bl	usage
	b	.LBB4_2
.LBB4_90:                               // %for.end
	ldur	w8, [x29, #-32]
	cbz	w8, .LBB4_105
// %bb.91:                              // %if.then257
	ldur	x0, [x29, #-8]
	ldur	w1, [x29, #-52]
	ldr	w2, [sp, #52]
	bl	jpeg_set_quality
	ldr	x8, [sp, #40]
	cbz	x8, .LBB4_94
// %bb.92:                              // %if.then260
	ldur	x0, [x29, #-8]
	ldr	x1, [sp, #40]
	ldp	w3, w2, [sp, #52]
	bl	read_quant_tables
	cbnz	w0, .LBB4_94
// %bb.93:                              // %if.then263
	bl	usage
.LBB4_94:                               // %if.end265
	ldr	x8, [sp, #32]
	cbz	x8, .LBB4_97
// %bb.95:                              // %if.then268
	ldur	x0, [x29, #-8]
	ldr	x1, [sp, #32]
	bl	set_quant_slots
	cbnz	w0, .LBB4_97
// %bb.96:                              // %if.then271
	bl	usage
.LBB4_97:                               // %if.end273
	ldr	x8, [sp, #24]
	cbz	x8, .LBB4_100
// %bb.98:                              // %if.then276
	ldur	x0, [x29, #-8]
	ldr	x1, [sp, #24]
	bl	set_sample_factors
	cbnz	w0, .LBB4_100
// %bb.99:                              // %if.then279
	bl	usage
.LBB4_100:                              // %if.end281
	ldr	w8, [sp, #48]
	cbz	w8, .LBB4_102
// %bb.101:                             // %if.then283
	ldur	x0, [x29, #-8]
	bl	jpeg_simple_progression
.LBB4_102:                              // %if.end284
	ldr	x8, [sp, #16]
	cbz	x8, .LBB4_105
// %bb.103:                             // %if.then287
	ldur	x0, [x29, #-8]
	ldr	x1, [sp, #16]
	bl	read_scan_script
	cbnz	w0, .LBB4_105
// %bb.104:                             // %if.then290
	bl	usage
.LBB4_105:                              // %if.end293
	ldur	w0, [x29, #-36]
	ldp	x20, x19, [sp, #192]            // 16-byte Folded Reload
	ldp	x22, x21, [sp, #176]            // 16-byte Folded Reload
	ldp	x24, x23, [sp, #160]            // 16-byte Folded Reload
	ldp	x26, x25, [sp, #144]            // 16-byte Folded Reload
	ldp	x28, x27, [sp, #128]            // 16-byte Folded Reload
	ldp	x29, x30, [sp, #112]            // 16-byte Folded Reload
	add	sp, sp, #208                    // =208
	ret
.LBB4_106:                              // %if.then7
	adrp	x8, stderr
	ldr	x0, [x8, :lo12:stderr]
	adrp	x8, .L_MergedGlobals+8
	ldr	x2, [x8, :lo12:.L_MergedGlobals+8]
	adrp	x1, .L.str.48
	add	x1, x1, :lo12:.L.str.48
	bl	fprintf
	mov	w0, #1
	bl	exit
.Lfunc_end4:
	.size	parse_switches, .Lfunc_end4-parse_switches
	.cfi_endproc
                                        // -- End function
	.p2align	2                               // -- Begin function usage
	.type	usage,@function
usage:                                  // @usage
	.cfi_startproc
// %bb.0:                               // %entry
	stp	x29, x30, [sp, #-32]!           // 16-byte Folded Spill
	stp	x20, x19, [sp, #16]             // 16-byte Folded Spill
	mov	x29, sp
	.cfi_def_cfa w29, 32
	.cfi_offset w19, -8
	.cfi_offset w20, -16
	.cfi_offset w30, -24
	.cfi_offset w29, -32
	adrp	x20, stderr
	adrp	x8, .L_MergedGlobals+8
	ldr	x0, [x20, :lo12:stderr]
	ldr	x2, [x8, :lo12:.L_MergedGlobals+8]
	adrp	x1, .L.str.76
	add	x1, x1, :lo12:.L.str.76
	bl	fprintf
	ldr	x0, [x20, :lo12:stderr]
	adrp	x1, .L.str.77
	add	x1, x1, :lo12:.L.str.77
	bl	fprintf
	ldr	x0, [x20, :lo12:stderr]
	adrp	x1, .L.str.78
	add	x1, x1, :lo12:.L.str.78
	bl	fprintf
	ldr	x0, [x20, :lo12:stderr]
	adrp	x1, .L.str.79
	add	x1, x1, :lo12:.L.str.79
	bl	fprintf
	ldr	x0, [x20, :lo12:stderr]
	adrp	x1, .L.str.80
	add	x1, x1, :lo12:.L.str.80
	bl	fprintf
	ldr	x0, [x20, :lo12:stderr]
	adrp	x1, .L.str.81
	add	x1, x1, :lo12:.L.str.81
	bl	fprintf
	ldr	x0, [x20, :lo12:stderr]
	adrp	x1, .L.str.82
	add	x1, x1, :lo12:.L.str.82
	bl	fprintf
	ldr	x0, [x20, :lo12:stderr]
	adrp	x1, .L.str.83
	add	x1, x1, :lo12:.L.str.83
	bl	fprintf
	ldr	x0, [x20, :lo12:stderr]
	adrp	x1, .L.str.84
	add	x1, x1, :lo12:.L.str.84
	bl	fprintf
	ldr	x0, [x20, :lo12:stderr]
	adrp	x1, .L.str.85
	adrp	x2, .L.str.86
	add	x1, x1, :lo12:.L.str.85
	add	x2, x2, :lo12:.L.str.86
	bl	fprintf
	ldr	x0, [x20, :lo12:stderr]
	adrp	x19, .L.str.88
	adrp	x1, .L.str.87
	add	x19, x19, :lo12:.L.str.88
	add	x1, x1, :lo12:.L.str.87
	mov	x2, x19
	bl	fprintf
	ldr	x0, [x20, :lo12:stderr]
	adrp	x1, .L.str.89
	add	x1, x1, :lo12:.L.str.89
	mov	x2, x19
	bl	fprintf
	ldr	x0, [x20, :lo12:stderr]
	adrp	x1, .L.str.90
	add	x1, x1, :lo12:.L.str.90
	bl	fprintf
	ldr	x0, [x20, :lo12:stderr]
	adrp	x1, .L.str.91
	add	x1, x1, :lo12:.L.str.91
	bl	fprintf
	ldr	x0, [x20, :lo12:stderr]
	adrp	x1, .L.str.92
	add	x1, x1, :lo12:.L.str.92
	bl	fprintf
	ldr	x0, [x20, :lo12:stderr]
	adrp	x1, .L.str.93
	add	x1, x1, :lo12:.L.str.93
	bl	fprintf
	ldr	x0, [x20, :lo12:stderr]
	adrp	x1, .L.str.94
	add	x1, x1, :lo12:.L.str.94
	bl	fprintf
	ldr	x0, [x20, :lo12:stderr]
	adrp	x1, .L.str.95
	add	x1, x1, :lo12:.L.str.95
	bl	fprintf
	ldr	x0, [x20, :lo12:stderr]
	adrp	x1, .L.str.96
	add	x1, x1, :lo12:.L.str.96
	bl	fprintf
	ldr	x0, [x20, :lo12:stderr]
	adrp	x1, .L.str.97
	add	x1, x1, :lo12:.L.str.97
	bl	fprintf
	ldr	x0, [x20, :lo12:stderr]
	adrp	x1, .L.str.98
	add	x1, x1, :lo12:.L.str.98
	bl	fprintf
	ldr	x0, [x20, :lo12:stderr]
	adrp	x1, .L.str.99
	add	x1, x1, :lo12:.L.str.99
	bl	fprintf
	ldr	x0, [x20, :lo12:stderr]
	adrp	x1, .L.str.100
	add	x1, x1, :lo12:.L.str.100
	bl	fprintf
	mov	w0, #1
	bl	exit
.Lfunc_end5:
	.size	usage, .Lfunc_end5-usage
	.cfi_endproc
                                        // -- End function
	.p2align	2                               // -- Begin function select_file_type
	.type	select_file_type,@function
select_file_type:                       // @select_file_type
	.cfi_startproc
// %bb.0:                               // %entry
	sub	sp, sp, #48                     // =48
	stp	x29, x30, [sp, #32]             // 16-byte Folded Spill
	add	x29, sp, #32                    // =32
	.cfi_def_cfa w29, 16
	.cfi_offset w30, -8
	.cfi_offset w29, -16
	adrp	x8, .L_MergedGlobals
	ldr	w8, [x8, :lo12:.L_MergedGlobals]
	stp	x1, x0, [sp, #8]
	cbz	w8, .LBB6_4
.LBB6_1:                                // %if.then
	ldr	x0, [sp, #16]
	bl	jinit_read_targa
.LBB6_2:                                // %cleanup
	stur	x0, [x29, #-8]
.LBB6_3:                                // %cleanup
	ldur	x0, [x29, #-8]
	ldp	x29, x30, [sp, #32]             // 16-byte Folded Reload
	mov	w8, #1
	str	w8, [sp], #48
	ret
.LBB6_4:                                // %if.end
	ldr	x0, [sp, #8]
	bl	getc
	cmn	w0, #1                          // =1
	str	w0, [sp, #4]
	b.ne	.LBB6_6
// %bb.5:                               // %if.then2
	ldr	x8, [sp, #16]
	mov	w9, #41
	ldr	x8, [x8]
	str	w9, [x8, #40]
	ldr	x0, [sp, #16]
	ldr	x8, [x0]
	ldr	x8, [x8]
	blr	x8
.LBB6_6:                                // %if.end4
	ldr	w0, [sp, #4]
	ldr	x1, [sp, #8]
	bl	ungetc
	cmn	w0, #1                          // =1
	b.eq	.LBB6_11
// %bb.7:                               // %if.end12
	ldr	w8, [sp, #4]
	cmp	w8, #70                         // =70
	b.gt	.LBB6_12
.LBB6_8:                                // %if.end12
	cbz	w8, .LBB6_1
// %bb.9:                               // %if.end12
	cmp	w8, #66                         // =66
	b.ne	.LBB6_16
// %bb.10:                              // %sw.bb
	ldr	x0, [sp, #16]
	bl	jinit_read_bmp
	b	.LBB6_2
.LBB6_11:                               // %if.then7
	ldr	x8, [sp, #16]
	mov	w9, #1040
	ldr	x8, [x8]
	str	w9, [x8, #40]
	ldr	x0, [sp, #16]
	ldr	x8, [x0]
	ldr	x8, [x8]
	blr	x8
	ldr	w8, [sp, #4]
	cmp	w8, #70                         // =70
	b.le	.LBB6_8
.LBB6_12:                               // %if.end12
	cmp	w8, #71                         // =71
	b.eq	.LBB6_15
// %bb.13:                              // %if.end12
	cmp	w8, #80                         // =80
	b.ne	.LBB6_16
// %bb.14:                              // %sw.bb16
	ldr	x0, [sp, #16]
	bl	jinit_read_ppm
	b	.LBB6_2
.LBB6_15:                               // %sw.bb14
	ldr	x0, [sp, #16]
	bl	jinit_read_gif
	b	.LBB6_2
.LBB6_16:                               // %sw.default
	ldr	x8, [sp, #16]
	mov	w9, #1041
	ldr	x8, [x8]
	str	w9, [x8, #40]
	ldr	x0, [sp, #16]
	ldr	x8, [x0]
	ldr	x8, [x8]
	blr	x8
	stur	xzr, [x29, #-8]
	b	.LBB6_3
.Lfunc_end6:
	.size	select_file_type, .Lfunc_end6-select_file_type
	.cfi_endproc
                                        // -- End function
	.globl	jpeg_CreateCompress             // -- Begin function jpeg_CreateCompress
	.p2align	2
	.type	jpeg_CreateCompress,@function
jpeg_CreateCompress:                    // @jpeg_CreateCompress
	.cfi_startproc
// %bb.0:                               // %entry
	sub	sp, sp, #48                     // =48
	stp	x29, x30, [sp, #32]             // 16-byte Folded Spill
	add	x29, sp, #32                    // =32
	.cfi_def_cfa w29, 16
	.cfi_offset w30, -8
	.cfi_offset w29, -16
	mov	w8, w1
	cmp	w8, #61                         // =61
	stur	x0, [x29, #-8]
	stur	w1, [x29, #-12]
	str	x2, [sp, #8]
	str	xzr, [x0, #8]
	b.eq	.LBB7_2
// %bb.1:                               // %if.then
	ldur	x8, [x29, #-8]
	mov	w9, #10
	ldr	x8, [x8]
	str	w9, [x8, #40]
	ldur	x8, [x29, #-8]
	mov	w9, #61
	ldr	x8, [x8]
	str	w9, [x8, #44]
	ldur	x8, [x29, #-8]
	ldur	w9, [x29, #-12]
	ldr	x8, [x8]
	str	w9, [x8, #48]
	ldur	x0, [x29, #-8]
	ldr	x8, [x0]
	ldr	x8, [x8]
	blr	x8
.LBB7_2:                                // %if.end
	ldr	x8, [sp, #8]
	cmp	x8, #496                        // =496
	b.eq	.LBB7_4
// %bb.3:                               // %if.then9
	ldur	x8, [x29, #-8]
	mov	w9, #19
	ldr	x8, [x8]
	str	w9, [x8, #40]
	ldur	x8, [x29, #-8]
	mov	w9, #496
	ldr	x8, [x8]
	str	w9, [x8, #44]
	ldur	x8, [x29, #-8]
	ldr	x9, [sp, #8]
	ldr	x8, [x8]
	str	w9, [x8, #48]
	ldur	x0, [x29, #-8]
	ldr	x8, [x0]
	ldr	x8, [x8]
	blr	x8
.LBB7_4:                                // %if.end22
	ldur	x8, [x29, #-8]
	movi	v0.2d, #0000000000000000
	ldr	x9, [x8]
	str	x9, [sp]
	stp	q0, q0, [x8, #464]
	stp	q0, q0, [x8, #432]
	stp	q0, q0, [x8, #400]
	stp	q0, q0, [x8, #368]
	stp	q0, q0, [x8, #336]
	stp	q0, q0, [x8, #304]
	stp	q0, q0, [x8, #272]
	stp	q0, q0, [x8, #240]
	stp	q0, q0, [x8, #208]
	stp	q0, q0, [x8, #176]
	stp	q0, q0, [x8, #144]
	stp	q0, q0, [x8, #112]
	stp	q0, q0, [x8, #80]
	stp	q0, q0, [x8, #48]
	stp	q0, q0, [x8, #16]
	str	q0, [x8]
	mov	x8, x9
	ldur	x9, [x29, #-8]
	str	x8, [x9]
	ldur	x8, [x29, #-8]
	str	wzr, [x8, #24]
	ldur	x0, [x29, #-8]
	bl	jinit_memory_mgr
	ldur	x8, [x29, #-8]
	str	xzr, [x8, #16]
	ldur	x8, [x29, #-8]
	str	xzr, [x8, #32]
	ldur	x8, [x29, #-8]
	str	xzr, [x8, #80]
	str	wzr, [sp]
	mov	w8, wzr
	cmp	w8, #3                          // =3
	b.gt	.LBB7_6
.LBB7_5:                                // %for.body
                                        // =>This Inner Loop Header: Depth=1
	ldur	x8, [x29, #-8]
	ldrsw	x9, [sp]
	add	x8, x8, x9, lsl #3
	str	xzr, [x8, #88]
	ldr	w8, [sp]
	add	w8, w8, #1                      // =1
	str	w8, [sp]
	mov	w8, w8
	cmp	w8, #3                          // =3
	b.le	.LBB7_5
.LBB7_6:                                // %for.end
	str	wzr, [sp]
	mov	w9, wzr
	ldur	x8, [x29, #-8]
	cmp	w9, #3                          // =3
	b.gt	.LBB7_8
.LBB7_7:                                // %for.body32
                                        // =>This Inner Loop Header: Depth=1
	ldrsw	x9, [sp]
	add	x8, x8, x9, lsl #3
	str	xzr, [x8, #120]
	ldur	x8, [x29, #-8]
	ldrsw	x9, [sp]
	add	x8, x8, x9, lsl #3
	str	xzr, [x8, #152]
	ldr	w8, [sp]
	add	w8, w8, #1                      // =1
	str	w8, [sp]
	mov	w9, w8
	ldur	x8, [x29, #-8]
	cmp	w9, #3                          // =3
	b.le	.LBB7_7
.LBB7_8:                                // %for.end39
	mov	x9, #4607182418800017408
	str	x9, [x8, #56]
	ldur	x8, [x29, #-8]
	ldp	x29, x30, [sp, #32]             // 16-byte Folded Reload
	mov	w9, #100
	str	w9, [x8, #28]
	add	sp, sp, #48                     // =48
	ret
.Lfunc_end7:
	.size	jpeg_CreateCompress, .Lfunc_end7-jpeg_CreateCompress
	.cfi_endproc
                                        // -- End function
	.globl	jpeg_destroy_compress           // -- Begin function jpeg_destroy_compress
	.p2align	2
	.type	jpeg_destroy_compress,@function
jpeg_destroy_compress:                  // @jpeg_destroy_compress
	.cfi_startproc
// %bb.0:                               // %entry
	sub	sp, sp, #32                     // =32
	stp	x29, x30, [sp, #16]             // 16-byte Folded Spill
	add	x29, sp, #16                    // =16
	.cfi_def_cfa w29, 16
	.cfi_offset w30, -8
	.cfi_offset w29, -16
	str	x0, [sp, #8]
	bl	jpeg_destroy
	ldp	x29, x30, [sp, #16]             // 16-byte Folded Reload
	add	sp, sp, #32                     // =32
	ret
.Lfunc_end8:
	.size	jpeg_destroy_compress, .Lfunc_end8-jpeg_destroy_compress
	.cfi_endproc
                                        // -- End function
	.globl	jpeg_abort_compress             // -- Begin function jpeg_abort_compress
	.p2align	2
	.type	jpeg_abort_compress,@function
jpeg_abort_compress:                    // @jpeg_abort_compress
	.cfi_startproc
// %bb.0:                               // %entry
	sub	sp, sp, #32                     // =32
	stp	x29, x30, [sp, #16]             // 16-byte Folded Spill
	add	x29, sp, #16                    // =16
	.cfi_def_cfa w29, 16
	.cfi_offset w30, -8
	.cfi_offset w29, -16
	str	x0, [sp, #8]
	bl	jpeg_abort
	ldp	x29, x30, [sp, #16]             // 16-byte Folded Reload
	add	sp, sp, #32                     // =32
	ret
.Lfunc_end9:
	.size	jpeg_abort_compress, .Lfunc_end9-jpeg_abort_compress
	.cfi_endproc
                                        // -- End function
	.globl	jpeg_suppress_tables            // -- Begin function jpeg_suppress_tables
	.p2align	2
	.type	jpeg_suppress_tables,@function
jpeg_suppress_tables:                   // @jpeg_suppress_tables
	.cfi_startproc
// %bb.0:                               // %entry
	sub	sp, sp, #32                     // =32
	.cfi_def_cfa_offset 32
	str	x0, [sp, #24]
	stp	wzr, w1, [sp, #16]
	b	.LBB10_2
.LBB10_1:                               // %for.inc
                                        //   in Loop: Header=BB10_2 Depth=1
	ldr	w8, [sp, #16]
	add	w8, w8, #1                      // =1
	str	w8, [sp, #16]
.LBB10_2:                               // %for.cond
                                        // =>This Inner Loop Header: Depth=1
	ldr	w8, [sp, #16]
	cmp	w8, #3                          // =3
	b.gt	.LBB10_5
// %bb.3:                               // %for.body
                                        //   in Loop: Header=BB10_2 Depth=1
	ldr	x8, [sp, #24]
	ldrsw	x9, [sp, #16]
	add	x8, x8, x9, lsl #3
	ldr	x8, [x8, #88]
	str	x8, [sp, #8]
	cbz	x8, .LBB10_1
// %bb.4:                               // %if.then
                                        //   in Loop: Header=BB10_2 Depth=1
	ldr	w8, [sp, #20]
	ldr	x9, [sp, #8]
	str	w8, [x9, #128]
	b	.LBB10_1
.LBB10_5:                               // %for.end
	str	wzr, [sp, #16]
	b	.LBB10_7
.LBB10_6:                               // %for.inc17
                                        //   in Loop: Header=BB10_7 Depth=1
	ldr	w8, [sp, #16]
	add	w8, w8, #1                      // =1
	str	w8, [sp, #16]
.LBB10_7:                               // %for.cond2
                                        // =>This Inner Loop Header: Depth=1
	ldr	w8, [sp, #16]
	cmp	w8, #3                          // =3
	b.gt	.LBB10_12
// %bb.8:                               // %for.body4
                                        //   in Loop: Header=BB10_7 Depth=1
	ldr	x8, [sp, #24]
	ldrsw	x9, [sp, #16]
	add	x8, x8, x9, lsl #3
	ldr	x8, [x8, #120]
	str	x8, [sp]
	cbz	x8, .LBB10_10
// %bb.9:                               // %if.then8
                                        //   in Loop: Header=BB10_7 Depth=1
	ldr	w8, [sp, #20]
	ldr	x9, [sp]
	str	w8, [x9, #276]
.LBB10_10:                              // %if.end10
                                        //   in Loop: Header=BB10_7 Depth=1
	ldr	x8, [sp, #24]
	ldrsw	x9, [sp, #16]
	add	x8, x8, x9, lsl #3
	ldr	x8, [x8, #152]
	str	x8, [sp]
	cbz	x8, .LBB10_6
// %bb.11:                              // %if.then14
                                        //   in Loop: Header=BB10_7 Depth=1
	ldr	w8, [sp, #20]
	ldr	x9, [sp]
	str	w8, [x9, #276]
	b	.LBB10_6
.LBB10_12:                              // %for.end19
	add	sp, sp, #32                     // =32
	ret
.Lfunc_end10:
	.size	jpeg_suppress_tables, .Lfunc_end10-jpeg_suppress_tables
	.cfi_endproc
                                        // -- End function
	.globl	jpeg_finish_compress            // -- Begin function jpeg_finish_compress
	.p2align	2
	.type	jpeg_finish_compress,@function
jpeg_finish_compress:                   // @jpeg_finish_compress
	.cfi_startproc
// %bb.0:                               // %entry
	sub	sp, sp, #48                     // =48
	stp	x29, x30, [sp, #16]             // 16-byte Folded Spill
	str	x19, [sp, #32]                  // 8-byte Folded Spill
	add	x29, sp, #16                    // =16
	.cfi_def_cfa w29, 32
	.cfi_offset w19, -16
	.cfi_offset w30, -24
	.cfi_offset w29, -32
	str	x0, [x29, #24]
	ldr	w8, [x0, #28]
	cmp	w8, #101                        // =101
	b.eq	.LBB11_2
// %bb.1:                               // %lor.lhs.false
	ldr	x8, [x29, #24]
	ldr	w8, [x8, #28]
	cmp	w8, #102                        // =102
	b.ne	.LBB11_17
.LBB11_2:                               // %if.then
	ldr	x8, [x29, #24]
	ldr	w9, [x8, #296]
	ldr	w8, [x8, #44]
	cmp	w9, w8
	b.hs	.LBB11_4
// %bb.3:                               // %if.then4
	ldr	x8, [x29, #24]
	mov	w9, #66
	ldr	x8, [x8]
	str	w9, [x8, #40]
	ldr	x0, [x29, #24]
	ldr	x8, [x0]
	ldr	x8, [x8]
	blr	x8
.LBB11_4:                               // %if.end
	ldr	x0, [x29, #24]
	ldr	x8, [x0, #424]
	ldr	x8, [x8, #16]
.LBB11_5:                               // %while.cond.preheader
	blr	x8
.LBB11_6:                               // %while.cond.preheader
	mov	w19, #22
	b	.LBB11_8
.LBB11_7:                               // %for.end
                                        //   in Loop: Header=BB11_8 Depth=1
	ldr	x8, [x8, #424]
	ldr	x0, [x29, #24]
	ldr	x8, [x8, #16]
	blr	x8
.LBB11_8:                               // %while.cond
                                        // =>This Loop Header: Depth=1
                                        //     Child Loop BB11_11 Depth 2
	ldr	x8, [x29, #24]
	ldr	x9, [x8, #424]
	ldr	w9, [x9, #28]
	cbnz	w9, .LBB11_16
// %bb.9:                               // %while.body
                                        //   in Loop: Header=BB11_8 Depth=1
	ldr	x8, [x8, #424]
	ldr	x0, [x29, #24]
	ldr	x8, [x8]
	blr	x8
	stur	wzr, [x29, #-4]
	b	.LBB11_11
.LBB11_10:                              // %for.inc
                                        //   in Loop: Header=BB11_11 Depth=2
	ldur	w8, [x29, #-4]
	add	w8, w8, #1                      // =1
	stur	w8, [x29, #-4]
.LBB11_11:                              // %for.cond
                                        //   Parent Loop BB11_8 Depth=1
                                        // =>  This Inner Loop Header: Depth=2
	ldr	x8, [x29, #24]
	ldur	w9, [x29, #-4]
	ldr	w10, [x8, #312]
	cmp	w9, w10
	b.hs	.LBB11_7
// %bb.12:                              // %for.body
                                        //   in Loop: Header=BB11_11 Depth=2
	ldr	x8, [x8, #16]
	cbz	x8, .LBB11_14
// %bb.13:                              // %if.then21
                                        //   in Loop: Header=BB11_11 Depth=2
	ldr	x8, [x29, #24]
	ldur	w9, [x29, #-4]
	ldr	x8, [x8, #16]
	str	x9, [x8, #8]
	ldr	x8, [x29, #24]
	ldr	w9, [x8, #312]
	ldr	x8, [x8, #16]
	str	x9, [x8, #16]
	ldr	x0, [x29, #24]
	ldr	x8, [x0, #16]
	ldr	x8, [x8]
	blr	x8
.LBB11_14:                              // %if.end28
                                        //   in Loop: Header=BB11_11 Depth=2
	ldr	x0, [x29, #24]
	mov	x1, xzr
	ldr	x8, [x0, #448]
	ldr	x8, [x8, #8]
	blr	x8
	cbnz	w0, .LBB11_10
// %bb.15:                              // %if.then30
                                        //   in Loop: Header=BB11_11 Depth=2
	ldr	x8, [x29, #24]
	ldr	x8, [x8]
	str	w19, [x8, #40]
	ldr	x0, [x29, #24]
	ldr	x8, [x0]
	ldr	x8, [x8]
	blr	x8
	b	.LBB11_10
.LBB11_16:                              // %while.end
	ldr	x8, [x8, #456]
	ldr	x0, [x29, #24]
	ldr	x8, [x8, #32]
	blr	x8
	ldr	x0, [x29, #24]
	ldr	x8, [x0, #32]
	ldr	x8, [x8, #32]
	blr	x8
	ldr	x0, [x29, #24]
	bl	jpeg_abort
	ldr	x19, [sp, #32]                  // 8-byte Folded Reload
	ldp	x29, x30, [sp, #16]             // 16-byte Folded Reload
	add	sp, sp, #48                     // =48
	ret
.LBB11_17:                              // %if.else
	ldr	x8, [x29, #24]
	ldr	w8, [x8, #28]
	cmp	w8, #103                        // =103
	b.eq	.LBB11_6
// %bb.18:                              // %if.then8
	ldr	x8, [x29, #24]
	mov	w9, #18
	ldr	x8, [x8]
	str	w9, [x8, #40]
	ldr	x8, [x29, #24]
	ldr	w9, [x8, #28]
	ldr	x8, [x8]
	str	w9, [x8, #44]
	ldr	x0, [x29, #24]
	ldr	x8, [x0]
	ldr	x8, [x8]
	b	.LBB11_5
.Lfunc_end11:
	.size	jpeg_finish_compress, .Lfunc_end11-jpeg_finish_compress
	.cfi_endproc
                                        // -- End function
	.globl	jpeg_write_marker               // -- Begin function jpeg_write_marker
	.p2align	2
	.type	jpeg_write_marker,@function
jpeg_write_marker:                      // @jpeg_write_marker
	.cfi_startproc
// %bb.0:                               // %entry
	sub	sp, sp, #48                     // =48
	stp	x29, x30, [sp, #32]             // 16-byte Folded Spill
	add	x29, sp, #32                    // =32
	.cfi_def_cfa w29, 16
	.cfi_offset w30, -8
	.cfi_offset w29, -16
	stur	x0, [x29, #-8]
	stur	w1, [x29, #-12]
	str	x2, [sp, #8]
	str	w3, [sp, #4]
	ldr	w8, [x0, #296]
	cbz	w8, .LBB12_2
.LBB12_1:                               // %if.then
	ldur	x8, [x29, #-8]
	mov	w9, #18
	ldr	x8, [x8]
	str	w9, [x8, #40]
	ldur	x8, [x29, #-8]
	ldr	w9, [x8, #28]
	ldr	x8, [x8]
	str	w9, [x8, #44]
	ldur	x0, [x29, #-8]
	ldr	x8, [x0]
	ldr	x8, [x8]
	blr	x8
	b	.LBB12_5
.LBB12_2:                               // %lor.lhs.false
	ldur	x8, [x29, #-8]
	ldr	w8, [x8, #28]
	cmp	w8, #101                        // =101
	b.eq	.LBB12_5
// %bb.3:                               // %land.lhs.true
	ldur	x8, [x29, #-8]
	ldr	w8, [x8, #28]
	cmp	w8, #102                        // =102
	b.eq	.LBB12_5
// %bb.4:                               // %land.lhs.true4
	ldur	x8, [x29, #-8]
	ldr	w8, [x8, #28]
	cmp	w8, #103                        // =103
	b.ne	.LBB12_1
.LBB12_5:                               // %if.end
	ldur	x0, [x29, #-8]
	ldur	w1, [x29, #-12]
	ldr	x2, [sp, #8]
	ldr	w3, [sp, #4]
	ldr	x8, [x0, #456]
	ldr	x8, [x8]
	blr	x8
	ldp	x29, x30, [sp, #32]             // 16-byte Folded Reload
	add	sp, sp, #48                     // =48
	ret
.Lfunc_end12:
	.size	jpeg_write_marker, .Lfunc_end12-jpeg_write_marker
	.cfi_endproc
                                        // -- End function
	.globl	jpeg_write_tables               // -- Begin function jpeg_write_tables
	.p2align	2
	.type	jpeg_write_tables,@function
jpeg_write_tables:                      // @jpeg_write_tables
	.cfi_startproc
// %bb.0:                               // %entry
	sub	sp, sp, #32                     // =32
	stp	x29, x30, [sp, #16]             // 16-byte Folded Spill
	add	x29, sp, #16                    // =16
	.cfi_def_cfa w29, 16
	.cfi_offset w30, -8
	.cfi_offset w29, -16
	str	x0, [sp, #8]
	ldr	w8, [x0, #28]
	cmp	w8, #100                        // =100
	b.eq	.LBB13_2
// %bb.1:                               // %if.then
	ldr	x8, [sp, #8]
	mov	w9, #18
	ldr	x8, [x8]
	str	w9, [x8, #40]
	ldr	x8, [sp, #8]
	ldr	w9, [x8, #28]
	ldr	x8, [x8]
	str	w9, [x8, #44]
	ldr	x0, [sp, #8]
	ldr	x8, [x0]
	ldr	x8, [x8]
	blr	x8
.LBB13_2:                               // %if.end
	ldr	x0, [sp, #8]
	ldr	x8, [x0]
	ldr	x8, [x8, #32]
	blr	x8
	ldr	x0, [sp, #8]
	ldr	x8, [x0, #32]
	ldr	x8, [x8, #16]
	blr	x8
	ldr	x0, [sp, #8]
	bl	jinit_marker_writer
	ldr	x0, [sp, #8]
	ldr	x8, [x0, #456]
	ldr	x8, [x8, #40]
	blr	x8
	ldr	x0, [sp, #8]
	ldr	x8, [x0, #32]
	ldr	x8, [x8, #32]
	blr	x8
	ldr	x0, [sp, #8]
	bl	jpeg_abort
	ldp	x29, x30, [sp, #16]             // 16-byte Folded Reload
	add	sp, sp, #32                     // =32
	ret
.Lfunc_end13:
	.size	jpeg_write_tables, .Lfunc_end13-jpeg_write_tables
	.cfi_endproc
                                        // -- End function
	.globl	jpeg_start_compress             // -- Begin function jpeg_start_compress
	.p2align	2
	.type	jpeg_start_compress,@function
jpeg_start_compress:                    // @jpeg_start_compress
	.cfi_startproc
// %bb.0:                               // %entry
	sub	sp, sp, #32                     // =32
	stp	x29, x30, [sp, #16]             // 16-byte Folded Spill
	add	x29, sp, #16                    // =16
	.cfi_def_cfa w29, 16
	.cfi_offset w30, -8
	.cfi_offset w29, -16
	str	x0, [sp, #8]
	str	w1, [sp, #4]
	ldr	w8, [x0, #28]
	cmp	w8, #100                        // =100
	b.eq	.LBB14_2
// %bb.1:                               // %if.then
	ldr	x8, [sp, #8]
	mov	w9, #18
	ldr	x8, [x8]
	str	w9, [x8, #40]
	ldr	x8, [sp, #8]
	ldr	w9, [x8, #28]
	ldr	x8, [x8]
	str	w9, [x8, #44]
	ldr	x0, [sp, #8]
	ldr	x8, [x0]
	ldr	x8, [x8]
	blr	x8
.LBB14_2:                               // %if.end
	ldr	w8, [sp, #4]
	cbz	w8, .LBB14_4
// %bb.3:                               // %if.then4
	ldr	x0, [sp, #8]
	mov	w1, wzr
	bl	jpeg_suppress_tables
.LBB14_4:                               // %if.end5
	ldr	x0, [sp, #8]
	ldr	x8, [x0]
	ldr	x8, [x8, #32]
	blr	x8
	ldr	x0, [sp, #8]
	ldr	x8, [x0, #32]
	ldr	x8, [x8, #16]
	blr	x8
	ldr	x0, [sp, #8]
	bl	jinit_compress_master
	ldr	x0, [sp, #8]
	ldr	x8, [x0, #424]
	ldr	x8, [x8]
	blr	x8
	ldr	x8, [sp, #8]
	ldp	x29, x30, [sp, #16]             // 16-byte Folded Reload
	str	wzr, [x8, #296]
	ldr	x8, [sp, #8]
	ldr	w9, [x8, #248]
	cmp	w9, #0                          // =0
	mov	w9, #101
	cinc	w9, w9, ne
	str	w9, [x8, #28]
	add	sp, sp, #32                     // =32
	ret
.Lfunc_end14:
	.size	jpeg_start_compress, .Lfunc_end14-jpeg_start_compress
	.cfi_endproc
                                        // -- End function
	.globl	jpeg_write_scanlines            // -- Begin function jpeg_write_scanlines
	.p2align	2
	.type	jpeg_write_scanlines,@function
jpeg_write_scanlines:                   // @jpeg_write_scanlines
	.cfi_startproc
// %bb.0:                               // %entry
	sub	sp, sp, #48                     // =48
	stp	x29, x30, [sp, #32]             // 16-byte Folded Spill
	add	x29, sp, #32                    // =32
	.cfi_def_cfa w29, 16
	.cfi_offset w30, -8
	.cfi_offset w29, -16
	stur	x0, [x29, #-8]
	str	x1, [sp, #16]
	str	w2, [sp, #12]
	ldr	w8, [x0, #28]
	cmp	w8, #101                        // =101
	b.eq	.LBB15_2
// %bb.1:                               // %if.then
	ldur	x8, [x29, #-8]
	mov	w9, #18
	ldr	x8, [x8]
	str	w9, [x8, #40]
	ldur	x8, [x29, #-8]
	ldr	w9, [x8, #28]
	ldr	x8, [x8]
	str	w9, [x8, #44]
	ldur	x0, [x29, #-8]
	ldr	x8, [x0]
	ldr	x8, [x8]
	blr	x8
.LBB15_2:                               // %if.end
	ldur	x8, [x29, #-8]
	ldr	w9, [x8, #296]
	ldr	w8, [x8, #44]
	cmp	w9, w8
	b.lo	.LBB15_4
// %bb.3:                               // %if.then5
	ldur	x8, [x29, #-8]
	mov	w9, #119
	mov	w1, #-1
	ldr	x8, [x8]
	str	w9, [x8, #40]
	ldur	x0, [x29, #-8]
	ldr	x8, [x0]
	ldr	x8, [x8, #8]
	blr	x8
.LBB15_4:                               // %if.end9
	ldur	x8, [x29, #-8]
	ldr	x8, [x8, #16]
	cbz	x8, .LBB15_6
// %bb.5:                               // %if.then11
	ldur	x8, [x29, #-8]
	ldr	w9, [x8, #296]
	ldr	x8, [x8, #16]
	str	x9, [x8, #8]
	ldur	x8, [x29, #-8]
	ldr	w9, [x8, #44]
	ldr	x8, [x8, #16]
	str	x9, [x8, #16]
	ldur	x0, [x29, #-8]
	ldr	x8, [x0, #16]
	ldr	x8, [x8]
	blr	x8
.LBB15_6:                               // %if.end19
	ldur	x8, [x29, #-8]
	ldr	x8, [x8, #424]
	ldr	w8, [x8, #24]
	cbz	w8, .LBB15_8
// %bb.7:                               // %if.then20
	ldur	x0, [x29, #-8]
	ldr	x8, [x0, #424]
	ldr	x8, [x8, #8]
	blr	x8
.LBB15_8:                               // %if.end22
	ldur	x8, [x29, #-8]
	ldr	w10, [sp, #12]
	ldr	w9, [x8, #44]
	ldr	w8, [x8, #296]
	sub	w8, w9, w8
	cmp	w10, w8
	str	w8, [sp, #4]
	b.ls	.LBB15_10
// %bb.9:                               // %if.then27
	ldr	w8, [sp, #4]
	str	w8, [sp, #12]
.LBB15_10:                              // %if.end28
	ldur	x0, [x29, #-8]
	str	wzr, [sp, #8]
	ldr	x1, [sp, #16]
	ldr	w3, [sp, #12]
	ldr	x8, [x0, #432]
	add	x2, sp, #8                      // =8
	ldr	x8, [x8, #8]
	blr	x8
	ldur	x8, [x29, #-8]
	ldr	w9, [sp, #8]
	ldp	x29, x30, [sp, #32]             // 16-byte Folded Reload
	ldr	w10, [x8, #296]
	add	w9, w10, w9
	str	w9, [x8, #296]
	ldr	w0, [sp, #8]
	add	sp, sp, #48                     // =48
	ret
.Lfunc_end15:
	.size	jpeg_write_scanlines, .Lfunc_end15-jpeg_write_scanlines
	.cfi_endproc
                                        // -- End function
	.globl	jpeg_write_raw_data             // -- Begin function jpeg_write_raw_data
	.p2align	2
	.type	jpeg_write_raw_data,@function
jpeg_write_raw_data:                    // @jpeg_write_raw_data
	.cfi_startproc
// %bb.0:                               // %entry
	sub	sp, sp, #64                     // =64
	stp	x29, x30, [sp, #48]             // 16-byte Folded Spill
	add	x29, sp, #48                    // =48
	.cfi_def_cfa w29, 16
	.cfi_offset w30, -8
	.cfi_offset w29, -16
	stur	x0, [x29, #-16]
	str	x1, [sp, #24]
	str	w2, [sp, #20]
	ldr	w8, [x0, #28]
	cmp	w8, #102                        // =102
	b.eq	.LBB16_2
// %bb.1:                               // %if.then
	ldur	x8, [x29, #-16]
	mov	w9, #18
	ldr	x8, [x8]
	str	w9, [x8, #40]
	ldur	x8, [x29, #-16]
	ldr	w9, [x8, #28]
	ldr	x8, [x8]
	str	w9, [x8, #44]
	ldur	x0, [x29, #-16]
	ldr	x8, [x0]
	ldr	x8, [x8]
	blr	x8
.LBB16_2:                               // %if.end
	ldur	x8, [x29, #-16]
	ldr	w9, [x8, #296]
	ldr	w10, [x8, #44]
	cmp	w9, w10
	b.lo	.LBB16_4
// %bb.3:                               // %if.then5
	ldr	x8, [x8]
	mov	w9, #119
	mov	w1, #-1
	str	w9, [x8, #40]
	ldur	x0, [x29, #-16]
	ldr	x8, [x0]
	ldr	x8, [x8, #8]
	blr	x8
	b	.LBB16_12
.LBB16_4:                               // %if.end9
	ldr	x8, [x8, #16]
	cbz	x8, .LBB16_6
// %bb.5:                               // %if.then11
	ldur	x8, [x29, #-16]
	ldr	w9, [x8, #296]
	ldr	x8, [x8, #16]
	str	x9, [x8, #8]
	ldur	x8, [x29, #-16]
	ldr	w9, [x8, #44]
	ldr	x8, [x8, #16]
	str	x9, [x8, #16]
	ldur	x0, [x29, #-16]
	ldr	x8, [x0, #16]
	ldr	x8, [x8]
	blr	x8
.LBB16_6:                               // %if.end19
	ldur	x8, [x29, #-16]
	ldr	x8, [x8, #424]
	ldr	w8, [x8, #24]
	cbz	w8, .LBB16_8
// %bb.7:                               // %if.then20
	ldur	x0, [x29, #-16]
	ldr	x8, [x0, #424]
	ldr	x8, [x8, #8]
	blr	x8
.LBB16_8:                               // %if.end22
	ldur	x8, [x29, #-16]
	ldr	w9, [sp, #20]
	ldr	w8, [x8, #308]
	lsl	w8, w8, #3
	cmp	w9, w8
	str	w8, [sp, #16]
	b.hs	.LBB16_10
// %bb.9:                               // %if.then25
	ldur	x8, [x29, #-16]
	mov	w9, #21
	ldr	x8, [x8]
	str	w9, [x8, #40]
	ldur	x0, [x29, #-16]
	ldr	x8, [x0]
	ldr	x8, [x8]
	blr	x8
.LBB16_10:                              // %if.end30
	ldur	x0, [x29, #-16]
	ldr	x1, [sp, #24]
	ldr	x8, [x0, #448]
	ldr	x8, [x8, #8]
	blr	x8
	cbz	w0, .LBB16_12
// %bb.11:                              // %if.end33
	ldur	x8, [x29, #-16]
	ldr	w9, [sp, #16]
	ldr	w10, [x8, #296]
	add	w9, w10, w9
	str	w9, [x8, #296]
	ldr	w8, [sp, #16]
	mov	w9, #1
	str	w9, [sp, #12]
	stur	w8, [x29, #-4]
	mov	w0, w8
	ldp	x29, x30, [sp, #48]             // 16-byte Folded Reload
	add	sp, sp, #64                     // =64
	ret
.LBB16_12:                              // %if.then32
	mov	w8, #1
	stur	wzr, [x29, #-4]
	str	w8, [sp, #12]
	mov	w0, wzr
	ldp	x29, x30, [sp, #48]             // 16-byte Folded Reload
	add	sp, sp, #64                     // =64
	ret
.Lfunc_end16:
	.size	jpeg_write_raw_data, .Lfunc_end16-jpeg_write_raw_data
	.cfi_endproc
                                        // -- End function
	.globl	jinit_c_coef_controller         // -- Begin function jinit_c_coef_controller
	.p2align	2
	.type	jinit_c_coef_controller,@function
jinit_c_coef_controller:                // @jinit_c_coef_controller
	.cfi_startproc
// %bb.0:                               // %entry
	sub	sp, sp, #80                     // =80
	stp	x29, x30, [sp, #32]             // 16-byte Folded Spill
	str	x21, [sp, #48]                  // 8-byte Folded Spill
	stp	x20, x19, [sp, #64]             // 16-byte Folded Spill
	add	x29, sp, #32                    // =32
	.cfi_def_cfa w29, 48
	.cfi_offset w19, -8
	.cfi_offset w20, -16
	.cfi_offset w21, -32
	.cfi_offset w30, -40
	.cfi_offset w29, -48
	str	x0, [x29, #24]
	stur	w1, [x29, #-4]
	ldr	x8, [x0, #8]
	mov	w1, #1
	mov	w2, #192
	ldr	x8, [x8]
	blr	x8
	ldr	x8, [x29, #24]
	adrp	x9, start_pass_coef
	str	x0, [sp, #16]
	add	x9, x9, :lo12:start_pass_coef
	str	x0, [x8, #448]
	mov	x8, x0
	str	x9, [x8]
	ldur	w8, [x29, #-4]
	cbz	w8, .LBB17_4
// %bb.1:                               // %if.then
	ldr	x8, [x29, #24]
	str	wzr, [sp, #12]
	ldr	x8, [x8, #80]
	str	x8, [sp]
.LBB17_2:                               // %for.cond
                                        // =>This Inner Loop Header: Depth=1
	ldr	x8, [x29, #24]
	ldr	w9, [sp, #12]
	ldr	w8, [x8, #68]
	cmp	w9, w8
	b.ge	.LBB17_7
// %bb.3:                               // %for.body
                                        //   in Loop: Header=BB17_2 Depth=1
	ldr	x19, [x29, #24]
	ldr	x8, [sp]
	ldr	x9, [x19, #8]
	ldr	w0, [x8, #28]
	ldrsw	x1, [x8, #8]
	ldr	x21, [x9, #40]
	bl	jround_up
	ldr	x9, [sp]
	mov	x20, x0
	ldr	w8, [x9, #32]
	ldrsw	x1, [x9, #12]
	mov	x0, x8
	bl	jround_up
	ldr	x8, [sp]
	mov	x4, x0
	mov	w1, #1
	mov	x0, x19
	ldr	w5, [x8, #12]
	mov	w2, wzr
	mov	w3, w20
                                        // kill: def $w4 killed $w4 killed $x4
	blr	x21
	ldr	x8, [sp, #16]
	ldrsw	x9, [sp, #12]
	add	x8, x8, x9, lsl #3
	str	x0, [x8, #112]
	ldr	w8, [sp, #12]
	ldr	x9, [sp]
	add	w8, w8, #1                      // =1
	add	x9, x9, #96                     // =96
	str	w8, [sp, #12]
	str	x9, [sp]
	b	.LBB17_2
.LBB17_4:                               // %if.else
	ldr	x0, [x29, #24]
	mov	w1, #1
	mov	w2, #1280
	ldr	x8, [x0, #8]
	ldr	x8, [x8, #8]
	blr	x8
	str	x0, [sp]
	str	wzr, [sp, #12]
	mov	w8, wzr
	cmp	w8, #9                          // =9
	b.gt	.LBB17_6
.LBB17_5:                               // %for.body17
                                        // =>This Inner Loop Header: Depth=1
	ldr	x8, [sp]
	ldrsw	x9, [sp, #12]
	ldr	x10, [sp, #16]
	add	x8, x8, x9, lsl #7
	add	x9, x10, x9, lsl #3
	str	x8, [x9, #32]
	ldr	w8, [sp, #12]
	add	w8, w8, #1                      // =1
	str	w8, [sp, #12]
	mov	w8, w8
	cmp	w8, #9                          // =9
	b.le	.LBB17_5
.LBB17_6:                               // %for.end22
	ldr	x8, [sp, #16]
	str	xzr, [x8, #112]
.LBB17_7:                               // %if.end
	ldp	x20, x19, [sp, #64]             // 16-byte Folded Reload
	ldr	x21, [sp, #48]                  // 8-byte Folded Reload
	ldp	x29, x30, [sp, #32]             // 16-byte Folded Reload
	add	sp, sp, #80                     // =80
	ret
.Lfunc_end17:
	.size	jinit_c_coef_controller, .Lfunc_end17-jinit_c_coef_controller
	.cfi_endproc
                                        // -- End function
	.p2align	2                               // -- Begin function start_pass_coef
	.type	start_pass_coef,@function
start_pass_coef:                        // @start_pass_coef
	.cfi_startproc
// %bb.0:                               // %entry
	sub	sp, sp, #48                     // =48
	stp	x29, x30, [sp, #32]             // 16-byte Folded Spill
	add	x29, sp, #32                    // =32
	.cfi_def_cfa w29, 16
	.cfi_offset w30, -8
	.cfi_offset w29, -16
	stur	x0, [x29, #-8]
	stur	w1, [x29, #-12]
	ldr	x8, [x0, #448]
	str	x8, [sp, #8]
	str	wzr, [x8, #16]
	bl	start_iMCU_row
	ldur	w8, [x29, #-12]
	cmp	w8, #3                          // =3
	b.eq	.LBB18_6
// %bb.1:                               // %entry
	cmp	w8, #2                          // =2
	b.eq	.LBB18_9
// %bb.2:                               // %entry
	cbnz	w8, .LBB18_12
// %bb.3:                               // %sw.bb
	ldr	x8, [sp, #8]
	ldr	x8, [x8, #112]
	cbz	x8, .LBB18_5
// %bb.4:                               // %if.then
	ldur	x8, [x29, #-8]
	mov	w9, #4
	ldr	x8, [x8]
	str	w9, [x8, #40]
	ldur	x0, [x29, #-8]
	ldr	x8, [x0]
	ldr	x8, [x8]
	blr	x8
.LBB18_5:                               // %if.end
	ldr	x8, [sp, #8]
	adrp	x9, compress_data
	add	x9, x9, :lo12:compress_data
	str	x9, [x8, #8]
	ldp	x29, x30, [sp, #32]             // 16-byte Folded Reload
	add	sp, sp, #48                     // =48
	ret
.LBB18_6:                               // %sw.bb3
	ldr	x8, [sp, #8]
	ldr	x8, [x8, #112]
	cbnz	x8, .LBB18_8
// %bb.7:                               // %if.then7
	ldur	x8, [x29, #-8]
	mov	w9, #4
	ldr	x8, [x8]
	str	w9, [x8, #40]
	ldur	x0, [x29, #-8]
	ldr	x8, [x0]
	ldr	x8, [x8]
	blr	x8
.LBB18_8:                               // %if.end12
	ldr	x8, [sp, #8]
	adrp	x9, compress_first_pass
	add	x9, x9, :lo12:compress_first_pass
	str	x9, [x8, #8]
	ldp	x29, x30, [sp, #32]             // 16-byte Folded Reload
	add	sp, sp, #48                     // =48
	ret
.LBB18_9:                               // %sw.bb15
	ldr	x8, [sp, #8]
	ldr	x8, [x8, #112]
	cbnz	x8, .LBB18_11
// %bb.10:                              // %if.then19
	ldur	x8, [x29, #-8]
	mov	w9, #4
	ldr	x8, [x8]
	str	w9, [x8, #40]
	ldur	x0, [x29, #-8]
	ldr	x8, [x0]
	ldr	x8, [x8]
	blr	x8
.LBB18_11:                              // %if.end24
	ldr	x8, [sp, #8]
	adrp	x9, compress_output
	add	x9, x9, :lo12:compress_output
	str	x9, [x8, #8]
	ldp	x29, x30, [sp, #32]             // 16-byte Folded Reload
	add	sp, sp, #48                     // =48
	ret
.LBB18_12:                              // %sw.default
	ldur	x8, [x29, #-8]
	mov	w9, #4
	ldr	x8, [x8]
	str	w9, [x8, #40]
	ldur	x0, [x29, #-8]
	ldr	x8, [x0]
	ldr	x8, [x8]
	blr	x8
	ldp	x29, x30, [sp, #32]             // 16-byte Folded Reload
	add	sp, sp, #48                     // =48
	ret
.Lfunc_end18:
	.size	start_pass_coef, .Lfunc_end18-start_pass_coef
	.cfi_endproc
                                        // -- End function
	.p2align	2                               // -- Begin function start_iMCU_row
	.type	start_iMCU_row,@function
start_iMCU_row:                         // @start_iMCU_row
	.cfi_startproc
// %bb.0:                               // %entry
	.cfi_def_cfa_offset 16
	ldr	x8, [x0, #448]
	stp	x8, x0, [sp, #-16]!
	ldr	w9, [x0, #316]
	cmp	w9, #1                          // =1
	b.le	.LBB19_2
// %bb.1:
	mov	w9, #1
	b	.LBB19_6
.LBB19_2:                               // %if.else
	ldr	x9, [sp, #8]
	ldr	w11, [x8, #16]
	ldr	w10, [x9, #312]
	ldr	x8, [x9, #320]
	sub	w9, w10, #1                     // =1
	cmp	w11, w9
	b.hs	.LBB19_4
// %bb.3:                               // %if.then3
	ldr	w9, [x8, #12]
	b	.LBB19_5
.LBB19_4:                               // %if.else5
	ldr	w9, [x8, #72]
.LBB19_5:                               // %if.end9
	ldr	x8, [sp]
.LBB19_6:                               // %if.end9
	str	w9, [x8, #28]
	ldr	x8, [sp]
	str	wzr, [x8, #20]
	ldr	x8, [sp]
	str	wzr, [x8, #24]
	add	sp, sp, #16                     // =16
	ret
.Lfunc_end19:
	.size	start_iMCU_row, .Lfunc_end19-start_iMCU_row
	.cfi_endproc
                                        // -- End function
	.p2align	2                               // -- Begin function compress_data
	.type	compress_data,@function
compress_data:                          // @compress_data
	.cfi_startproc
// %bb.0:                               // %entry
	sub	sp, sp, #128                    // =128
	stp	x29, x30, [sp, #96]             // 16-byte Folded Spill
	stp	x20, x19, [sp, #112]            // 16-byte Folded Spill
	add	x29, sp, #96                    // =96
	.cfi_def_cfa w29, 32
	.cfi_offset w19, -8
	.cfi_offset w20, -16
	.cfi_offset w30, -24
	.cfi_offset w29, -32
	stp	x1, x0, [x29, #-24]
	ldr	x8, [x0, #448]
	mov	w19, #68
	mov	w20, #52
	stur	x8, [x29, #-32]
	ldr	w9, [x0, #352]
	sub	w10, w9, #1                     // =1
	ldr	w9, [x0, #312]
	sub	w9, w9, #1                      // =1
	stp	w9, w10, [x29, #-44]
	ldr	w8, [x8, #24]
	str	w8, [sp, #32]
.LBB20_1:                               // %for.cond
                                        // =>This Loop Header: Depth=1
                                        //     Child Loop BB20_3 Depth 2
                                        //       Child Loop BB20_6 Depth 3
                                        //         Child Loop BB20_9 Depth 4
                                        //           Child Loop BB20_17 Depth 5
                                        //           Child Loop BB20_14 Depth 5
	ldur	x8, [x29, #-32]
	ldr	w9, [sp, #32]
	ldr	w10, [x8, #28]
	cmp	w9, w10
	b.ge	.LBB20_24
// %bb.2:                               // %for.body
                                        //   in Loop: Header=BB20_1 Depth=1
	ldr	w8, [x8, #20]
.LBB20_3:                               // %for.cond3
                                        //   Parent Loop BB20_1 Depth=1
                                        // =>  This Loop Header: Depth=2
                                        //       Child Loop BB20_6 Depth 3
                                        //         Child Loop BB20_9 Depth 4
                                        //           Child Loop BB20_17 Depth 5
                                        //           Child Loop BB20_14 Depth 5
	ldur	w9, [x29, #-40]
	stur	w8, [x29, #-36]
	mov	w8, w8
	cmp	w8, w9
	b.hi	.LBB20_21
// %bb.4:                               // %for.body5
                                        //   in Loop: Header=BB20_3 Depth=2
	str	wzr, [sp, #48]
	str	wzr, [sp, #40]
	b	.LBB20_6
.LBB20_5:                               // %for.inc81
                                        //   in Loop: Header=BB20_6 Depth=3
	ldr	w8, [sp, #40]
	add	w8, w8, #1                      // =1
	str	w8, [sp, #40]
.LBB20_6:                               // %for.cond6
                                        //   Parent Loop BB20_1 Depth=1
                                        //     Parent Loop BB20_3 Depth=2
                                        // =>    This Loop Header: Depth=3
                                        //         Child Loop BB20_9 Depth 4
                                        //           Child Loop BB20_17 Depth 5
                                        //           Child Loop BB20_14 Depth 5
	ldur	x8, [x29, #-16]
	ldr	w9, [sp, #40]
	ldr	w10, [x8, #316]
	cmp	w9, w10
	b.ge	.LBB20_19
// %bb.7:                               // %for.body8
                                        //   in Loop: Header=BB20_6 Depth=3
	ldrsw	x9, [sp, #40]
	ldp	w10, w11, [x29, #-40]
	add	x8, x8, x9, lsl #3
	ldr	x8, [x8, #320]
	cmp	w11, w10
	csel	x9, x20, x19, lo
	ldr	w10, [sp, #32]
	str	x8, [sp, #8]
	ldr	w12, [x8, x9]
	ldr	w8, [x8, #64]
	lsl	w9, w10, #3
	str	wzr, [sp, #36]
	stp	w9, w12, [sp, #24]
	mul	w8, w11, w8
	str	w8, [sp, #20]
	b	.LBB20_9
.LBB20_8:                               // %if.end74
                                        //   in Loop: Header=BB20_9 Depth=4
	ldr	x8, [sp, #8]
	ldr	w9, [sp, #24]
	ldr	w10, [sp, #36]
	ldr	w11, [sp, #48]
	ldr	w8, [x8, #52]
	add	w9, w9, #8                      // =8
	add	w10, w10, #1                    // =1
	str	w9, [sp, #24]
	add	w8, w11, w8
	str	w8, [sp, #48]
	str	w10, [sp, #36]
.LBB20_9:                               // %for.cond11
                                        //   Parent Loop BB20_1 Depth=1
                                        //     Parent Loop BB20_3 Depth=2
                                        //       Parent Loop BB20_6 Depth=3
                                        // =>      This Loop Header: Depth=4
                                        //           Child Loop BB20_17 Depth 5
                                        //           Child Loop BB20_14 Depth 5
	ldr	x8, [sp, #8]
	ldr	w9, [sp, #36]
	ldr	w8, [x8, #56]
	cmp	w9, w8
	b.ge	.LBB20_5
// %bb.10:                              // %for.body13
                                        //   in Loop: Header=BB20_9 Depth=4
	ldur	x8, [x29, #-32]
	ldur	w9, [x29, #-44]
	ldr	w8, [x8, #16]
	cmp	w8, w9
	b.lo	.LBB20_12
// %bb.11:                              // %lor.lhs.false
                                        //   in Loop: Header=BB20_9 Depth=4
	ldr	x8, [sp, #8]
	ldp	w9, w10, [sp, #32]
	ldr	w8, [x8, #72]
	add	w9, w9, w10
	cmp	w9, w8
	b.ge	.LBB20_16
.LBB20_12:                              // %if.then
                                        //   in Loop: Header=BB20_9 Depth=4
	ldp	x8, x0, [x29, #-24]
	ldrsw	x9, [sp, #40]
	ldur	x10, [x29, #-32]
	ldrsw	x11, [sp, #48]
	ldr	x12, [x0, #480]
	ldr	x2, [x8, x9, lsl #3]
	ldr	x1, [sp, #8]
	add	x8, x10, x11, lsl #3
	ldp	w5, w4, [sp, #20]
	ldr	x3, [x8, #32]
	ldr	x8, [x12, #8]
	ldr	w6, [sp, #28]
	blr	x8
	ldr	x8, [sp, #8]
	ldr	w9, [sp, #28]
	ldr	w8, [x8, #52]
	cmp	w9, w8
	b.ge	.LBB20_8
// %bb.13:                              // %if.then22
                                        //   in Loop: Header=BB20_9 Depth=4
	ldr	w8, [sp, #48]
	ldrsw	x9, [sp, #28]
	ldr	x10, [sp, #8]
	ldur	x11, [x29, #-32]
	add	w8, w8, w9
	ldrsw	x10, [x10, #52]
	add	x8, x11, w8, sxtw #3
	ldr	x0, [x8, #32]
	sub	x8, x10, x9
	lsl	x1, x8, #7
	bl	jzero_far
	ldr	w8, [sp, #28]
.LBB20_14:                              // %for.cond30
                                        //   Parent Loop BB20_1 Depth=1
                                        //     Parent Loop BB20_3 Depth=2
                                        //       Parent Loop BB20_6 Depth=3
                                        //         Parent Loop BB20_9 Depth=4
                                        // =>        This Inner Loop Header: Depth=5
	str	w8, [sp, #44]
	ldr	x8, [sp, #8]
	ldr	w9, [sp, #44]
	ldr	w8, [x8, #52]
	cmp	w9, w8
	b.ge	.LBB20_8
// %bb.15:                              // %for.body34
                                        //   in Loop: Header=BB20_14 Depth=5
	ldur	x8, [x29, #-32]
	ldpsw	x10, x9, [sp, #44]
	add	x8, x8, #32                     // =32
	add	x11, x9, x10
	add	x11, x8, x11, lsl #3
	ldur	x11, [x11, #-8]
	add	w9, w9, w10
	ldr	x8, [x8, w9, sxtw #3]
	ldrh	w10, [x11]
	strh	w10, [x8]
	ldr	w8, [sp, #44]
	add	w8, w8, #1                      // =1
	b	.LBB20_14
.LBB20_16:                              // %if.else
                                        //   in Loop: Header=BB20_9 Depth=4
	ldur	x8, [x29, #-32]
	ldrsw	x9, [sp, #48]
	ldr	x10, [sp, #8]
	add	x8, x8, x9, lsl #3
	ldrsw	x9, [x10, #52]
	ldr	x0, [x8, #32]
	lsl	x1, x9, #7
	bl	jzero_far
	str	wzr, [sp, #44]
.LBB20_17:                              // %for.cond54
                                        //   Parent Loop BB20_1 Depth=1
                                        //     Parent Loop BB20_3 Depth=2
                                        //       Parent Loop BB20_6 Depth=3
                                        //         Parent Loop BB20_9 Depth=4
                                        // =>        This Inner Loop Header: Depth=5
	ldr	x8, [sp, #8]
	ldr	w9, [sp, #44]
	ldr	w8, [x8, #52]
	cmp	w9, w8
	b.ge	.LBB20_8
// %bb.18:                              // %for.body58
                                        //   in Loop: Header=BB20_17 Depth=5
	ldur	x8, [x29, #-32]
	ldp	w10, w9, [sp, #44]
                                        // kill: def $w9 killed $w9 def $x9
	sxtw	x9, w9
	add	x8, x8, #32                     // =32
	add	x11, x8, x9, lsl #3
	ldur	x11, [x11, #-8]
	add	w9, w9, w10
	ldr	x8, [x8, w9, sxtw #3]
	ldrh	w10, [x11]
	strh	w10, [x8]
	ldr	w8, [sp, #44]
	add	w8, w8, #1                      // =1
	str	w8, [sp, #44]
	b	.LBB20_17
.LBB20_19:                              // %for.end83
                                        //   in Loop: Header=BB20_3 Depth=2
	ldr	x8, [x8, #488]
	ldur	x9, [x29, #-32]
	ldur	x0, [x29, #-16]
	ldr	x8, [x8, #8]
	add	x1, x9, #32                     // =32
	blr	x8
	cbz	w0, .LBB20_22
// %bb.20:                              // %for.inc89
                                        //   in Loop: Header=BB20_3 Depth=2
	ldur	w8, [x29, #-36]
	add	w8, w8, #1                      // =1
	b	.LBB20_3
.LBB20_21:                              // %for.end91
                                        //   in Loop: Header=BB20_1 Depth=1
	ldur	x8, [x29, #-32]
	str	wzr, [x8, #20]
	ldr	w8, [sp, #32]
	add	w8, w8, #1                      // =1
	str	w8, [sp, #32]
	b	.LBB20_1
.LBB20_22:                              // %if.then85
	ldr	w8, [sp, #32]
	ldur	x9, [x29, #-32]
	mov	w10, #1
	str	w8, [x9, #24]
	ldur	w8, [x29, #-36]
	ldur	x9, [x29, #-32]
	str	w8, [x9, #20]
	stur	wzr, [x29, #-4]
	str	w10, [sp, #4]
.LBB20_23:                              // %cleanup
	ldur	w0, [x29, #-4]
	ldp	x20, x19, [sp, #112]            // 16-byte Folded Reload
	ldp	x29, x30, [sp, #96]             // 16-byte Folded Reload
	add	sp, sp, #128                    // =128
	ret
.LBB20_24:                              // %for.end95
	ldr	w9, [x8, #16]
	add	w9, w9, #1                      // =1
	str	w9, [x8, #16]
	ldur	x0, [x29, #-16]
	bl	start_iMCU_row
	mov	w8, #1
	stur	w8, [x29, #-4]
	str	w8, [sp, #4]
	b	.LBB20_23
.Lfunc_end20:
	.size	compress_data, .Lfunc_end20-compress_data
	.cfi_endproc
                                        // -- End function
	.p2align	2                               // -- Begin function compress_first_pass
	.type	compress_first_pass,@function
compress_first_pass:                    // @compress_first_pass
	.cfi_startproc
// %bb.0:                               // %entry
	sub	sp, sp, #128                    // =128
	stp	x29, x30, [sp, #112]            // 16-byte Folded Spill
	add	x29, sp, #112                   // =112
	.cfi_def_cfa w29, 16
	.cfi_offset w30, -8
	.cfi_offset w29, -16
	stp	x1, x0, [x29, #-16]
	ldr	x8, [x0, #448]
	mov	x9, x0
	stur	x8, [x29, #-24]
	ldr	w8, [x0, #312]
	stur	wzr, [x29, #-48]
	sub	w8, w8, #1                      // =1
	stur	w8, [x29, #-28]
	ldr	x8, [x9, #80]
	str	x8, [sp, #32]
	b	.LBB21_2
.LBB21_1:                               // %for.inc86
                                        //   in Loop: Header=BB21_2 Depth=1
	ldur	w8, [x29, #-48]
	ldr	x9, [sp, #32]
	add	w8, w8, #1                      // =1
	add	x9, x9, #96                     // =96
	stur	w8, [x29, #-48]
	str	x9, [sp, #32]
.LBB21_2:                               // %for.cond
                                        // =>This Loop Header: Depth=1
                                        //     Child Loop BB21_11 Depth 2
                                        //       Child Loop BB21_14 Depth 3
                                        //     Child Loop BB21_18 Depth 2
                                        //       Child Loop BB21_21 Depth 3
                                        //         Child Loop BB21_23 Depth 4
	ldur	x0, [x29, #-8]
	ldur	w8, [x29, #-48]
	ldr	w9, [x0, #68]
	cmp	w8, w9
	b.ge	.LBB21_24
// %bb.3:                               // %for.body
                                        //   in Loop: Header=BB21_2 Depth=1
	ldur	x9, [x29, #-24]
	ldursw	x10, [x29, #-48]
	ldr	x11, [sp, #32]
	ldr	x8, [x0, #8]
	ldur	x0, [x29, #-8]
	add	x10, x9, x10, lsl #3
	ldr	w9, [x9, #16]
	ldr	w3, [x11, #12]
	ldr	x8, [x8, #64]
	ldr	x1, [x10, #112]
	mov	w4, #1
	mul	w2, w9, w3
	blr	x8
	ldur	x8, [x29, #-24]
	str	x0, [sp, #24]
	ldur	w10, [x29, #-28]
	ldr	w9, [x8, #16]
	ldr	x8, [sp, #32]
	cmp	w9, w10
	b.lo	.LBB21_6
// %bb.4:                               // %if.else
                                        //   in Loop: Header=BB21_2 Depth=1
	ldr	x9, [sp, #32]
	ldr	w8, [x8, #32]
	ldr	w9, [x9, #12]
	udiv	w10, w8, w9
	msub	w8, w10, w9, w8
	str	w8, [sp, #52]
	cbnz	w8, .LBB21_7
// %bb.5:                               // %if.then8
                                        //   in Loop: Header=BB21_2 Depth=1
	ldr	x8, [sp, #32]
.LBB21_6:                               // %if.end10
                                        //   in Loop: Header=BB21_2 Depth=1
	ldr	w8, [x8, #12]
	str	w8, [sp, #52]
.LBB21_7:                               // %if.end10
                                        //   in Loop: Header=BB21_2 Depth=1
	ldr	x8, [sp, #32]
	ldr	w9, [x8, #28]
	stur	w9, [x29, #-32]
	ldr	w8, [x8, #8]
	udiv	w10, w9, w8
	stur	w8, [x29, #-52]
	msub	w8, w10, w8, w9
	cmp	w8, #1                          // =1
	str	w8, [sp, #48]
	b.lt	.LBB21_9
// %bb.8:                               // %if.then14
                                        //   in Loop: Header=BB21_2 Depth=1
	ldur	w8, [x29, #-52]
	ldr	w9, [sp, #48]
	sub	w8, w8, w9
	str	w8, [sp, #48]
.LBB21_9:                               // %if.end16
                                        //   in Loop: Header=BB21_2 Depth=1
	str	wzr, [sp, #56]
	b	.LBB21_11
.LBB21_10:                              // %for.inc38
                                        //   in Loop: Header=BB21_11 Depth=2
	ldr	w8, [sp, #56]
	add	w8, w8, #1                      // =1
	str	w8, [sp, #56]
.LBB21_11:                              // %for.cond17
                                        //   Parent Loop BB21_2 Depth=1
                                        // =>  This Loop Header: Depth=2
                                        //       Child Loop BB21_14 Depth 3
	ldp	w9, w8, [sp, #52]
	cmp	w8, w9
	b.ge	.LBB21_15
// %bb.12:                              // %for.body19
                                        //   in Loop: Header=BB21_11 Depth=2
	ldp	x8, x1, [sp, #24]
	ldrsw	x9, [sp, #56]
	ldursw	x10, [x29, #-48]
	ldur	w6, [x29, #-32]
	mov	w5, wzr
	ldr	x3, [x8, x9, lsl #3]
	ldp	x8, x0, [x29, #-16]
	lsl	w4, w9, #3
	str	x3, [sp, #16]
	ldr	x11, [x0, #480]
	ldr	x2, [x8, x10, lsl #3]
	ldr	x8, [x11, #8]
	blr	x8
	ldr	w8, [sp, #48]
	cmp	w8, #1                          // =1
	b.lt	.LBB21_10
// %bb.13:                              // %if.then26
                                        //   in Loop: Header=BB21_11 Depth=2
	ldur	w8, [x29, #-32]
	ldr	x9, [sp, #16]
	ldrsw	x10, [sp, #48]
	add	x0, x9, x8, lsl #7
	lsl	x1, x10, #7
	str	x0, [sp, #16]
	bl	jzero_far
	ldr	x8, [sp, #16]
	ldurh	w8, [x8, #-128]
	stur	wzr, [x29, #-44]
	strh	w8, [sp, #44]
	mov	w8, wzr
	ldr	w9, [sp, #48]
	cmp	w8, w9
	b.ge	.LBB21_10
.LBB21_14:                              // %for.body33
                                        //   Parent Loop BB21_2 Depth=1
                                        //     Parent Loop BB21_11 Depth=2
                                        // =>    This Inner Loop Header: Depth=3
	ldursw	x9, [x29, #-44]
	ldrh	w8, [sp, #44]
	ldr	x10, [sp, #16]
	lsl	x9, x9, #7
	strh	w8, [x10, x9]
	ldur	w8, [x29, #-44]
	add	w8, w8, #1                      // =1
	stur	w8, [x29, #-44]
	mov	w8, w8
	ldr	w9, [sp, #48]
	cmp	w8, w9
	b.lt	.LBB21_14
	b	.LBB21_10
.LBB21_15:                              // %for.end40
                                        //   in Loop: Header=BB21_2 Depth=1
	ldur	x8, [x29, #-24]
	ldur	w9, [x29, #-28]
	ldr	w8, [x8, #16]
	cmp	w8, w9
	b.ne	.LBB21_1
// %bb.16:                              // %if.then44
                                        //   in Loop: Header=BB21_2 Depth=1
	ldp	w8, w11, [sp, #48]
	ldur	w9, [x29, #-32]
	ldur	w10, [x29, #-52]
	str	w11, [sp, #56]
	add	w8, w9, w8
	stur	w8, [x29, #-32]
	udiv	w8, w8, w10
	stur	w8, [x29, #-36]
	b	.LBB21_18
.LBB21_17:                              // %for.inc82
                                        //   in Loop: Header=BB21_18 Depth=2
	ldr	w8, [sp, #56]
	add	w8, w8, #1                      // =1
	str	w8, [sp, #56]
.LBB21_18:                              // %for.cond45
                                        //   Parent Loop BB21_2 Depth=1
                                        // =>  This Loop Header: Depth=2
                                        //       Child Loop BB21_21 Depth 3
                                        //         Child Loop BB21_23 Depth 4
	ldr	x8, [sp, #32]
	ldr	w9, [sp, #56]
	ldr	w8, [x8, #12]
	cmp	w9, w8
	b.ge	.LBB21_1
// %bb.19:                              // %for.body49
                                        //   in Loop: Header=BB21_18 Depth=2
	ldr	x8, [sp, #24]
	ldrsw	x9, [sp, #56]
	add	x8, x8, x9, lsl #3
	ldur	w9, [x29, #-32]
	ldp	x8, x0, [x8, #-8]
	lsl	x1, x9, #7
	stp	x8, x0, [sp, #8]
	bl	jzero_far
	stur	wzr, [x29, #-40]
	b	.LBB21_21
.LBB21_20:                              // %for.end74
                                        //   in Loop: Header=BB21_21 Depth=3
	ldursw	x8, [x29, #-52]
	ldur	w9, [x29, #-40]
	ldp	x11, x10, [sp, #8]
	lsl	x8, x8, #7
	add	w9, w9, #1                      // =1
	add	x10, x10, x8
	add	x8, x11, x8
	stp	x8, x10, [sp, #8]
	stur	w9, [x29, #-40]
.LBB21_21:                              // %for.cond57
                                        //   Parent Loop BB21_2 Depth=1
                                        //     Parent Loop BB21_18 Depth=2
                                        // =>    This Loop Header: Depth=3
                                        //         Child Loop BB21_23 Depth 4
	ldp	w8, w9, [x29, #-40]
	cmp	w8, w9
	b.hs	.LBB21_17
// %bb.22:                              // %for.body60
                                        //   in Loop: Header=BB21_21 Depth=3
	ldr	x8, [sp, #8]
	ldursw	x9, [x29, #-52]
	add	x8, x8, x9, lsl #7
	ldurh	w8, [x8, #-128]
	stur	wzr, [x29, #-44]
	strh	w8, [sp, #44]
	mov	w8, wzr
	ldur	w9, [x29, #-52]
	cmp	w8, w9
	b.ge	.LBB21_20
.LBB21_23:                              // %for.body68
                                        //   Parent Loop BB21_2 Depth=1
                                        //     Parent Loop BB21_18 Depth=2
                                        //       Parent Loop BB21_21 Depth=3
                                        // =>      This Inner Loop Header: Depth=4
	ldursw	x9, [x29, #-44]
	ldrh	w8, [sp, #44]
	ldr	x10, [sp, #16]
	lsl	x9, x9, #7
	strh	w8, [x10, x9]
	ldur	w8, [x29, #-44]
	add	w8, w8, #1                      // =1
	stur	w8, [x29, #-44]
	mov	w8, w8
	ldur	w9, [x29, #-52]
	cmp	w8, w9
	b.lt	.LBB21_23
	b	.LBB21_20
.LBB21_24:                              // %for.end88
	ldur	x1, [x29, #-16]
	bl	compress_output
	ldp	x29, x30, [sp, #112]            // 16-byte Folded Reload
	add	sp, sp, #128                    // =128
	ret
.Lfunc_end21:
	.size	compress_first_pass, .Lfunc_end21-compress_first_pass
	.cfi_endproc
                                        // -- End function
	.p2align	2                               // -- Begin function compress_output
	.type	compress_output,@function
compress_output:                        // @compress_output
	.cfi_startproc
// %bb.0:                               // %entry
	sub	sp, sp, #144                    // =144
	stp	x29, x30, [sp, #112]            // 16-byte Folded Spill
	str	x19, [sp, #128]                 // 8-byte Folded Spill
	add	x29, sp, #112                   // =112
	.cfi_def_cfa w29, 32
	.cfi_offset w19, -16
	.cfi_offset w30, -24
	.cfi_offset w29, -32
	stp	x1, x0, [x29, #-16]
	ldr	x8, [x0, #448]
	add	x19, sp, #32                    // =32
	stur	wzr, [x29, #-32]
	stur	x8, [x29, #-24]
.LBB22_1:                               // %for.cond
                                        // =>This Inner Loop Header: Depth=1
	ldur	x8, [x29, #-8]
	ldur	w9, [x29, #-32]
	ldr	w8, [x8, #316]
	cmp	w9, w8
	b.ge	.LBB22_3
// %bb.2:                               // %for.body
                                        //   in Loop: Header=BB22_1 Depth=1
	ldur	x0, [x29, #-8]
	ldursw	x8, [x29, #-32]
	ldur	x9, [x29, #-24]
	mov	w4, wzr
	add	x8, x0, x8, lsl #3
	ldr	x8, [x8, #320]
	str	x8, [sp, #16]
	ldrsw	x11, [x8, #4]
	ldr	x10, [x0, #8]
	ldr	w12, [x9, #16]
	ldr	w3, [x8, #12]
	add	x9, x9, x11, lsl #3
	ldr	x10, [x10, #64]
	ldr	x1, [x9, #112]
	mul	w2, w12, w3
	blr	x10
	ldursw	x8, [x29, #-32]
	ldur	w9, [x29, #-32]
	str	x0, [x19, x8, lsl #3]
	add	w8, w9, #1                      // =1
	stur	w8, [x29, #-32]
	b	.LBB22_1
.LBB22_3:                               // %for.end
	ldur	x8, [x29, #-24]
	add	x19, sp, #32                    // =32
	ldr	w8, [x8, #24]
	stur	w8, [x29, #-44]
.LBB22_4:                               // %for.cond7
                                        // =>This Loop Header: Depth=1
                                        //     Child Loop BB22_6 Depth 2
                                        //       Child Loop BB22_9 Depth 3
                                        //         Child Loop BB22_12 Depth 4
                                        //           Child Loop BB22_14 Depth 5
	ldur	x8, [x29, #-24]
	ldur	w9, [x29, #-44]
	ldr	w10, [x8, #28]
	cmp	w9, w10
	b.ge	.LBB22_21
// %bb.5:                               // %for.body9
                                        //   in Loop: Header=BB22_4 Depth=1
	ldr	w8, [x8, #20]
.LBB22_6:                               // %for.cond10
                                        //   Parent Loop BB22_4 Depth=1
                                        // =>  This Loop Header: Depth=2
                                        //       Child Loop BB22_9 Depth 3
                                        //         Child Loop BB22_12 Depth 4
                                        //           Child Loop BB22_14 Depth 5
	str	w8, [x29, #24]
	ldur	x8, [x29, #-8]
	ldr	w9, [x29, #24]
	ldr	w8, [x8, #352]
	cmp	w9, w8
	b.hs	.LBB22_18
// %bb.7:                               // %for.body12
                                        //   in Loop: Header=BB22_6 Depth=2
	stur	xzr, [x29, #-32]
	b	.LBB22_9
.LBB22_8:                               // %for.inc41
                                        //   in Loop: Header=BB22_9 Depth=3
	add	w8, w8, #1                      // =1
	stur	w8, [x29, #-32]
.LBB22_9:                               // %for.cond13
                                        //   Parent Loop BB22_4 Depth=1
                                        //     Parent Loop BB22_6 Depth=2
                                        // =>    This Loop Header: Depth=3
                                        //         Child Loop BB22_12 Depth 4
                                        //           Child Loop BB22_14 Depth 5
	ldur	x8, [x29, #-8]
	ldur	w9, [x29, #-32]
	ldr	w10, [x8, #316]
	cmp	w9, w10
	b.ge	.LBB22_16
// %bb.10:                              // %for.body16
                                        //   in Loop: Header=BB22_9 Depth=3
	ldursw	x9, [x29, #-32]
	add	x8, x8, x9, lsl #3
	ldr	x8, [x8, #320]
	ldr	w9, [x29, #24]
	str	x8, [sp, #16]
	ldr	w8, [x8, #52]
	stur	wzr, [x29, #-40]
	mul	w8, w9, w8
	stur	w8, [x29, #-48]
	b	.LBB22_12
.LBB22_11:                              // %for.inc38
                                        //   in Loop: Header=BB22_12 Depth=4
	ldur	w8, [x29, #-40]
	add	w8, w8, #1                      // =1
	stur	w8, [x29, #-40]
.LBB22_12:                              // %for.cond21
                                        //   Parent Loop BB22_4 Depth=1
                                        //     Parent Loop BB22_6 Depth=2
                                        //       Parent Loop BB22_9 Depth=3
                                        // =>      This Loop Header: Depth=4
                                        //           Child Loop BB22_14 Depth 5
	ldr	x8, [sp, #16]
	ldur	w9, [x29, #-40]
	ldr	w10, [x8, #56]
	ldursw	x8, [x29, #-32]
	cmp	w9, w10
	b.ge	.LBB22_8
// %bb.13:                              // %for.body23
                                        //   in Loop: Header=BB22_12 Depth=4
	ldp	w10, w9, [x29, #-44]
	ldr	x8, [x19, x8, lsl #3]
	ldur	w11, [x29, #-48]
	add	w9, w9, w10
	ldr	x8, [x8, w9, sxtw #3]
	stur	wzr, [x29, #-36]
	add	x8, x8, x11, lsl #7
	str	x8, [sp, #24]
.LBB22_14:                              // %for.cond28
                                        //   Parent Loop BB22_4 Depth=1
                                        //     Parent Loop BB22_6 Depth=2
                                        //       Parent Loop BB22_9 Depth=3
                                        //         Parent Loop BB22_12 Depth=4
                                        // =>        This Inner Loop Header: Depth=5
	ldr	x8, [sp, #16]
	ldur	w9, [x29, #-36]
	ldr	w8, [x8, #52]
	cmp	w9, w8
	b.ge	.LBB22_11
// %bb.15:                              // %for.body31
                                        //   in Loop: Header=BB22_14 Depth=5
	ldr	x8, [sp, #24]
	ldur	x9, [x29, #-24]
	ldursw	x10, [x29, #-28]
	add	x11, x8, #128                   // =128
	str	x11, [sp, #24]
	add	x9, x9, x10, lsl #3
	add	w10, w10, #1                    // =1
	stur	w10, [x29, #-28]
	str	x8, [x9, #32]
	ldur	w8, [x29, #-36]
	add	w8, w8, #1                      // =1
	stur	w8, [x29, #-36]
	b	.LBB22_14
.LBB22_16:                              // %for.end43
                                        //   in Loop: Header=BB22_6 Depth=2
	ldr	x8, [x8, #488]
	ldur	x9, [x29, #-24]
	ldur	x0, [x29, #-8]
	ldr	x8, [x8, #8]
	add	x1, x9, #32                     // =32
	blr	x8
	cbz	w0, .LBB22_19
// %bb.17:                              // %for.inc48
                                        //   in Loop: Header=BB22_6 Depth=2
	ldr	w8, [x29, #24]
	add	w8, w8, #1                      // =1
	b	.LBB22_6
.LBB22_18:                              // %for.end50
                                        //   in Loop: Header=BB22_4 Depth=1
	ldur	x8, [x29, #-24]
	str	wzr, [x8, #20]
	ldur	w8, [x29, #-44]
	add	w8, w8, #1                      // =1
	stur	w8, [x29, #-44]
	b	.LBB22_4
.LBB22_19:                              // %if.then
	ldur	w8, [x29, #-44]
	ldur	x9, [x29, #-24]
	mov	w10, #1
	str	w8, [x9, #24]
	ldr	w8, [x29, #24]
	ldur	x9, [x29, #-24]
	str	w8, [x9, #20]
	str	wzr, [x29, #28]
	str	w10, [sp, #12]
.LBB22_20:                              // %cleanup
	ldr	w0, [x29, #28]
	ldr	x19, [sp, #128]                 // 8-byte Folded Reload
	ldp	x29, x30, [sp, #112]            // 16-byte Folded Reload
	add	sp, sp, #144                    // =144
	ret
.LBB22_21:                              // %for.end54
	ldr	w9, [x8, #16]
	add	w9, w9, #1                      // =1
	str	w9, [x8, #16]
	ldur	x0, [x29, #-8]
	bl	start_iMCU_row
	mov	w8, #1
	str	w8, [x29, #28]
	str	w8, [sp, #12]
	b	.LBB22_20
.Lfunc_end22:
	.size	compress_output, .Lfunc_end22-compress_output
	.cfi_endproc
                                        // -- End function
	.globl	jinit_color_converter           // -- Begin function jinit_color_converter
	.p2align	2
	.type	jinit_color_converter,@function
jinit_color_converter:                  // @jinit_color_converter
	.cfi_startproc
// %bb.0:                               // %entry
	sub	sp, sp, #32                     // =32
	stp	x29, x30, [sp, #16]             // 16-byte Folded Spill
	add	x29, sp, #16                    // =16
	.cfi_def_cfa w29, 16
	.cfi_offset w30, -8
	.cfi_offset w29, -16
	str	x0, [sp, #8]
	ldr	x8, [x0, #8]
	mov	w1, #1
	mov	w2, #24
	ldr	x8, [x8]
	blr	x8
	ldr	x8, [sp, #8]
	adrp	x9, null_method
	str	x0, [sp]
	add	x9, x9, :lo12:null_method
	str	x0, [x8, #464]
	mov	x8, x0
	str	x9, [x8]
	ldr	x8, [sp, #8]
	ldr	w8, [x8, #52]
	sub	w9, w8, #2                      // =2
	cmp	w9, #2                          // =2
	b.lo	.LBB23_3
// %bb.1:                               // %entry
	sub	w9, w8, #4                      // =4
	cmp	w9, #2                          // =2
	b.hs	.LBB23_12
// %bb.2:                               // %sw.bb13
	ldr	x8, [sp, #8]
	ldr	w8, [x8, #48]
	cmp	w8, #4                          // =4
	b.ne	.LBB23_4
	b	.LBB23_5
.LBB23_3:                               // %sw.bb4
	ldr	x8, [sp, #8]
	ldr	w8, [x8, #48]
	cmp	w8, #3                          // =3
	b.eq	.LBB23_5
.LBB23_4:                               // %if.then24
	ldr	x8, [sp, #8]
	mov	w9, #7
	ldr	x8, [x8]
	str	w9, [x8, #40]
	ldr	x0, [sp, #8]
	ldr	x8, [x0]
	ldr	x8, [x8]
	blr	x8
.LBB23_5:                               // %sw.epilog
	ldr	x8, [sp, #8]
	ldr	w8, [x8, #72]
	sub	w8, w8, #1                      // =1
	cmp	w8, #4                          // =4
	b.hi	.LBB23_26
// %bb.6:                               // %sw.epilog
	adrp	x9, .LJTI23_0
	add	x9, x9, :lo12:.LJTI23_0
	adr	x10, .LBB23_7
	ldrb	w11, [x9, x8]
	add	x10, x10, x11, lsl #2
	br	x10
.LBB23_7:                               // %sw.bb30
	ldr	x8, [sp, #8]
	ldr	w8, [x8, #68]
	cmp	w8, #1                          // =1
	b.eq	.LBB23_9
// %bb.8:                               // %if.then32
	ldr	x8, [sp, #8]
	mov	w9, #8
	ldr	x8, [x8]
	str	w9, [x8, #40]
	ldr	x0, [sp, #8]
	ldr	x8, [x0]
	ldr	x8, [x8]
	blr	x8
.LBB23_9:                               // %if.end37
	ldr	x8, [sp, #8]
	ldr	w8, [x8, #52]
	cmp	w8, #1                          // =1
	b.eq	.LBB23_36
// %bb.10:                              // %if.else
	ldr	x8, [sp, #8]
	ldr	w8, [x8, #52]
	cmp	w8, #2                          // =2
	b.ne	.LBB23_35
// %bb.11:                              // %if.then44
	ldr	x8, [sp]
	adrp	x9, rgb_ycc_start
	add	x9, x9, :lo12:rgb_ycc_start
	str	x9, [x8]
	ldr	x8, [sp]
	adrp	x9, rgb_gray_convert
	add	x9, x9, :lo12:rgb_gray_convert
	str	x9, [x8, #8]
	ldp	x29, x30, [sp, #16]             // 16-byte Folded Reload
	add	sp, sp, #32                     // =32
	ret
.LBB23_12:                              // %entry
	cmp	w8, #1                          // =1
	b.ne	.LBB23_25
// %bb.13:                              // %sw.bb
	ldr	x8, [sp, #8]
	ldr	w8, [x8, #48]
	cmp	w8, #1                          // =1
	b.ne	.LBB23_4
	b	.LBB23_5
.LBB23_14:                              // %sw.bb84
	ldr	x8, [sp, #8]
	ldr	w8, [x8, #68]
	cmp	w8, #3                          // =3
	b.eq	.LBB23_16
// %bb.15:                              // %if.then87
	ldr	x8, [sp, #8]
	mov	w9, #8
	ldr	x8, [x8]
	str	w9, [x8, #40]
	ldr	x0, [sp, #8]
	ldr	x8, [x0]
	ldr	x8, [x8]
	blr	x8
.LBB23_16:                              // %if.end92
	ldr	x8, [sp, #8]
	ldr	w8, [x8, #52]
	cmp	w8, #2                          // =2
	b.ne	.LBB23_32
// %bb.17:                              // %if.then95
	ldr	x8, [sp]
	adrp	x9, rgb_ycc_start
	add	x9, x9, :lo12:rgb_ycc_start
	str	x9, [x8]
	ldr	x8, [sp]
	adrp	x9, rgb_ycc_convert
	add	x9, x9, :lo12:rgb_ycc_convert
	str	x9, [x8, #8]
	ldp	x29, x30, [sp, #16]             // 16-byte Folded Reload
	add	sp, sp, #32                     // =32
	ret
.LBB23_18:                              // %sw.bb114
	ldr	x8, [sp, #8]
	ldr	w8, [x8, #68]
	cmp	w8, #4                          // =4
	b.eq	.LBB23_20
// %bb.19:                              // %if.then117
	ldr	x8, [sp, #8]
	mov	w9, #8
	ldr	x8, [x8]
	str	w9, [x8, #40]
	ldr	x0, [sp, #8]
	ldr	x8, [x0]
	ldr	x8, [x8]
	blr	x8
.LBB23_20:                              // %if.end122
	ldr	x8, [sp, #8]
	ldr	w8, [x8, #52]
	cmp	w8, #4                          // =4
	b.eq	.LBB23_34
	b	.LBB23_37
.LBB23_21:                              // %sw.bb134
	ldr	x8, [sp, #8]
	ldr	w8, [x8, #68]
	cmp	w8, #4                          // =4
	b.eq	.LBB23_23
// %bb.22:                              // %if.then137
	ldr	x8, [sp, #8]
	mov	w9, #8
	ldr	x8, [x8]
	str	w9, [x8, #40]
	ldr	x0, [sp, #8]
	ldr	x8, [x0]
	ldr	x8, [x8]
	blr	x8
.LBB23_23:                              // %if.end142
	ldr	x8, [sp, #8]
	ldr	w8, [x8, #52]
	cmp	w8, #4                          // =4
	b.ne	.LBB23_33
// %bb.24:                              // %if.then145
	ldr	x8, [sp]
	adrp	x9, rgb_ycc_start
	add	x9, x9, :lo12:rgb_ycc_start
	str	x9, [x8]
	ldr	x8, [sp]
	adrp	x9, cmyk_ycck_convert
	add	x9, x9, :lo12:cmyk_ycck_convert
	str	x9, [x8, #8]
	ldp	x29, x30, [sp, #16]             // 16-byte Folded Reload
	add	sp, sp, #32                     // =32
	ret
.LBB23_25:                              // %sw.default
	ldr	x8, [sp, #8]
	ldr	w8, [x8, #48]
	cmp	w8, #0                          // =0
	b.gt	.LBB23_5
	b	.LBB23_4
.LBB23_26:                              // %sw.default164
	ldr	x8, [sp, #8]
	ldr	w9, [x8, #72]
	ldr	w8, [x8, #52]
	cmp	w9, w8
	b.ne	.LBB23_28
// %bb.27:                              // %lor.lhs.false
	ldr	x8, [sp, #8]
	ldr	w9, [x8, #68]
	ldr	w8, [x8, #48]
	cmp	w9, w8
	b.eq	.LBB23_34
.LBB23_28:                              // %if.then171
	ldr	x8, [sp, #8]
	mov	w9, #25
	ldr	x8, [x8]
	str	w9, [x8, #40]
	ldr	x0, [sp, #8]
	ldr	x8, [x0]
	ldr	x8, [x8]
	blr	x8
	b	.LBB23_34
.LBB23_29:                              // %sw.bb64
	ldr	x8, [sp, #8]
	ldr	w8, [x8, #68]
	cmp	w8, #3                          // =3
	b.eq	.LBB23_31
// %bb.30:                              // %if.then67
	ldr	x8, [sp, #8]
	mov	w9, #8
	ldr	x8, [x8]
	str	w9, [x8, #40]
	ldr	x0, [sp, #8]
	ldr	x8, [x0]
	ldr	x8, [x8]
	blr	x8
.LBB23_31:                              // %if.end72
	ldr	x8, [sp, #8]
	ldr	w8, [x8, #52]
	cmp	w8, #2                          // =2
	b.eq	.LBB23_34
	b	.LBB23_37
.LBB23_32:                              // %if.else101
	ldr	x8, [sp, #8]
	ldr	w8, [x8, #52]
	cmp	w8, #3                          // =3
	b.eq	.LBB23_34
	b	.LBB23_37
.LBB23_33:                              // %if.else151
	ldr	x8, [sp, #8]
	ldr	w8, [x8, #52]
	cmp	w8, #5                          // =5
	b.ne	.LBB23_37
.LBB23_34:                              // %if.end176
	ldr	x8, [sp]
	adrp	x9, null_convert
	add	x9, x9, :lo12:null_convert
	str	x9, [x8, #8]
	ldp	x29, x30, [sp, #16]             // 16-byte Folded Reload
	add	sp, sp, #32                     // =32
	ret
.LBB23_35:                              // %if.else50
	ldr	x8, [sp, #8]
	ldr	w8, [x8, #52]
	cmp	w8, #3                          // =3
	b.ne	.LBB23_37
.LBB23_36:                              // %if.then40
	ldr	x8, [sp]
	adrp	x9, grayscale_convert
	add	x9, x9, :lo12:grayscale_convert
	str	x9, [x8, #8]
	ldp	x29, x30, [sp, #16]             // 16-byte Folded Reload
	add	sp, sp, #32                     // =32
	ret
.LBB23_37:                              // %if.else56
	ldr	x8, [sp, #8]
	mov	w9, #25
	ldr	x8, [x8]
	str	w9, [x8, #40]
	ldr	x0, [sp, #8]
	ldr	x8, [x0]
	ldr	x8, [x8]
	blr	x8
	ldp	x29, x30, [sp, #16]             // 16-byte Folded Reload
	add	sp, sp, #32                     // =32
	ret
.Lfunc_end23:
	.size	jinit_color_converter, .Lfunc_end23-jinit_color_converter
	.cfi_endproc
	.section	.rodata,"a",@progbits
.LJTI23_0:
	.byte	(.LBB23_7-.LBB23_7)>>2
	.byte	(.LBB23_29-.LBB23_7)>>2
	.byte	(.LBB23_14-.LBB23_7)>>2
	.byte	(.LBB23_18-.LBB23_7)>>2
	.byte	(.LBB23_21-.LBB23_7)>>2
                                        // -- End function
	.text
	.p2align	2                               // -- Begin function null_method
	.type	null_method,@function
null_method:                            // @null_method
	.cfi_startproc
// %bb.0:                               // %entry
	sub	sp, sp, #16                     // =16
	.cfi_def_cfa_offset 16
	str	x0, [sp, #8]
	add	sp, sp, #16                     // =16
	ret
.Lfunc_end24:
	.size	null_method, .Lfunc_end24-null_method
	.cfi_endproc
                                        // -- End function
	.p2align	2                               // -- Begin function grayscale_convert
	.type	grayscale_convert,@function
grayscale_convert:                      // @grayscale_convert
	.cfi_startproc
// %bb.0:                               // %entry
	sub	sp, sp, #64                     // =64
	.cfi_def_cfa_offset 64
	stp	x1, x0, [sp, #48]
	str	x2, [sp, #40]
	stp	w4, w3, [sp, #32]
	ldr	w9, [x0, #40]
	ldr	w8, [x0, #48]
	stp	w8, w9, [sp, #4]
.LBB25_1:                               // %while.cond
                                        // =>This Loop Header: Depth=1
                                        //     Child Loop BB25_3 Depth 2
	ldr	w8, [sp, #32]
	subs	w8, w8, #1                      // =1
	str	w8, [sp, #32]
	b.mi	.LBB25_4
// %bb.2:                               // %while.body
                                        //   in Loop: Header=BB25_1 Depth=1
	ldr	x8, [sp, #48]
	ldr	w10, [sp, #36]
	add	x9, x8, #8                      // =8
	str	x9, [sp, #48]
	ldr	x9, [sp, #40]
	ldr	x11, [x8]
	ldr	x8, [x9]
	add	w9, w10, #1                     // =1
	ldr	x8, [x8, x10, lsl #3]
	str	w9, [sp, #36]
	str	wzr, [sp, #12]
	stp	x8, x11, [sp, #16]
	ldp	w9, w8, [sp, #8]
	cmp	w8, w9
	b.hs	.LBB25_1
.LBB25_3:                               // %for.body
                                        //   Parent Loop BB25_1 Depth=1
                                        // =>  This Inner Loop Header: Depth=2
	ldp	x9, x8, [sp, #16]
	ldr	w10, [sp, #12]
	ldrb	w8, [x8]
	strb	w8, [x9, x10]
	ldrsw	x8, [sp, #4]
	ldr	x9, [sp, #24]
	ldr	w10, [sp, #12]
	add	x8, x9, x8
	add	w9, w10, #1                     // =1
	str	x8, [sp, #24]
	str	w9, [sp, #12]
	ldp	w9, w8, [sp, #8]
	cmp	w8, w9
	b.lo	.LBB25_3
	b	.LBB25_1
.LBB25_4:                               // %while.end
	add	sp, sp, #64                     // =64
	ret
.Lfunc_end25:
	.size	grayscale_convert, .Lfunc_end25-grayscale_convert
	.cfi_endproc
                                        // -- End function
	.p2align	2                               // -- Begin function rgb_ycc_start
	.type	rgb_ycc_start,@function
rgb_ycc_start:                          // @rgb_ycc_start
	.cfi_startproc
// %bb.0:                               // %entry
	sub	sp, sp, #48                     // =48
	stp	x29, x30, [sp, #32]             // 16-byte Folded Spill
	add	x29, sp, #32                    // =32
	.cfi_def_cfa w29, 16
	.cfi_offset w30, -8
	.cfi_offset w29, -16
	stur	x0, [x29, #-8]
	ldr	x8, [x0, #464]
	mov	w1, #1
	mov	w2, #16384
	str	x8, [sp, #16]
	ldr	x8, [x0, #8]
	ldr	x8, [x8]
	blr	x8
	ldr	x16, [sp, #16]
	mov	w14, #32767
	stp	xzr, x0, [sp]
	mov	w8, #19595
	mov	w9, #38470
	mov	w10, #7471
	orr	x11, xzr, #0x8000
	mov	x12, #-11059
	mov	x13, #-21709
	movk	w14, #128, lsl #16
	mov	x15, #-27439
	str	x0, [x16, #16]
	mov	x16, #-5329
	ldr	x17, [sp]
	cmp	x17, #255                       // =255
	b.gt	.LBB26_2
.LBB26_1:                               // %for.body
                                        // =>This Inner Loop Header: Depth=1
	ldp	x17, x18, [sp]
	mul	x0, x17, x8
	str	x0, [x18, x17, lsl #3]
	ldp	x17, x18, [sp]
	mul	x0, x17, x9
	add	x17, x18, x17, lsl #3
	str	x0, [x17, #2048]
	ldp	x17, x18, [sp]
	madd	x0, x17, x10, x11
	add	x17, x18, x17, lsl #3
	str	x0, [x17, #4096]
	ldp	x17, x18, [sp]
	mul	x0, x17, x12
	add	x17, x18, x17, lsl #3
	str	x0, [x17, #6144]
	ldp	x17, x18, [sp]
	mul	x0, x17, x13
	add	x17, x18, x17, lsl #3
	str	x0, [x17, #8192]
	ldp	x17, x18, [sp]
	add	x0, x14, x17, lsl #15
	add	x17, x18, x17, lsl #3
	str	x0, [x17, #10240]
	ldp	x17, x18, [sp]
	mul	x0, x17, x15
	add	x17, x18, x17, lsl #3
	str	x0, [x17, #12288]
	ldp	x17, x18, [sp]
	mul	x0, x17, x16
	add	x17, x18, x17, lsl #3
	str	x0, [x17, #14336]
	ldr	x17, [sp]
	add	x17, x17, #1                    // =1
	str	x17, [sp]
	cmp	x17, #255                       // =255
	b.le	.LBB26_1
.LBB26_2:                               // %for.end
	ldp	x29, x30, [sp, #32]             // 16-byte Folded Reload
	add	sp, sp, #48                     // =48
	ret
.Lfunc_end26:
	.size	rgb_ycc_start, .Lfunc_end26-rgb_ycc_start
	.cfi_endproc
                                        // -- End function
	.p2align	2                               // -- Begin function rgb_gray_convert
	.type	rgb_gray_convert,@function
rgb_gray_convert:                       // @rgb_gray_convert
	.cfi_startproc
// %bb.0:                               // %entry
	sub	sp, sp, #96                     // =96
	.cfi_def_cfa_offset 96
	stp	x1, x0, [sp, #80]
	str	x2, [sp, #72]
	stp	w4, w3, [sp, #64]
	ldr	x8, [x0, #464]
	str	x8, [sp, #56]
	ldr	x8, [x8, #16]
	str	x8, [sp, #32]
	ldr	w8, [x0, #40]
	str	w8, [sp, #8]
.LBB27_1:                               // %while.cond
                                        // =>This Loop Header: Depth=1
                                        //     Child Loop BB27_3 Depth 2
	ldr	w8, [sp, #64]
	subs	w8, w8, #1                      // =1
	str	w8, [sp, #64]
	b.mi	.LBB27_4
// %bb.2:                               // %while.body
                                        //   in Loop: Header=BB27_1 Depth=1
	ldr	x8, [sp, #80]
	ldr	w10, [sp, #68]
	add	x9, x8, #8                      // =8
	str	x9, [sp, #80]
	ldr	x9, [sp, #72]
	ldr	x11, [x8]
	ldr	x8, [x9]
	add	w9, w10, #1                     // =1
	ldr	x8, [x8, x10, lsl #3]
	str	w9, [sp, #68]
	str	wzr, [sp, #12]
	stp	x8, x11, [sp, #16]
	ldp	w9, w8, [sp, #8]
	cmp	w8, w9
	b.hs	.LBB27_1
.LBB27_3:                               // %for.body
                                        //   Parent Loop BB27_1 Depth=1
                                        // =>  This Inner Loop Header: Depth=2
	ldp	x8, x11, [sp, #24]
	ldrb	w9, [x8]
	ldrb	w10, [x8, #1]
	stp	w10, w9, [sp, #48]
	ldrb	w12, [x8, #2]
	add	x8, x8, #3                      // =3
	add	x10, x11, x10, lsl #3
	str	x8, [sp, #24]
	str	w12, [sp, #44]
	ldr	x8, [x11, x9, lsl #3]
	ldr	w9, [x10, #2048]
	add	x10, x11, x12, lsl #3
	ldr	w10, [x10, #4096]
	ldr	x11, [sp, #16]
	ldr	w12, [sp, #12]
	add	w8, w8, w9
	add	w8, w8, w10
	lsr	w8, w8, #16
	strb	w8, [x11, x12]
	ldr	w8, [sp, #12]
	add	w8, w8, #1                      // =1
	str	w8, [sp, #12]
	ldp	w9, w8, [sp, #8]
	cmp	w8, w9
	b.lo	.LBB27_3
	b	.LBB27_1
.LBB27_4:                               // %while.end
	add	sp, sp, #96                     // =96
	ret
.Lfunc_end27:
	.size	rgb_gray_convert, .Lfunc_end27-rgb_gray_convert
	.cfi_endproc
                                        // -- End function
	.p2align	2                               // -- Begin function null_convert
	.type	null_convert,@function
null_convert:                           // @null_convert
	.cfi_startproc
// %bb.0:                               // %entry
	sub	sp, sp, #64                     // =64
	.cfi_def_cfa_offset 64
	stp	x1, x0, [sp, #48]
	str	x2, [sp, #40]
	stp	w4, w3, [sp, #32]
	ldr	w9, [x0, #68]
	ldr	w8, [x0, #40]
	stp	w8, w9, [sp]
	b	.LBB28_2
.LBB28_1:                               // %for.end13
                                        //   in Loop: Header=BB28_2 Depth=1
	ldr	w9, [sp, #36]
	add	x8, x8, #8                      // =8
	str	x8, [sp, #48]
	add	w8, w9, #1                      // =1
	str	w8, [sp, #36]
.LBB28_2:                               // %while.cond
                                        // =>This Loop Header: Depth=1
                                        //     Child Loop BB28_5 Depth 2
                                        //       Child Loop BB28_7 Depth 3
	ldr	w8, [sp, #32]
	subs	w8, w8, #1                      // =1
	str	w8, [sp, #32]
	b.mi	.LBB28_8
// %bb.3:                               // %while.body
                                        //   in Loop: Header=BB28_2 Depth=1
	str	wzr, [sp, #8]
	b	.LBB28_5
.LBB28_4:                               // %for.inc11
                                        //   in Loop: Header=BB28_5 Depth=2
	ldr	w8, [sp, #8]
	add	w8, w8, #1                      // =1
	str	w8, [sp, #8]
.LBB28_5:                               // %for.cond
                                        //   Parent Loop BB28_2 Depth=1
                                        // =>  This Loop Header: Depth=2
                                        //       Child Loop BB28_7 Depth 3
	ldp	w10, w9, [sp, #4]
	ldr	x8, [sp, #48]
	cmp	w9, w10
	b.ge	.LBB28_1
// %bb.6:                               // %for.body
                                        //   in Loop: Header=BB28_5 Depth=2
	ldr	x9, [sp, #40]
	ldrsw	x10, [sp, #8]
	ldr	x12, [x8]
	ldr	w11, [sp, #36]
	ldr	x8, [x9, x10, lsl #3]
	ldr	x8, [x8, x11, lsl #3]
	str	wzr, [sp, #12]
	stp	x8, x12, [sp, #16]
	mov	w8, wzr
	ldr	w9, [sp]
	cmp	w8, w9
	b.hs	.LBB28_4
.LBB28_7:                               // %for.body6
                                        //   Parent Loop BB28_2 Depth=1
                                        //     Parent Loop BB28_5 Depth=2
                                        // =>    This Inner Loop Header: Depth=3
	ldp	x10, x8, [sp, #16]
	ldp	w9, w11, [sp, #8]
                                        // kill: def $w9 killed $w9 def $x9
	sxtw	x9, w9
	ldrb	w8, [x8, x9]
	strb	w8, [x10, x11]
	ldrsw	x8, [sp, #4]
	ldr	x9, [sp, #24]
	ldr	w10, [sp, #12]
	add	x8, x9, x8
	add	w9, w10, #1                     // =1
	str	x8, [sp, #24]
	str	w9, [sp, #12]
	mov	w8, w9
	ldr	w9, [sp]
	cmp	w8, w9
	b.lo	.LBB28_7
	b	.LBB28_4
.LBB28_8:                               // %while.end
	add	sp, sp, #64                     // =64
	ret
.Lfunc_end28:
	.size	null_convert, .Lfunc_end28-null_convert
	.cfi_endproc
                                        // -- End function
	.p2align	2                               // -- Begin function rgb_ycc_convert
	.type	rgb_ycc_convert,@function
rgb_ycc_convert:                        // @rgb_ycc_convert
	.cfi_startproc
// %bb.0:                               // %entry
	sub	sp, sp, #112                    // =112
	.cfi_def_cfa_offset 112
	stp	x1, x0, [sp, #96]
	str	x2, [sp, #88]
	stp	w4, w3, [sp, #80]
	ldr	x8, [x0, #464]
	mov	x9, x0
	str	x8, [sp, #72]
	ldr	x8, [x8, #16]
	str	x8, [sp, #48]
	ldr	w8, [x9, #40]
	str	w8, [sp, #8]
.LBB29_1:                               // %while.cond
                                        // =>This Loop Header: Depth=1
                                        //     Child Loop BB29_3 Depth 2
	ldr	w8, [sp, #80]
	subs	w8, w8, #1                      // =1
	str	w8, [sp, #80]
	b.mi	.LBB29_4
// %bb.2:                               // %while.body
                                        //   in Loop: Header=BB29_1 Depth=1
	ldr	x8, [sp, #96]
	ldr	w11, [sp, #84]
	add	x9, x8, #8                      // =8
	str	x9, [sp, #96]
	ldr	x9, [sp, #88]
	ldr	x12, [x8]
	ldr	w8, [sp, #84]
	ldr	x10, [x9]
	lsl	x8, x8, #3
	ldr	x10, [x10, x8]
	stp	x10, x12, [sp, #32]
	ldp	x10, x9, [x9, #8]
	ldr	x10, [x10, x8]
	ldr	x8, [x9, x8]
	add	w9, w11, #1                     // =1
	str	w9, [sp, #84]
	str	wzr, [sp, #12]
	stp	x8, x10, [sp, #16]
	ldp	w9, w8, [sp, #8]
	cmp	w8, w9
	b.hs	.LBB29_1
.LBB29_3:                               // %for.body
                                        //   Parent Loop BB29_1 Depth=1
                                        // =>  This Inner Loop Header: Depth=2
	ldp	x8, x11, [sp, #40]
	ldrb	w9, [x8]
	ldrb	w10, [x8, #1]
	stp	w10, w9, [sp, #64]
	ldrb	w12, [x8, #2]
	add	x8, x8, #3                      // =3
	add	x10, x11, x10, lsl #3
	str	x8, [sp, #40]
	str	w12, [sp, #60]
	add	x8, x11, x12, lsl #3
	ldr	x9, [x11, x9, lsl #3]
	ldr	w10, [x10, #2048]
	ldr	w8, [x8, #4096]
	ldr	x11, [sp, #32]
	ldr	w12, [sp, #12]
	add	w9, w9, w10
	add	w8, w9, w8
	lsr	w8, w8, #16
	strb	w8, [x11, x12]
	ldr	x8, [sp, #48]
	ldpsw	x10, x9, [sp, #64]
	ldrsw	x11, [sp, #60]
	ldr	w12, [sp, #12]
	add	x9, x8, x9, lsl #3
	add	x10, x8, x10, lsl #3
	add	x8, x8, x11, lsl #3
	ldr	w9, [x9, #6144]
	ldr	w10, [x10, #8192]
	ldr	w8, [x8, #10240]
	ldr	x11, [sp, #24]
	add	w9, w9, w10
	add	w8, w9, w8
	lsr	w8, w8, #16
	strb	w8, [x11, x12]
	ldr	x8, [sp, #48]
	ldpsw	x10, x9, [sp, #64]
	ldrsw	x11, [sp, #60]
	ldr	w12, [sp, #12]
	add	x9, x8, x9, lsl #3
	add	x10, x8, x10, lsl #3
	ldr	w9, [x9, #10240]
	ldr	w10, [x10, #12288]
	add	x8, x8, x11, lsl #3
	ldr	w8, [x8, #14336]
	ldr	x11, [sp, #16]
	add	w9, w9, w10
	add	w8, w9, w8
	lsr	w8, w8, #16
	strb	w8, [x11, x12]
	ldr	w8, [sp, #12]
	add	w8, w8, #1                      // =1
	str	w8, [sp, #12]
	ldp	w9, w8, [sp, #8]
	cmp	w8, w9
	b.lo	.LBB29_3
	b	.LBB29_1
.LBB29_4:                               // %while.end
	add	sp, sp, #112                    // =112
	ret
.Lfunc_end29:
	.size	rgb_ycc_convert, .Lfunc_end29-rgb_ycc_convert
	.cfi_endproc
                                        // -- End function
	.p2align	2                               // -- Begin function cmyk_ycck_convert
	.type	cmyk_ycck_convert,@function
cmyk_ycck_convert:                      // @cmyk_ycck_convert
	.cfi_startproc
// %bb.0:                               // %entry
	sub	sp, sp, #112                    // =112
	.cfi_def_cfa_offset 112
	stp	x1, x0, [sp, #96]
	str	x2, [sp, #88]
	stp	w4, w3, [sp, #80]
	ldr	x8, [x0, #464]
	mov	x9, x0
	str	x8, [sp, #72]
	ldr	x8, [x8, #16]
	str	x8, [sp, #48]
	ldr	w8, [x9, #40]
	str	w8, [sp]
	mov	w8, #255
.LBB30_1:                               // %while.cond
                                        // =>This Loop Header: Depth=1
                                        //     Child Loop BB30_3 Depth 2
	ldr	w9, [sp, #80]
	subs	w9, w9, #1                      // =1
	str	w9, [sp, #80]
	b.mi	.LBB30_4
// %bb.2:                               // %while.body
                                        //   in Loop: Header=BB30_1 Depth=1
	ldp	x11, x9, [sp, #88]
	ldr	w13, [sp, #84]
	add	x10, x9, #8                     // =8
	str	x10, [sp, #96]
	ldr	x10, [sp, #88]
	ldr	x14, [x9]
	ldr	w9, [sp, #84]
	ldr	x12, [x10]
	lsl	x9, x9, #3
	ldr	x12, [x12, x9]
	stp	x12, x14, [sp, #32]
	ldp	x12, x10, [x10, #8]
	ldr	x12, [x12, x9]
	ldr	x9, [x10, x9]
	ldr	w10, [sp, #84]
	stp	x9, x12, [sp, #16]
	ldr	x9, [x11, #24]
	add	w10, w10, #1                    // =1
	ldr	x9, [x9, x13, lsl #3]
	str	w10, [sp, #84]
	str	wzr, [sp, #4]
	str	x9, [sp, #8]
	ldp	w10, w9, [sp]
	cmp	w9, w10
	b.hs	.LBB30_1
.LBB30_3:                               // %for.body
                                        //   Parent Loop BB30_1 Depth=1
                                        // =>  This Inner Loop Header: Depth=2
	ldr	x9, [sp, #40]
	ldr	x11, [sp, #8]
	ldr	w12, [sp, #4]
	ldrb	w10, [x9]
	sub	w10, w8, w10
	str	w10, [sp, #68]
	ldrb	w10, [x9, #1]
	sub	w10, w8, w10
	str	w10, [sp, #64]
	ldrb	w10, [x9, #2]
	sub	w10, w8, w10
	str	w10, [sp, #60]
	ldrb	w9, [x9, #3]
	strb	w9, [x11, x12]
	ldp	x9, x10, [sp, #40]
	ldpsw	x12, x11, [sp, #60]
	ldrsw	x13, [sp, #68]
	add	x9, x9, #4                      // =4
	add	x11, x10, x11, lsl #3
	str	x9, [sp, #40]
	add	x12, x10, x12, lsl #3
	ldr	x9, [x10, x13, lsl #3]
	ldr	w10, [x11, #2048]
	ldr	w11, [x12, #4096]
	ldr	x12, [sp, #32]
	ldr	w13, [sp, #4]
	add	w9, w9, w10
	add	w9, w9, w11
	lsr	w9, w9, #16
	strb	w9, [x12, x13]
	ldr	x9, [sp, #48]
	ldpsw	x11, x10, [sp, #64]
	ldrsw	x12, [sp, #60]
	ldr	w13, [sp, #4]
	add	x10, x9, x10, lsl #3
	add	x11, x9, x11, lsl #3
	add	x9, x9, x12, lsl #3
	ldr	w10, [x10, #6144]
	ldr	w11, [x11, #8192]
	ldr	w9, [x9, #10240]
	ldr	x12, [sp, #24]
	add	w10, w10, w11
	add	w9, w10, w9
	lsr	w9, w9, #16
	strb	w9, [x12, x13]
	ldr	x9, [sp, #48]
	ldpsw	x11, x10, [sp, #64]
	ldrsw	x12, [sp, #60]
	ldr	w13, [sp, #4]
	add	x10, x9, x10, lsl #3
	add	x11, x9, x11, lsl #3
	ldr	w10, [x10, #10240]
	ldr	w11, [x11, #12288]
	add	x9, x9, x12, lsl #3
	ldr	w9, [x9, #14336]
	ldr	x12, [sp, #16]
	add	w10, w10, w11
	add	w9, w10, w9
	lsr	w9, w9, #16
	strb	w9, [x12, x13]
	ldr	w9, [sp, #4]
	add	w9, w9, #1                      // =1
	str	w9, [sp, #4]
	ldp	w10, w9, [sp]
	cmp	w9, w10
	b.lo	.LBB30_3
	b	.LBB30_1
.LBB30_4:                               // %while.end
	add	sp, sp, #112                    // =112
	ret
.Lfunc_end30:
	.size	cmyk_ycck_convert, .Lfunc_end30-cmyk_ycck_convert
	.cfi_endproc
                                        // -- End function
	.globl	jinit_forward_dct               // -- Begin function jinit_forward_dct
	.p2align	2
	.type	jinit_forward_dct,@function
jinit_forward_dct:                      // @jinit_forward_dct
	.cfi_startproc
// %bb.0:                               // %entry
	sub	sp, sp, #48                     // =48
	stp	x29, x30, [sp, #32]             // 16-byte Folded Spill
	add	x29, sp, #32                    // =32
	.cfi_def_cfa w29, 16
	.cfi_offset w30, -8
	.cfi_offset w29, -16
	stur	x0, [x29, #-8]
	ldr	x8, [x0, #8]
	mov	w1, #1
	mov	w2, #96
	ldr	x8, [x8]
	blr	x8
	ldur	x8, [x29, #-8]
	adrp	x9, start_pass_fdctmgr
	str	x0, [sp, #16]
	add	x9, x9, :lo12:start_pass_fdctmgr
	str	x0, [x8, #480]
	mov	x8, x0
	str	x9, [x8]
	ldur	x8, [x29, #-8]
	ldr	w8, [x8, #268]
	cmp	w8, #2                          // =2
	b.eq	.LBB31_4
// %bb.1:                               // %entry
	cmp	w8, #1                          // =1
	b.eq	.LBB31_5
// %bb.2:                               // %entry
	cbnz	w8, .LBB31_6
// %bb.3:                               // %sw.bb
	ldr	x8, [sp, #16]
	adrp	x9, forward_DCT
	add	x9, x9, :lo12:forward_DCT
	str	x9, [x8, #8]
	ldr	x8, [sp, #16]
	adrp	x9, jpeg_fdct_islow
	add	x9, x9, :lo12:jpeg_fdct_islow
	str	x9, [x8, #16]
	b	.LBB31_7
.LBB31_4:                               // %sw.bb8
	ldr	x8, [sp, #16]
	adrp	x9, forward_DCT_float
	add	x9, x9, :lo12:forward_DCT_float
	str	x9, [x8, #8]
	ldr	x8, [sp, #16]
	adrp	x9, jpeg_fdct_float
	add	x9, x9, :lo12:jpeg_fdct_float
	str	x9, [x8, #56]
	b	.LBB31_7
.LBB31_5:                               // %sw.bb4
	ldr	x8, [sp, #16]
	adrp	x9, forward_DCT
	add	x9, x9, :lo12:forward_DCT
	str	x9, [x8, #8]
	ldr	x8, [sp, #16]
	adrp	x9, jpeg_fdct_ifast
	add	x9, x9, :lo12:jpeg_fdct_ifast
	str	x9, [x8, #16]
	b	.LBB31_7
.LBB31_6:                               // %sw.default
	ldur	x8, [x29, #-8]
	mov	w9, #47
	ldr	x8, [x8]
	str	w9, [x8, #40]
	ldur	x0, [x29, #-8]
	ldr	x8, [x0]
	ldr	x8, [x8]
	blr	x8
.LBB31_7:                               // %sw.epilog
	str	wzr, [sp, #12]
	mov	w8, wzr
	cmp	w8, #3                          // =3
	b.gt	.LBB31_9
.LBB31_8:                               // %for.body
                                        // =>This Inner Loop Header: Depth=1
	ldr	x8, [sp, #16]
	ldrsw	x9, [sp, #12]
	add	x8, x8, x9, lsl #3
	str	xzr, [x8, #24]
	ldr	x8, [sp, #16]
	ldrsw	x9, [sp, #12]
	add	x8, x8, x9, lsl #3
	str	xzr, [x8, #64]
	ldr	w8, [sp, #12]
	add	w8, w8, #1                      // =1
	str	w8, [sp, #12]
	mov	w8, w8
	cmp	w8, #3                          // =3
	b.le	.LBB31_8
.LBB31_9:                               // %for.end
	ldp	x29, x30, [sp, #32]             // 16-byte Folded Reload
	add	sp, sp, #48                     // =48
	ret
.Lfunc_end31:
	.size	jinit_forward_dct, .Lfunc_end31-jinit_forward_dct
	.cfi_endproc
                                        // -- End function
	.p2align	2                               // -- Begin function start_pass_fdctmgr
	.type	start_pass_fdctmgr,@function
start_pass_fdctmgr:                     // @start_pass_fdctmgr
	.cfi_startproc
// %bb.0:                               // %entry
	sub	sp, sp, #144                    // =144
	stp	d9, d8, [sp, #64]               // 16-byte Folded Spill
	stp	x29, x30, [sp, #80]             // 16-byte Folded Spill
	str	x23, [sp, #96]                  // 8-byte Folded Spill
	stp	x22, x21, [sp, #112]            // 16-byte Folded Spill
	stp	x20, x19, [sp, #128]            // 16-byte Folded Spill
	add	x29, sp, #80                    // =80
	.cfi_def_cfa w29, 64
	.cfi_offset w19, -8
	.cfi_offset w20, -16
	.cfi_offset w21, -24
	.cfi_offset w22, -32
	.cfi_offset w23, -48
	.cfi_offset w30, -56
	.cfi_offset w29, -64
	.cfi_offset b8, -72
	.cfi_offset b9, -80
	str	x0, [x29, #24]
	ldr	x8, [x0, #480]
	stur	wzr, [x29, #-28]
	adrp	x20, start_pass_fdctmgr.aanscalefactor
	adrp	x21, start_pass_fdctmgr.aanscales
	stur	x8, [x29, #-24]
	ldr	x8, [x0, #80]
	mov	w19, #51
	add	x20, x20, :lo12:start_pass_fdctmgr.aanscalefactor
	fmov	d8, #8.00000000
	fmov	d9, #1.00000000
	add	x21, x21, :lo12:start_pass_fdctmgr.aanscales
	orr	x22, xzr, #0x400
	mov	w23, #47
	str	x8, [sp, #32]
	b	.LBB32_3
.LBB32_1:                               // %sw.default
                                        //   in Loop: Header=BB32_3 Depth=1
	ldr	x8, [x29, #24]
	ldr	x8, [x8]
	str	w23, [x8, #40]
	ldr	x0, [x29, #24]
	ldr	x8, [x0]
	ldr	x8, [x8]
	blr	x8
.LBB32_2:                               // %for.inc114
                                        //   in Loop: Header=BB32_3 Depth=1
	ldur	w8, [x29, #-28]
	ldr	x9, [sp, #32]
	add	w8, w8, #1                      // =1
	add	x9, x9, #96                     // =96
	stur	w8, [x29, #-28]
	str	x9, [sp, #32]
.LBB32_3:                               // %for.cond
                                        // =>This Loop Header: Depth=1
                                        //     Child Loop BB32_14 Depth 2
                                        //     Child Loop BB32_25 Depth 2
                                        //     Child Loop BB32_19 Depth 2
                                        //       Child Loop BB32_21 Depth 3
	ldr	x8, [x29, #24]
	ldur	w9, [x29, #-28]
	ldr	w8, [x8, #68]
	cmp	w9, w8
	b.ge	.LBB32_26
// %bb.4:                               // %for.body
                                        //   in Loop: Header=BB32_3 Depth=1
	ldr	x8, [sp, #32]
	ldr	w8, [x8, #16]
	stur	w8, [x29, #-32]
	tbnz	w8, #31, .LBB32_7
// %bb.5:                               // %for.body
                                        //   in Loop: Header=BB32_3 Depth=1
	cmp	w8, #3                          // =3
	b.gt	.LBB32_7
// %bb.6:                               // %lor.lhs.false4
                                        //   in Loop: Header=BB32_3 Depth=1
	ldr	x8, [x29, #24]
	ldursw	x9, [x29, #-32]
	add	x8, x8, x9, lsl #3
	ldr	x8, [x8, #88]
	cbnz	x8, .LBB32_8
.LBB32_7:                               // %if.then
                                        //   in Loop: Header=BB32_3 Depth=1
	ldr	x8, [x29, #24]
	ldr	x8, [x8]
	str	w19, [x8, #40]
	ldr	x8, [x29, #24]
	ldur	w9, [x29, #-32]
	ldr	x8, [x8]
	str	w9, [x8, #44]
	ldr	x0, [x29, #24]
	ldr	x8, [x0]
	ldr	x8, [x8]
	blr	x8
.LBB32_8:                               // %if.end
                                        //   in Loop: Header=BB32_3 Depth=1
	ldr	x8, [x29, #24]
	ldursw	x9, [x29, #-32]
	add	x9, x8, x9, lsl #3
	ldr	x9, [x9, #88]
	str	x9, [sp, #24]
	ldr	w8, [x8, #268]
	cmp	w8, #2                          // =2
	b.eq	.LBB32_15
// %bb.9:                               // %if.end
                                        //   in Loop: Header=BB32_3 Depth=1
	cmp	w8, #1                          // =1
	b.eq	.LBB32_22
// %bb.10:                              // %if.end
                                        //   in Loop: Header=BB32_3 Depth=1
	cbnz	w8, .LBB32_1
// %bb.11:                              // %sw.bb
                                        //   in Loop: Header=BB32_3 Depth=1
	ldur	x8, [x29, #-24]
	ldursw	x9, [x29, #-32]
	add	x8, x8, x9, lsl #3
	ldr	x8, [x8, #24]
	cbnz	x8, .LBB32_13
// %bb.12:                              // %if.then16
                                        //   in Loop: Header=BB32_3 Depth=1
	ldr	x0, [x29, #24]
	mov	w1, #1
	mov	w2, #256
	ldr	x8, [x0, #8]
	ldr	x8, [x8]
	blr	x8
	ldur	x8, [x29, #-24]
	ldursw	x9, [x29, #-32]
	add	x8, x8, x9, lsl #3
	str	x0, [x8, #24]
.LBB32_13:                              // %if.end20
                                        //   in Loop: Header=BB32_3 Depth=1
	ldur	x8, [x29, #-24]
	ldursw	x9, [x29, #-32]
	add	x8, x8, x9, lsl #3
	ldr	x8, [x8, #24]
	stur	wzr, [x29, #-36]
	str	x8, [sp, #16]
	mov	w8, wzr
	cmp	w8, #63                         // =63
	b.gt	.LBB32_2
.LBB32_14:                              // %for.body26
                                        //   Parent Loop BB32_3 Depth=1
                                        // =>  This Inner Loop Header: Depth=2
	ldp	x10, x8, [sp, #16]
	ldursw	x9, [x29, #-36]
	ldrh	w8, [x8, x9, lsl #1]
	lsl	w8, w8, #3
	str	w8, [x10, x9, lsl #2]
	ldur	w8, [x29, #-36]
	add	w8, w8, #1                      // =1
	stur	w8, [x29, #-36]
	mov	w8, w8
	cmp	w8, #63                         // =63
	b.le	.LBB32_14
	b	.LBB32_2
.LBB32_15:                              // %sw.bb65
                                        //   in Loop: Header=BB32_3 Depth=1
	ldur	x8, [x29, #-24]
	ldursw	x9, [x29, #-32]
	add	x8, x8, x9, lsl #3
	ldr	x8, [x8, #64]
	cbnz	x8, .LBB32_17
// %bb.16:                              // %if.then70
                                        //   in Loop: Header=BB32_3 Depth=1
	ldr	x0, [x29, #24]
	mov	w1, #1
	mov	w2, #256
	ldr	x8, [x0, #8]
	ldr	x8, [x8]
	blr	x8
	ldur	x8, [x29, #-24]
	ldursw	x9, [x29, #-32]
	add	x8, x8, x9, lsl #3
	str	x0, [x8, #64]
.LBB32_17:                              // %if.end77
                                        //   in Loop: Header=BB32_3 Depth=1
	ldur	x8, [x29, #-24]
	ldursw	x9, [x29, #-32]
	add	x8, x8, x9, lsl #3
	ldr	x8, [x8, #64]
	stur	wzr, [x29, #-36]
	str	wzr, [sp, #4]
	str	x8, [sp, #8]
	b	.LBB32_19
.LBB32_18:                              // %for.inc107
                                        //   in Loop: Header=BB32_19 Depth=2
	ldr	w8, [sp, #4]
	add	w8, w8, #1                      // =1
	str	w8, [sp, #4]
.LBB32_19:                              // %for.cond81
                                        //   Parent Loop BB32_3 Depth=1
                                        // =>  This Loop Header: Depth=2
                                        //       Child Loop BB32_21 Depth 3
	ldr	w8, [sp, #4]
	cmp	w8, #7                          // =7
	b.gt	.LBB32_2
// %bb.20:                              // %for.body84
                                        //   in Loop: Header=BB32_19 Depth=2
	str	wzr, [sp]
	mov	w8, wzr
	cmp	w8, #7                          // =7
	b.gt	.LBB32_18
.LBB32_21:                              // %for.body88
                                        //   Parent Loop BB32_3 Depth=1
                                        //     Parent Loop BB32_19 Depth=2
                                        // =>    This Inner Loop Header: Depth=3
	ldr	x8, [sp, #24]
	ldursw	x9, [x29, #-36]
	ldpsw	x11, x10, [sp]
	ldr	h0, [x8, x9, lsl #1]
	ldr	d1, [x20, x10, lsl #3]
	ldr	d2, [x20, x11, lsl #3]
	ldr	x8, [sp, #8]
	ucvtf	d0, d0
	fmul	d0, d0, d1
	fmul	d0, d0, d2
	fmul	d0, d0, d8
	fdiv	d0, d9, d0
	fcvt	s0, d0
	str	s0, [x8, x9, lsl #2]
	ldur	w8, [x29, #-36]
	ldr	w9, [sp]
	add	w8, w8, #1                      // =1
	add	w9, w9, #1                      // =1
	stur	w8, [x29, #-36]
	str	w9, [sp]
	mov	w8, w9
	cmp	w8, #7                          // =7
	b.le	.LBB32_21
	b	.LBB32_18
.LBB32_22:                              // %sw.bb31
                                        //   in Loop: Header=BB32_3 Depth=1
	ldur	x8, [x29, #-24]
	ldursw	x9, [x29, #-32]
	add	x8, x8, x9, lsl #3
	ldr	x8, [x8, #24]
	cbnz	x8, .LBB32_24
// %bb.23:                              // %if.then37
                                        //   in Loop: Header=BB32_3 Depth=1
	ldr	x0, [x29, #24]
	mov	w1, #1
	mov	w2, #256
	ldr	x8, [x0, #8]
	ldr	x8, [x8]
	blr	x8
	ldur	x8, [x29, #-24]
	ldursw	x9, [x29, #-32]
	add	x8, x8, x9, lsl #3
	str	x0, [x8, #24]
.LBB32_24:                              // %if.end44
                                        //   in Loop: Header=BB32_3 Depth=1
	ldur	x8, [x29, #-24]
	ldursw	x9, [x29, #-32]
	add	x8, x8, x9, lsl #3
	ldr	x8, [x8, #24]
	stur	wzr, [x29, #-36]
	str	x8, [sp, #16]
	mov	w8, wzr
	cmp	w8, #63                         // =63
	b.gt	.LBB32_2
.LBB32_25:                              // %for.body51
                                        //   Parent Loop BB32_3 Depth=1
                                        // =>  This Inner Loop Header: Depth=2
	ldursw	x8, [x29, #-36]
	ldp	x11, x9, [sp, #16]
	lsl	x10, x8, #1
	ldrh	w9, [x9, x10]
	ldrsh	x10, [x21, x10]
	madd	x9, x9, x10, x22
	lsr	x9, x9, #11
	str	w9, [x11, x8, lsl #2]
	ldur	w8, [x29, #-36]
	add	w8, w8, #1                      // =1
	stur	w8, [x29, #-36]
	mov	w8, w8
	cmp	w8, #63                         // =63
	b.le	.LBB32_25
	b	.LBB32_2
.LBB32_26:                              // %for.end116
	ldp	x20, x19, [sp, #128]            // 16-byte Folded Reload
	ldp	x22, x21, [sp, #112]            // 16-byte Folded Reload
	ldr	x23, [sp, #96]                  // 8-byte Folded Reload
	ldp	x29, x30, [sp, #80]             // 16-byte Folded Reload
	ldp	d9, d8, [sp, #64]               // 16-byte Folded Reload
	add	sp, sp, #144                    // =144
	ret
.Lfunc_end32:
	.size	start_pass_fdctmgr, .Lfunc_end32-start_pass_fdctmgr
	.cfi_endproc
                                        // -- End function
	.p2align	2                               // -- Begin function forward_DCT
	.type	forward_DCT,@function
forward_DCT:                            // @forward_DCT
	.cfi_startproc
// %bb.0:                               // %entry
	sub	sp, sp, #400                    // =400
	stp	x29, x30, [sp, #368]            // 16-byte Folded Spill
	stp	x28, x19, [sp, #384]            // 16-byte Folded Spill
	add	x29, sp, #368                   // =368
	.cfi_def_cfa w29, 32
	.cfi_offset w19, -8
	.cfi_offset w28, -16
	.cfi_offset w30, -24
	.cfi_offset w29, -32
	stp	x1, x0, [x29, #-16]
	stp	x3, x2, [x29, #-32]
	stp	w5, w4, [x29, #-40]
	stur	w6, [x29, #-44]
	ldr	x8, [x0, #480]
	mov	w10, w4
	mov	x11, x2
	add	x19, sp, #40                    // =40
	ldr	x9, [x8, #16]
	stp	x9, x8, [x29, #-64]
	ldrsw	x9, [x1, #16]
	add	x8, x8, x9, lsl #3
	ldr	x8, [x8, #24]
	add	x9, x11, x10, lsl #3
	stur	x9, [x29, #-24]
	str	wzr, [sp, #36]
	stur	x8, [x29, #-72]
	b	.LBB33_2
.LBB33_1:                               // %for.end74
                                        //   in Loop: Header=BB33_2 Depth=1
	ldr	w8, [sp, #36]
	ldur	w9, [x29, #-40]
	add	w8, w8, #1                      // =1
	add	w9, w9, #8                      // =8
	str	w8, [sp, #36]
	stur	w9, [x29, #-40]
.LBB33_2:                               // %for.cond
                                        // =>This Loop Header: Depth=1
                                        //     Child Loop BB33_4 Depth 2
                                        //     Child Loop BB33_8 Depth 2
	ldr	w8, [sp, #36]
	ldur	w9, [x29, #-44]
	cmp	w8, w9
	b.hs	.LBB33_16
// %bb.3:                               // %for.body
                                        //   in Loop: Header=BB33_2 Depth=1
	str	x19, [sp, #24]
	str	wzr, [sp, #12]
	mov	w8, wzr
	cmp	w8, #7                          // =7
	b.gt	.LBB33_5
.LBB33_4:                               // %for.body6
                                        //   Parent Loop BB33_2 Depth=1
                                        // =>  This Inner Loop Header: Depth=2
	ldur	x8, [x29, #-24]
	ldrsw	x9, [sp, #12]
	ldur	w10, [x29, #-40]
	ldr	x8, [x8, x9, lsl #3]
	ldr	x9, [sp, #24]
	add	x8, x8, x10
	add	x10, x8, #1                     // =1
	str	x10, [sp, #16]
	ldrb	w8, [x8]
	add	x10, x9, #4                     // =4
	str	x10, [sp, #24]
	sub	w8, w8, #128                    // =128
	str	w8, [x9]
	ldr	x8, [sp, #16]
	mov	x9, x10
	add	x10, x8, #1                     // =1
	str	x10, [sp, #16]
	ldrb	w8, [x8]
	add	x10, x9, #4                     // =4
	str	x10, [sp, #24]
	sub	w8, w8, #128                    // =128
	str	w8, [x9]
	ldr	x8, [sp, #16]
	mov	x9, x10
	add	x10, x8, #1                     // =1
	str	x10, [sp, #16]
	ldrb	w8, [x8]
	add	x10, x9, #4                     // =4
	str	x10, [sp, #24]
	sub	w8, w8, #128                    // =128
	str	w8, [x9]
	ldr	x8, [sp, #16]
	mov	x9, x10
	add	x10, x8, #1                     // =1
	str	x10, [sp, #16]
	ldrb	w8, [x8]
	add	x10, x9, #4                     // =4
	str	x10, [sp, #24]
	sub	w8, w8, #128                    // =128
	str	w8, [x9]
	ldr	x8, [sp, #16]
	mov	x9, x10
	add	x10, x8, #1                     // =1
	str	x10, [sp, #16]
	ldrb	w8, [x8]
	add	x10, x9, #4                     // =4
	str	x10, [sp, #24]
	sub	w8, w8, #128                    // =128
	str	w8, [x9]
	ldr	x8, [sp, #16]
	mov	x9, x10
	add	x10, x8, #1                     // =1
	str	x10, [sp, #16]
	ldrb	w8, [x8]
	add	x10, x9, #4                     // =4
	str	x10, [sp, #24]
	sub	w8, w8, #128                    // =128
	str	w8, [x9]
	ldr	x8, [sp, #16]
	mov	x9, x10
	add	x10, x8, #1                     // =1
	str	x10, [sp, #16]
	ldrb	w8, [x8]
	add	x10, x9, #4                     // =4
	str	x10, [sp, #24]
	sub	w8, w8, #128                    // =128
	str	w8, [x9]
	ldr	x8, [sp, #16]
	mov	x9, x10
	add	x10, x8, #1                     // =1
	str	x10, [sp, #16]
	ldrb	w8, [x8]
	add	x10, x9, #4                     // =4
	str	x10, [sp, #24]
	sub	w8, w8, #128                    // =128
	str	w8, [x9]
	ldr	w8, [sp, #12]
	add	w8, w8, #1                      // =1
	str	w8, [sp, #12]
	mov	w8, w8
	cmp	w8, #7                          // =7
	b.le	.LBB33_4
.LBB33_5:                               // %for.end
                                        //   in Loop: Header=BB33_2 Depth=1
	ldur	x8, [x29, #-64]
	add	x0, sp, #40                     // =40
	blr	x8
	ldur	x8, [x29, #-32]
	ldr	w9, [sp, #36]
	str	wzr, [sp, #8]
	add	x8, x8, x9, lsl #7
	str	x8, [sp, #24]
	b	.LBB33_8
.LBB33_6:                               // %if.else66
                                        //   in Loop: Header=BB33_8 Depth=2
	str	wzr, [sp, #16]
.LBB33_7:                               // %if.end68
                                        //   in Loop: Header=BB33_8 Depth=2
	ldr	w8, [sp, #16]
	ldr	x9, [sp, #24]
	ldrsw	x10, [sp, #8]
	strh	w8, [x9, x10, lsl #1]
	ldr	w8, [sp, #8]
	add	w8, w8, #1                      // =1
	str	w8, [sp, #8]
.LBB33_8:                               // %for.cond44
                                        //   Parent Loop BB33_2 Depth=1
                                        // =>  This Inner Loop Header: Depth=2
	ldr	w8, [sp, #8]
	cmp	w8, #63                         // =63
	b.gt	.LBB33_1
// %bb.9:                               // %for.body47
                                        //   in Loop: Header=BB33_8 Depth=2
	ldrsw	x8, [sp, #8]
	ldur	x9, [x29, #-72]
	lsl	x8, x8, #2
	ldr	w9, [x9, x8]
	ldr	w8, [x19, x8]
	stp	w9, w8, [sp, #12]
	tbnz	w8, #31, .LBB33_12
// %bb.10:                              // %if.else59
                                        //   in Loop: Header=BB33_8 Depth=2
	ldp	w8, w9, [sp, #12]
	add	w9, w9, w8, asr #1
	cmp	w9, w8
	str	w9, [sp, #16]
	b.lt	.LBB33_6
// %bb.11:                              // %if.then64
                                        //   in Loop: Header=BB33_8 Depth=2
	ldp	w8, w9, [sp, #12]
	sdiv	w8, w9, w8
	str	w8, [sp, #16]
	b	.LBB33_7
.LBB33_12:                              // %if.then
                                        //   in Loop: Header=BB33_8 Depth=2
	ldp	w8, w9, [sp, #12]
	asr	w10, w8, #1
	sub	w9, w10, w9
	cmp	w9, w8
	str	w9, [sp, #16]
	b.lt	.LBB33_14
// %bb.13:                              // %if.then57
                                        //   in Loop: Header=BB33_8 Depth=2
	ldp	w8, w9, [sp, #12]
	sdiv	w8, w9, w8
	str	w8, [sp, #16]
	b	.LBB33_15
.LBB33_14:                              // %if.else
                                        //   in Loop: Header=BB33_8 Depth=2
	str	wzr, [sp, #16]
.LBB33_15:                              // %if.end
                                        //   in Loop: Header=BB33_8 Depth=2
	ldr	w8, [sp, #16]
	neg	w8, w8
	str	w8, [sp, #16]
	b	.LBB33_7
.LBB33_16:                              // %for.end78
	ldp	x28, x19, [sp, #384]            // 16-byte Folded Reload
	ldp	x29, x30, [sp, #368]            // 16-byte Folded Reload
	add	sp, sp, #400                    // =400
	ret
.Lfunc_end33:
	.size	forward_DCT, .Lfunc_end33-forward_DCT
	.cfi_endproc
                                        // -- End function
	.p2align	2                               // -- Begin function forward_DCT_float
	.type	forward_DCT_float,@function
forward_DCT_float:                      // @forward_DCT_float
	.cfi_startproc
// %bb.0:                               // %entry
	sub	sp, sp, #416                    // =416
	stp	x29, x30, [sp, #368]            // 16-byte Folded Spill
	stp	x28, x21, [sp, #384]            // 16-byte Folded Spill
	stp	x20, x19, [sp, #400]            // 16-byte Folded Spill
	add	x29, sp, #368                   // =368
	.cfi_def_cfa w29, 48
	.cfi_offset w19, -8
	.cfi_offset w20, -16
	.cfi_offset w21, -24
	.cfi_offset w28, -32
	.cfi_offset w30, -40
	.cfi_offset w29, -48
	sub	x19, x29, #72                   // =72
	stp	w5, w4, [x29, #-40]
	stur	w6, [x29, #-44]
	stp	x1, x0, [x19, #56]
	stp	x3, x2, [x19, #40]
	ldr	x8, [x0, #480]
	mov	w10, w4
	mov	x11, x2
	mov	w21, #256
	ldr	x9, [x8, #56]
	add	x20, sp, #40                    // =40
	movk	w21, #18048, lsl #16
	stp	x9, x8, [x19, #8]
	ldrsw	x9, [x1, #16]
	add	x8, x8, x9, lsl #3
	ldr	x8, [x8, #64]
	add	x9, x11, x10, lsl #3
	str	x9, [x19, #48]
	str	wzr, [sp, #36]
	str	x8, [x19]
	b	.LBB34_2
.LBB34_1:                               // %for.end65
                                        //   in Loop: Header=BB34_2 Depth=1
	ldr	w8, [sp, #36]
	ldur	w9, [x29, #-40]
	add	w8, w8, #1                      // =1
	add	w9, w9, #8                      // =8
	str	w8, [sp, #36]
	stur	w9, [x29, #-40]
.LBB34_2:                               // %for.cond
                                        // =>This Loop Header: Depth=1
                                        //     Child Loop BB34_4 Depth 2
                                        //     Child Loop BB34_6 Depth 2
	ldr	w8, [sp, #36]
	ldur	w9, [x29, #-44]
	cmp	w8, w9
	b.hs	.LBB34_7
// %bb.3:                               // %for.body
                                        //   in Loop: Header=BB34_2 Depth=1
	str	x20, [sp, #24]
	str	wzr, [sp, #12]
	mov	w8, wzr
	cmp	w8, #7                          // =7
	b.gt	.LBB34_5
.LBB34_4:                               // %for.body4
                                        //   Parent Loop BB34_2 Depth=1
                                        // =>  This Inner Loop Header: Depth=2
	ldr	x8, [x19, #48]
	ldrsw	x9, [sp, #12]
	ldur	w10, [x29, #-40]
	ldr	x8, [x8, x9, lsl #3]
	ldr	x9, [sp, #24]
	add	x8, x8, x10
	add	x11, x8, #1                     // =1
	ldrb	w8, [x8]
	add	x10, x9, #4                     // =4
	stp	x11, x10, [sp, #16]
	sub	w8, w8, #128                    // =128
	scvtf	s0, w8
	str	s0, [x9]
	ldr	x8, [sp, #16]
	mov	x9, x10
	add	x10, x9, #4                     // =4
	add	x11, x8, #1                     // =1
	ldrb	w8, [x8]
	stp	x11, x10, [sp, #16]
	sub	w8, w8, #128                    // =128
	scvtf	s0, w8
	str	s0, [x9]
	ldr	x8, [sp, #16]
	mov	x9, x10
	add	x10, x9, #4                     // =4
	add	x11, x8, #1                     // =1
	ldrb	w8, [x8]
	stp	x11, x10, [sp, #16]
	sub	w8, w8, #128                    // =128
	scvtf	s0, w8
	str	s0, [x9]
	ldr	x8, [sp, #16]
	mov	x9, x10
	add	x10, x9, #4                     // =4
	add	x11, x8, #1                     // =1
	ldrb	w8, [x8]
	stp	x11, x10, [sp, #16]
	sub	w8, w8, #128                    // =128
	scvtf	s0, w8
	str	s0, [x9]
	ldr	x8, [sp, #16]
	mov	x9, x10
	add	x10, x9, #4                     // =4
	add	x11, x8, #1                     // =1
	ldrb	w8, [x8]
	stp	x11, x10, [sp, #16]
	sub	w8, w8, #128                    // =128
	scvtf	s0, w8
	str	s0, [x9]
	ldr	x8, [sp, #16]
	mov	x9, x10
	add	x10, x9, #4                     // =4
	add	x11, x8, #1                     // =1
	ldrb	w8, [x8]
	stp	x11, x10, [sp, #16]
	sub	w8, w8, #128                    // =128
	scvtf	s0, w8
	str	s0, [x9]
	ldr	x8, [sp, #16]
	mov	x9, x10
	add	x10, x9, #4                     // =4
	add	x11, x8, #1                     // =1
	ldrb	w8, [x8]
	stp	x11, x10, [sp, #16]
	sub	w8, w8, #128                    // =128
	scvtf	s0, w8
	str	s0, [x9]
	ldr	x8, [sp, #16]
	mov	x9, x10
	add	x11, x8, #1                     // =1
	ldrb	w8, [x8]
	sub	w8, w8, #128                    // =128
	scvtf	s0, w8
	add	x8, x9, #4                      // =4
	stp	x11, x8, [sp, #16]
	str	s0, [x9]
	ldr	w8, [sp, #12]
	add	w8, w8, #1                      // =1
	str	w8, [sp, #12]
	mov	w8, w8
	cmp	w8, #7                          // =7
	b.le	.LBB34_4
.LBB34_5:                               // %for.end
                                        //   in Loop: Header=BB34_2 Depth=1
	ldr	x8, [x19, #8]
	add	x0, sp, #40                     // =40
	blr	x8
	ldr	x8, [x19, #40]
	ldr	w9, [sp, #36]
	str	wzr, [sp, #12]
	add	x8, x8, x9, lsl #7
	str	x8, [sp, #24]
	mov	w8, wzr
	cmp	w8, #63                         // =63
	b.gt	.LBB34_1
.LBB34_6:                               // %for.body53
                                        //   Parent Loop BB34_2 Depth=1
                                        // =>  This Inner Loop Header: Depth=2
	ldrsw	x8, [sp, #12]
	ldr	x9, [x19]
	lsl	x10, x8, #2
	ldr	s0, [x20, x10]
	ldr	s1, [x9, x10]
	ldr	x9, [sp, #24]
	fmul	s0, s0, s1
	fmov	s1, w21
	str	s0, [sp, #16]
	fadd	s0, s0, s1
	fcvtzs	w10, s0
	sub	w10, w10, #4, lsl #12           // =16384
	strh	w10, [x9, x8, lsl #1]
	ldr	w8, [sp, #12]
	add	w8, w8, #1                      // =1
	str	w8, [sp, #12]
	mov	w8, w8
	cmp	w8, #63                         // =63
	b.le	.LBB34_6
	b	.LBB34_1
.LBB34_7:                               // %for.end69
	ldp	x20, x19, [sp, #400]            // 16-byte Folded Reload
	ldp	x28, x21, [sp, #384]            // 16-byte Folded Reload
	ldp	x29, x30, [sp, #368]            // 16-byte Folded Reload
	add	sp, sp, #416                    // =416
	ret
.Lfunc_end34:
	.size	forward_DCT_float, .Lfunc_end34-forward_DCT_float
	.cfi_endproc
                                        // -- End function
	.globl	jpeg_make_c_derived_tbl         // -- Begin function jpeg_make_c_derived_tbl
	.p2align	2
	.type	jpeg_make_c_derived_tbl,@function
jpeg_make_c_derived_tbl:                // @jpeg_make_c_derived_tbl
	.cfi_startproc
// %bb.0:                               // %entry
	stp	x29, x30, [sp, #-32]!           // 16-byte Folded Spill
	str	x28, [sp, #16]                  // 8-byte Folded Spill
	mov	x29, sp
	sub	sp, sp, #1344                   // =1344
	.cfi_def_cfa w29, 32
	.cfi_offset w28, -16
	.cfi_offset w30, -24
	.cfi_offset w29, -32
	str	x0, [x29, #24]
	stp	x2, x1, [x29, #-16]
	ldr	x8, [x2]
	cbnz	x8, .LBB35_2
// %bb.1:                               // %if.then
	ldr	x0, [x29, #24]
	mov	w1, #1
	mov	w2, #1280
	ldr	x8, [x0, #8]
	ldr	x8, [x8]
	blr	x8
	ldur	x8, [x29, #-16]
	str	x0, [x8]
.LBB35_2:                               // %if.end
	ldur	x8, [x29, #-16]
	ldr	x9, [x8]
	mov	w8, #1
	stur	wzr, [x29, #-28]
	stur	w8, [x29, #-36]
	stur	x9, [x29, #-24]
	add	x9, sp, #1040                   // =1040
	b	.LBB35_4
.LBB35_3:                               // %for.inc10
                                        //   in Loop: Header=BB35_4 Depth=1
	add	w10, w10, #1                    // =1
	stur	w10, [x29, #-36]
.LBB35_4:                               // %for.cond
                                        // =>This Loop Header: Depth=1
                                        //     Child Loop BB35_6 Depth 2
	ldur	w10, [x29, #-36]
	cmp	w10, #16                        // =16
	b.gt	.LBB35_8
// %bb.5:                               // %for.body
                                        //   in Loop: Header=BB35_4 Depth=1
	stur	w8, [x29, #-32]
.LBB35_6:                               // %for.cond2
                                        //   Parent Loop BB35_4 Depth=1
                                        // =>  This Inner Loop Header: Depth=2
	ldur	x11, [x29, #-8]
	ldp	w10, w12, [x29, #-36]
                                        // kill: def $w10 killed $w10 def $x10
	sxtw	x10, w10
	ldrb	w11, [x11, x10]
	cmp	w12, w11
	b.gt	.LBB35_3
// %bb.7:                               // %for.body5
                                        //   in Loop: Header=BB35_6 Depth=2
	ldp	w12, w11, [x29, #-32]
                                        // kill: def $w11 killed $w11 def $x11
	sxtw	x11, w11
	add	w13, w11, #1                    // =1
	strb	w10, [x9, x11]
	add	w10, w12, #1                    // =1
	stp	w10, w13, [x29, #-32]
	b	.LBB35_6
.LBB35_8:                               // %for.end12
	ldursw	x9, [x29, #-28]
	add	x8, sp, #1040                   // =1040
	str	wzr, [sp, #8]
	stur	wzr, [x29, #-28]
	strb	wzr, [x8, x9]
	ldrb	w10, [sp, #1040]
	stp	w10, w9, [x29, #-44]
	add	x9, sp, #12                     // =12
	ldursw	x10, [x29, #-28]
	ldrb	w10, [x8, x10]
	cbnz	w10, .LBB35_10
	b	.LBB35_12
.LBB35_9:                               // %while.body25
                                        //   in Loop: Header=BB35_10 Depth=1
	ldursw	x11, [x29, #-28]
	ldr	w12, [sp, #8]
	add	w13, w11, #1                    // =1
	str	w10, [x9, x11, lsl #2]
	add	w10, w12, #1                    // =1
	stur	w13, [x29, #-28]
	str	w10, [sp, #8]
.LBB35_10:                              // %while.cond19
                                        // =>This Inner Loop Header: Depth=1
	ldursw	x10, [x29, #-28]
	ldur	w12, [x29, #-44]
	ldrb	w11, [x8, x10]
	ldr	w10, [sp, #8]
	cmp	w11, w12
	b.eq	.LBB35_9
// %bb.11:                              // %while.end
                                        //   in Loop: Header=BB35_10 Depth=1
	ldur	w11, [x29, #-44]
	lsl	w10, w10, #1
	str	w10, [sp, #8]
	add	w10, w11, #1                    // =1
	stur	w10, [x29, #-44]
	ldursw	x10, [x29, #-28]
	ldrb	w10, [x8, x10]
	cbnz	w10, .LBB35_10
.LBB35_12:                              // %while.end31
	ldur	x9, [x29, #-24]
	movi	v0.2d, #0000000000000000
	add	x8, sp, #12                     // =12
	str	q0, [x9, #1264]
	str	q0, [x9, #1248]
	str	q0, [x9, #1232]
	str	q0, [x9, #1216]
	str	q0, [x9, #1200]
	str	q0, [x9, #1184]
	str	q0, [x9, #1168]
	str	q0, [x9, #1152]
	str	q0, [x9, #1136]
	str	q0, [x9, #1120]
	str	q0, [x9, #1104]
	str	q0, [x9, #1088]
	str	q0, [x9, #1072]
	str	q0, [x9, #1056]
	str	q0, [x9, #1040]
	str	q0, [x9, #1024]
	add	x9, sp, #1040                   // =1040
	stur	wzr, [x29, #-28]
	mov	w10, wzr
	ldur	w11, [x29, #-40]
	cmp	w10, w11
	b.ge	.LBB35_14
.LBB35_13:                              // %for.body35
                                        // =>This Inner Loop Header: Depth=1
	ldursw	x10, [x29, #-28]
	ldur	x11, [x29, #-8]
	ldur	x12, [x29, #-24]
	ldr	w13, [x8, x10, lsl #2]
	add	x10, x11, x10
	ldrb	w10, [x10, #17]
	str	w13, [x12, x10, lsl #2]
	ldursw	x10, [x29, #-28]
	ldur	x11, [x29, #-8]
	ldur	x12, [x29, #-24]
	add	x11, x11, x10
	ldrb	w11, [x11, #17]
	ldrb	w10, [x9, x10]
	add	x11, x12, x11
	strb	w10, [x11, #1024]
	ldur	w10, [x29, #-28]
	add	w10, w10, #1                    // =1
	stur	w10, [x29, #-28]
	mov	w10, w10
	ldur	w11, [x29, #-40]
	cmp	w10, w11
	b.lt	.LBB35_13
.LBB35_14:                              // %for.end52
	add	sp, sp, #1344                   // =1344
	ldr	x28, [sp, #16]                  // 8-byte Folded Reload
	ldp	x29, x30, [sp], #32             // 16-byte Folded Reload
	ret
.Lfunc_end35:
	.size	jpeg_make_c_derived_tbl, .Lfunc_end35-jpeg_make_c_derived_tbl
	.cfi_endproc
                                        // -- End function
	.globl	jpeg_gen_optimal_table          // -- Begin function jpeg_gen_optimal_table
	.p2align	2
	.type	jpeg_gen_optimal_table,@function
jpeg_gen_optimal_table:                 // @jpeg_gen_optimal_table
	.cfi_startproc
// %bb.0:                               // %entry
	stp	x29, x30, [sp, #-64]!           // 16-byte Folded Spill
	str	x28, [sp, #16]                  // 8-byte Folded Spill
	stp	x22, x21, [sp, #32]             // 16-byte Folded Spill
	stp	x20, x19, [sp, #48]             // 16-byte Folded Spill
	mov	x29, sp
	sub	sp, sp, #2160                   // =2160
	.cfi_def_cfa w29, 64
	.cfi_offset w19, -8
	.cfi_offset w20, -16
	.cfi_offset w21, -24
	.cfi_offset w22, -32
	.cfi_offset w28, -48
	.cfi_offset w30, -56
	.cfi_offset w29, -64
	sub	x19, x29, #64                   // =64
	stp	x1, x0, [x29, #-16]
	stur	x2, [x29, #-24]
	movi	v0.2d, #0000000000000000
	add	x0, sp, #1068                   // =1068
	mov	w2, #1028
	mov	w1, wzr
	stp	q0, q0, [x19]
	sturb	wzr, [x29, #-32]
	bl	memset
	add	x8, sp, #40                     // =40
	mov	w9, #-1
	str	wzr, [sp, #24]
	mov	w10, wzr
	cmp	w10, #256                       // =256
	b.gt	.LBB36_2
.LBB36_1:                               // %for.body
                                        // =>This Inner Loop Header: Depth=1
	ldrsw	x10, [sp, #24]
	str	w9, [x8, x10, lsl #2]
	add	w10, w10, #1                    // =1
	str	w10, [sp, #24]
	mov	w10, w10
	cmp	w10, #256                       // =256
	b.le	.LBB36_1
.LBB36_2:                               // %for.end
	ldur	x11, [x29, #-24]
	mov	w8, #51712
	mov	w12, #1
	movk	w8, #15258, lsl #16
	mov	w9, #-1
	add	x10, sp, #1068                  // =1068
	str	x12, [x11, #2048]
	add	x11, sp, #40                    // =40
.LBB36_3:                               // %for.cond3
                                        // =>This Loop Header: Depth=1
                                        //     Child Loop BB36_5 Depth 2
                                        //     Child Loop BB36_11 Depth 2
                                        //     Child Loop BB36_18 Depth 2
                                        //     Child Loop BB36_21 Depth 2
	str	w9, [sp, #36]
	str	x8, [sp, #8]
	str	wzr, [sp, #24]
	b	.LBB36_5
.LBB36_4:                               // %for.inc14
                                        //   in Loop: Header=BB36_5 Depth=2
	ldr	w12, [sp, #24]
	add	w12, w12, #1                    // =1
	str	w12, [sp, #24]
.LBB36_5:                               // %for.cond4
                                        //   Parent Loop BB36_3 Depth=1
                                        // =>  This Inner Loop Header: Depth=2
	ldr	w12, [sp, #24]
	cmp	w12, #256                       // =256
	b.gt	.LBB36_9
// %bb.6:                               // %for.body6
                                        //   in Loop: Header=BB36_5 Depth=2
	ldur	x12, [x29, #-24]
	ldrsw	x13, [sp, #24]
	ldr	x12, [x12, x13, lsl #3]
	cbz	x12, .LBB36_4
// %bb.7:                               // %land.lhs.true
                                        //   in Loop: Header=BB36_5 Depth=2
	ldur	x12, [x29, #-24]
	ldrsw	x13, [sp, #24]
	ldr	x12, [x12, x13, lsl #3]
	ldr	x13, [sp, #8]
	cmp	x12, x13
	b.gt	.LBB36_4
// %bb.8:                               // %if.then
                                        //   in Loop: Header=BB36_5 Depth=2
	ldur	x12, [x29, #-24]
	ldrsw	x13, [sp, #24]
	ldr	x12, [x12, x13, lsl #3]
	str	w13, [sp, #36]
	str	x12, [sp, #8]
	b	.LBB36_4
.LBB36_9:                               // %for.end16
                                        //   in Loop: Header=BB36_3 Depth=1
	str	w9, [sp, #32]
	str	x8, [sp, #8]
	str	wzr, [sp, #24]
	b	.LBB36_11
.LBB36_10:                              // %for.inc33
                                        //   in Loop: Header=BB36_11 Depth=2
	ldr	w12, [sp, #24]
	add	w12, w12, #1                    // =1
	str	w12, [sp, #24]
.LBB36_11:                              // %for.cond17
                                        //   Parent Loop BB36_3 Depth=1
                                        // =>  This Inner Loop Header: Depth=2
	ldr	w12, [sp, #24]
	cmp	w12, #256                       // =256
	b.gt	.LBB36_16
// %bb.12:                              // %for.body19
                                        //   in Loop: Header=BB36_11 Depth=2
	ldur	x12, [x29, #-24]
	ldrsw	x13, [sp, #24]
	ldr	x12, [x12, x13, lsl #3]
	cbz	x12, .LBB36_10
// %bb.13:                              // %land.lhs.true23
                                        //   in Loop: Header=BB36_11 Depth=2
	ldur	x12, [x29, #-24]
	ldrsw	x13, [sp, #24]
	ldr	x12, [x12, x13, lsl #3]
	ldr	x13, [sp, #8]
	cmp	x12, x13
	b.gt	.LBB36_10
// %bb.14:                              // %land.lhs.true27
                                        //   in Loop: Header=BB36_11 Depth=2
	ldr	w12, [sp, #24]
	ldr	w13, [sp, #36]
	cmp	w12, w13
	b.eq	.LBB36_10
// %bb.15:                              // %if.then29
                                        //   in Loop: Header=BB36_11 Depth=2
	ldur	x12, [x29, #-24]
	ldrsw	x13, [sp, #24]
	ldr	x12, [x12, x13, lsl #3]
	str	w13, [sp, #32]
	str	x12, [sp, #8]
	b	.LBB36_10
.LBB36_16:                              // %for.end35
                                        //   in Loop: Header=BB36_3 Depth=1
	ldr	w12, [sp, #32]
	tbnz	w12, #31, .LBB36_23
// %bb.17:                              // %if.end38
                                        //   in Loop: Header=BB36_3 Depth=1
	ldpsw	x13, x14, [sp, #32]
	ldur	x12, [x29, #-24]
	lsl	x14, x14, #3
	ldr	x13, [x12, x13, lsl #3]
	ldr	x15, [x12, x14]
	add	x13, x15, x13
	str	x13, [x12, x14]
	ldur	x12, [x29, #-24]
	ldrsw	x13, [sp, #32]
	str	xzr, [x12, x13, lsl #3]
	ldr	w12, [sp, #36]
.LBB36_18:                              // %while.cond
                                        //   Parent Loop BB36_3 Depth=1
                                        // =>  This Inner Loop Header: Depth=2
	ldrsw	x13, [sp, #36]
	sbfiz	x12, x12, #2, #32
	ldr	w14, [x10, x12]
	ldr	w13, [x11, x13, lsl #2]
	add	w14, w14, #1                    // =1
	str	w14, [x10, x12]
	tbnz	w13, #31, .LBB36_20
// %bb.19:                              // %while.body
                                        //   in Loop: Header=BB36_18 Depth=2
	ldrsw	x12, [sp, #36]
	ldr	w12, [x11, x12, lsl #2]
	str	w12, [sp, #36]
	b	.LBB36_18
.LBB36_20:                              // %while.end
                                        //   in Loop: Header=BB36_3 Depth=1
	ldp	w12, w13, [sp, #32]
                                        // kill: def $w13 killed $w13 def $x13
	sxtw	x13, w13
	str	w12, [x11, x13, lsl #2]
.LBB36_21:                              // %while.cond61
                                        //   Parent Loop BB36_3 Depth=1
                                        // =>  This Inner Loop Header: Depth=2
	ldrsw	x13, [sp, #32]
	sbfiz	x12, x12, #2, #32
	ldr	w14, [x10, x12]
	ldr	w13, [x11, x13, lsl #2]
	add	w14, w14, #1                    // =1
	str	w14, [x10, x12]
	tbnz	w13, #31, .LBB36_3
// %bb.22:                              // %while.body65
                                        //   in Loop: Header=BB36_21 Depth=2
	ldrsw	x12, [sp, #32]
	ldr	w12, [x11, x12, lsl #2]
	str	w12, [sp, #32]
	b	.LBB36_21
.LBB36_23:                              // %for.end72
	add	x20, sp, #1068                  // =1068
	mov	w21, #38
	sub	x22, x29, #64                   // =64
	str	wzr, [sp, #24]
	b	.LBB36_26
.LBB36_24:                              // %if.end85
                                        //   in Loop: Header=BB36_26 Depth=1
	ldrsw	x8, [sp, #24]
	ldrsw	x8, [x20, x8, lsl #2]
	ldrb	w9, [x22, x8]
	add	w9, w9, #1                      // =1
	strb	w9, [x22, x8]
.LBB36_25:                              // %for.inc92
                                        //   in Loop: Header=BB36_26 Depth=1
	ldr	w8, [sp, #24]
	add	w8, w8, #1                      // =1
	str	w8, [sp, #24]
.LBB36_26:                              // %for.cond73
                                        // =>This Inner Loop Header: Depth=1
	ldr	w8, [sp, #24]
	cmp	w8, #256                        // =256
	b.gt	.LBB36_30
// %bb.27:                              // %for.body75
                                        //   in Loop: Header=BB36_26 Depth=1
	ldrsw	x8, [sp, #24]
	ldr	w8, [x20, x8, lsl #2]
	cbz	w8, .LBB36_25
// %bb.28:                              // %if.then79
                                        //   in Loop: Header=BB36_26 Depth=1
	ldrsw	x8, [sp, #24]
	ldr	w8, [x20, x8, lsl #2]
	cmp	w8, #33                         // =33
	b.lt	.LBB36_24
// %bb.29:                              // %if.then83
                                        //   in Loop: Header=BB36_26 Depth=1
	ldur	x8, [x29, #-8]
	ldr	x8, [x8]
	str	w21, [x8, #40]
	ldur	x0, [x29, #-8]
	ldr	x8, [x0]
	ldr	x8, [x8]
	blr	x8
	b	.LBB36_24
.LBB36_30:                              // %for.end94
	mov	w8, #32
	str	w8, [sp, #24]
	sub	x8, x29, #64                    // =64
	b	.LBB36_32
.LBB36_31:                              // %for.inc131
                                        //   in Loop: Header=BB36_32 Depth=1
	sub	w9, w9, #1                      // =1
	str	w9, [sp, #24]
.LBB36_32:                              // %for.cond95
                                        // =>This Loop Header: Depth=1
                                        //     Child Loop BB36_34 Depth 2
                                        //       Child Loop BB36_36 Depth 3
	ldr	w9, [sp, #24]
	cmp	w9, #17                         // =17
	b.ge	.LBB36_34
	b	.LBB36_37
.LBB36_33:                              // %while.end111
                                        //   in Loop: Header=BB36_34 Depth=2
	ldpsw	x11, x9, [sp, #20]
	add	x9, x8, x9
	ldrb	w10, [x9]
	ldurb	w12, [x9, #-1]
	sub	w10, w10, #2                    // =2
	strb	w10, [x9]
	add	x10, x11, x8
	add	w11, w12, #1                    // =1
	sturb	w11, [x9, #-1]
	ldrb	w9, [x10, #1]
	ldrb	w11, [x10]
	add	w9, w9, #2                      // =2
	strb	w9, [x10, #1]
	sub	w9, w11, #1                     // =1
	strb	w9, [x10]
.LBB36_34:                              // %while.cond98
                                        //   Parent Loop BB36_32 Depth=1
                                        // =>  This Loop Header: Depth=2
                                        //       Child Loop BB36_36 Depth 3
	ldrsw	x9, [sp, #24]
	ldrb	w10, [x8, x9]
	cmp	w10, #1                         // =1
	b.lt	.LBB36_31
// %bb.35:                              // %while.body103
                                        //   in Loop: Header=BB36_34 Depth=2
	sub	w9, w9, #2                      // =2
	str	w9, [sp, #20]
	ldrsw	x9, [sp, #20]
	ldrb	w9, [x8, x9]
	cbnz	w9, .LBB36_33
.LBB36_36:                              // %while.body110
                                        //   Parent Loop BB36_32 Depth=1
                                        //     Parent Loop BB36_34 Depth=2
                                        // =>    This Inner Loop Header: Depth=3
	ldr	w9, [sp, #20]
	sub	w9, w9, #1                      // =1
	str	w9, [sp, #20]
	ldrsw	x9, [sp, #20]
	ldrb	w9, [x8, x9]
	cbz	w9, .LBB36_36
	b	.LBB36_33
.LBB36_37:
	sub	x8, x29, #64                    // =64
	ldrsw	x9, [sp, #24]
	ldrb	w10, [x8, x9]
	cbnz	w10, .LBB36_39
.LBB36_38:                              // %while.body140
                                        // =>This Inner Loop Header: Depth=1
	sub	w9, w9, #1                      // =1
	str	w9, [sp, #24]
	ldrsw	x9, [sp, #24]
	ldrb	w10, [x8, x9]
	cbz	w10, .LBB36_38
.LBB36_39:                              // %while.end142
	sub	x8, x29, #64                    // =64
	ldrb	w10, [x8, x9]
	ldur	x11, [x29, #-16]
	sub	w10, w10, #1                    // =1
	strb	w10, [x8, x9]
	ldurb	w8, [x29, #-48]
	ldr	q0, [x19]
	mov	w9, #1
	strb	w8, [x11, #16]
	add	x8, sp, #1068                   // =1068
	str	q0, [x11]
	stp	w9, wzr, [sp, #24]
	b	.LBB36_41
.LBB36_40:                              // %for.inc170
                                        //   in Loop: Header=BB36_41 Depth=1
	ldr	w9, [sp, #24]
	add	w9, w9, #1                      // =1
	str	w9, [sp, #24]
.LBB36_41:                              // %for.cond149
                                        // =>This Loop Header: Depth=1
                                        //     Child Loop BB36_44 Depth 2
	ldr	w9, [sp, #24]
	cmp	w9, #32                         // =32
	b.gt	.LBB36_47
// %bb.42:                              // %for.body152
                                        //   in Loop: Header=BB36_41 Depth=1
	str	wzr, [sp, #20]
	b	.LBB36_44
.LBB36_43:                              // %for.inc167
                                        //   in Loop: Header=BB36_44 Depth=2
	ldr	w9, [sp, #20]
	add	w9, w9, #1                      // =1
	str	w9, [sp, #20]
.LBB36_44:                              // %for.cond153
                                        //   Parent Loop BB36_41 Depth=1
                                        // =>  This Inner Loop Header: Depth=2
	ldr	w9, [sp, #20]
	cmp	w9, #255                        // =255
	b.gt	.LBB36_40
// %bb.45:                              // %for.body156
                                        //   in Loop: Header=BB36_44 Depth=2
	ldp	w9, w10, [sp, #20]
                                        // kill: def $w9 killed $w9 def $x9
	sxtw	x9, w9
	ldr	w9, [x8, x9, lsl #2]
	cmp	w9, w10
	b.ne	.LBB36_43
// %bb.46:                              // %if.then161
                                        //   in Loop: Header=BB36_44 Depth=2
	ldur	x9, [x29, #-16]
	ldrsw	x10, [sp, #28]
	ldr	w11, [sp, #20]
	add	x9, x9, x10
	strb	w11, [x9, #17]
	ldr	w9, [sp, #28]
	add	w9, w9, #1                      // =1
	str	w9, [sp, #28]
	b	.LBB36_43
.LBB36_47:                              // %for.end172
	ldur	x8, [x29, #-16]
	str	wzr, [x8, #276]
	add	sp, sp, #2160                   // =2160
	ldp	x20, x19, [sp, #48]             // 16-byte Folded Reload
	ldp	x22, x21, [sp, #32]             // 16-byte Folded Reload
	ldr	x28, [sp, #16]                  // 8-byte Folded Reload
	ldp	x29, x30, [sp], #64             // 16-byte Folded Reload
	ret
.Lfunc_end36:
	.size	jpeg_gen_optimal_table, .Lfunc_end36-jpeg_gen_optimal_table
	.cfi_endproc
                                        // -- End function
	.globl	jinit_huff_encoder              // -- Begin function jinit_huff_encoder
	.p2align	2
	.type	jinit_huff_encoder,@function
jinit_huff_encoder:                     // @jinit_huff_encoder
	.cfi_startproc
// %bb.0:                               // %entry
	sub	sp, sp, #48                     // =48
	stp	x29, x30, [sp, #32]             // 16-byte Folded Spill
	add	x29, sp, #32                    // =32
	.cfi_def_cfa w29, 16
	.cfi_offset w30, -8
	.cfi_offset w29, -16
	stur	x0, [x29, #-8]
	ldr	x8, [x0, #8]
	mov	w1, #1
	mov	w2, #192
	ldr	x8, [x8]
	blr	x8
	ldur	x8, [x29, #-8]
	adrp	x9, start_pass_huff
	str	x0, [sp, #16]
	add	x9, x9, :lo12:start_pass_huff
	str	x0, [x8, #488]
	mov	x8, x0
	str	x9, [x8]
	str	wzr, [sp, #12]
	mov	w8, wzr
	cmp	w8, #3                          // =3
	b.gt	.LBB37_2
.LBB37_1:                               // %for.body
                                        // =>This Inner Loop Header: Depth=1
	ldr	x8, [sp, #16]
	ldrsw	x9, [sp, #12]
	add	x8, x8, x9, lsl #3
	str	xzr, [x8, #96]
	ldr	x8, [sp, #16]
	ldrsw	x9, [sp, #12]
	add	x8, x8, x9, lsl #3
	str	xzr, [x8, #64]
	ldr	x8, [sp, #16]
	ldrsw	x9, [sp, #12]
	add	x8, x8, x9, lsl #3
	str	xzr, [x8, #160]
	ldr	x8, [sp, #16]
	ldrsw	x9, [sp, #12]
	add	x8, x8, x9, lsl #3
	str	xzr, [x8, #128]
	ldr	w8, [sp, #12]
	add	w8, w8, #1                      // =1
	str	w8, [sp, #12]
	mov	w8, w8
	cmp	w8, #3                          // =3
	b.le	.LBB37_1
.LBB37_2:                               // %for.end
	ldp	x29, x30, [sp, #32]             // 16-byte Folded Reload
	add	sp, sp, #48                     // =48
	ret
.Lfunc_end37:
	.size	jinit_huff_encoder, .Lfunc_end37-jinit_huff_encoder
	.cfi_endproc
                                        // -- End function
	.p2align	2                               // -- Begin function start_pass_huff
	.type	start_pass_huff,@function
start_pass_huff:                        // @start_pass_huff
	.cfi_startproc
// %bb.0:                               // %entry
	sub	sp, sp, #80                     // =80
	stp	x29, x30, [sp, #48]             // 16-byte Folded Spill
	str	x19, [sp, #64]                  // 8-byte Folded Spill
	add	x29, sp, #48                    // =48
	.cfi_def_cfa w29, 32
	.cfi_offset w19, -16
	.cfi_offset w30, -24
	.cfi_offset w29, -32
	str	x0, [x29, #24]
	stur	w1, [x29, #-4]
	ldr	x8, [x0, #488]
	stur	x8, [x29, #-16]
	cbz	w1, .LBB38_2
// %bb.1:                               // %if.then
	adrp	x9, encode_mcu_gather
	add	x9, x9, :lo12:encode_mcu_gather
	str	x9, [x8, #8]
	ldur	x8, [x29, #-16]
	adrp	x9, finish_pass_gather
	add	x9, x9, :lo12:finish_pass_gather
	b	.LBB38_3
.LBB38_2:                               // %if.else
	adrp	x9, encode_mcu_huff
	add	x9, x9, :lo12:encode_mcu_huff
	str	x9, [x8, #8]
	ldur	x8, [x29, #-16]
	adrp	x9, finish_pass_huff
	add	x9, x9, :lo12:finish_pass_huff
.LBB38_3:                               // %if.end
	mov	w19, #49
	str	x9, [x8, #16]
	stur	wzr, [x29, #-20]
	b	.LBB38_6
.LBB38_4:                               // %if.end61
                                        //   in Loop: Header=BB38_6 Depth=1
	ldur	x8, [x29, #-16]
	ldrsw	x9, [sp, #20]
	mov	w2, #2056
	mov	w1, wzr
	add	x8, x8, x9, lsl #3
	ldr	x0, [x8, #160]
	bl	memset
.LBB38_5:                               // %if.end76
                                        //   in Loop: Header=BB38_6 Depth=1
	ldur	x8, [x29, #-16]
	ldursw	x9, [x29, #-20]
	add	x8, x8, x9, lsl #2
	str	wzr, [x8, #36]
	ldur	w8, [x29, #-20]
	add	w8, w8, #1                      // =1
	stur	w8, [x29, #-20]
.LBB38_6:                               // %for.cond
                                        // =>This Inner Loop Header: Depth=1
	ldr	x8, [x29, #24]
	ldur	w9, [x29, #-20]
	ldr	w8, [x8, #316]
	cmp	w9, w8
	b.ge	.LBB38_23
// %bb.7:                               // %for.body
                                        //   in Loop: Header=BB38_6 Depth=1
	ldr	x8, [x29, #24]
	ldursw	x9, [x29, #-20]
	add	x8, x8, x9, lsl #3
	ldr	x9, [x8, #320]
	str	x9, [sp, #8]
	ldp	w8, w9, [x9, #20]
	stp	w9, w8, [sp, #20]
	tbnz	w8, #31, .LBB38_11
// %bb.8:                               // %for.body
                                        //   in Loop: Header=BB38_6 Depth=1
	cmp	w8, #3                          // =3
	b.gt	.LBB38_11
// %bb.9:                               // %lor.lhs.false9
                                        //   in Loop: Header=BB38_6 Depth=1
	ldr	x8, [x29, #24]
	ldrsw	x9, [sp, #24]
	add	x8, x8, x9, lsl #3
	ldr	x8, [x8, #120]
	cbnz	x8, .LBB38_12
// %bb.10:                              // %lor.lhs.false9
                                        //   in Loop: Header=BB38_6 Depth=1
	ldur	w8, [x29, #-4]
	cbnz	w8, .LBB38_12
.LBB38_11:                              // %if.then14
                                        //   in Loop: Header=BB38_6 Depth=1
	ldr	x8, [x29, #24]
	ldr	x8, [x8]
	str	w19, [x8, #40]
	ldr	x8, [x29, #24]
	ldr	w9, [sp, #24]
	ldr	x8, [x8]
	str	w9, [x8, #44]
	ldr	x0, [x29, #24]
	ldr	x8, [x0]
	ldr	x8, [x8]
	blr	x8
.LBB38_12:                              // %if.end18
                                        //   in Loop: Header=BB38_6 Depth=1
	ldr	w8, [sp, #20]
	tbnz	w8, #31, .LBB38_16
// %bb.13:                              // %if.end18
                                        //   in Loop: Header=BB38_6 Depth=1
	cmp	w8, #3                          // =3
	b.gt	.LBB38_16
// %bb.14:                              // %lor.lhs.false22
                                        //   in Loop: Header=BB38_6 Depth=1
	ldr	x8, [x29, #24]
	ldrsw	x9, [sp, #20]
	add	x8, x8, x9, lsl #3
	ldr	x8, [x8, #152]
	cbnz	x8, .LBB38_17
// %bb.15:                              // %lor.lhs.false22
                                        //   in Loop: Header=BB38_6 Depth=1
	ldur	w8, [x29, #-4]
	cbnz	w8, .LBB38_17
.LBB38_16:                              // %if.then28
                                        //   in Loop: Header=BB38_6 Depth=1
	ldr	x8, [x29, #24]
	ldr	x8, [x8]
	str	w19, [x8, #40]
	ldr	x8, [x29, #24]
	ldr	w9, [sp, #20]
	ldr	x8, [x8]
	str	w9, [x8, #44]
	ldr	x0, [x29, #24]
	ldr	x8, [x0]
	ldr	x8, [x8]
	blr	x8
.LBB38_17:                              // %if.end37
                                        //   in Loop: Header=BB38_6 Depth=1
	ldur	w8, [x29, #-4]
	cbz	w8, .LBB38_22
// %bb.18:                              // %if.then39
                                        //   in Loop: Header=BB38_6 Depth=1
	ldur	x8, [x29, #-16]
	ldrsw	x9, [sp, #24]
	add	x8, x8, x9, lsl #3
	ldr	x8, [x8, #128]
	cbnz	x8, .LBB38_20
// %bb.19:                              // %if.then43
                                        //   in Loop: Header=BB38_6 Depth=1
	ldr	x0, [x29, #24]
	mov	w1, #1
	mov	w2, #2056
	ldr	x8, [x0, #8]
	ldr	x8, [x8]
	blr	x8
	ldur	x8, [x29, #-16]
	ldrsw	x9, [sp, #24]
	add	x8, x8, x9, lsl #3
	str	x0, [x8, #128]
.LBB38_20:                              // %if.end47
                                        //   in Loop: Header=BB38_6 Depth=1
	ldur	x8, [x29, #-16]
	ldrsw	x9, [sp, #24]
	mov	w2, #2056
	mov	w1, wzr
	add	x8, x8, x9, lsl #3
	ldr	x0, [x8, #128]
	bl	memset
	ldur	x8, [x29, #-16]
	ldrsw	x9, [sp, #20]
	add	x8, x8, x9, lsl #3
	ldr	x8, [x8, #160]
	cbnz	x8, .LBB38_4
// %bb.21:                              // %if.then54
                                        //   in Loop: Header=BB38_6 Depth=1
	ldr	x0, [x29, #24]
	mov	w1, #1
	mov	w2, #2056
	ldr	x8, [x0, #8]
	ldr	x8, [x8]
	blr	x8
	ldur	x8, [x29, #-16]
	ldrsw	x9, [sp, #20]
	add	x8, x8, x9, lsl #3
	str	x0, [x8, #160]
	b	.LBB38_4
.LBB38_22:                              // %if.else65
                                        //   in Loop: Header=BB38_6 Depth=1
	ldrsw	x8, [sp, #24]
	ldr	x0, [x29, #24]
	ldur	x9, [x29, #-16]
	lsl	x8, x8, #3
	add	x10, x0, x8
	ldr	x1, [x10, #120]
	add	x8, x9, x8
	add	x2, x8, #64                     // =64
	bl	jpeg_make_c_derived_tbl
	ldrsw	x8, [sp, #20]
	ldr	x0, [x29, #24]
	ldur	x9, [x29, #-16]
	lsl	x8, x8, #3
	add	x10, x0, x8
	ldr	x1, [x10, #152]
	add	x8, x9, x8
	add	x2, x8, #96                     // =96
	bl	jpeg_make_c_derived_tbl
	b	.LBB38_5
.LBB38_23:                              // %for.end
	ldur	x8, [x29, #-16]
	ldr	x19, [sp, #64]                  // 8-byte Folded Reload
	str	xzr, [x8, #24]
	ldur	x8, [x29, #-16]
	str	wzr, [x8, #32]
	ldr	x8, [x29, #24]
	ldur	x9, [x29, #-16]
	ldr	w8, [x8, #272]
	str	w8, [x9, #56]
	ldur	x8, [x29, #-16]
	ldp	x29, x30, [sp, #48]             // 16-byte Folded Reload
	str	wzr, [x8, #60]
	add	sp, sp, #80                     // =80
	ret
.Lfunc_end38:
	.size	start_pass_huff, .Lfunc_end38-start_pass_huff
	.cfi_endproc
                                        // -- End function
	.p2align	2                               // -- Begin function encode_mcu_gather
	.type	encode_mcu_gather,@function
encode_mcu_gather:                      // @encode_mcu_gather
	.cfi_startproc
// %bb.0:                               // %entry
	sub	sp, sp, #64                     // =64
	stp	x29, x30, [sp, #48]             // 16-byte Folded Spill
	add	x29, sp, #48                    // =48
	.cfi_def_cfa w29, 16
	.cfi_offset w30, -8
	.cfi_offset w29, -16
	stp	x1, x0, [x29, #-16]
	ldr	x8, [x0, #488]
	str	x8, [sp, #24]
	ldr	w8, [x0, #272]
	cbz	w8, .LBB39_7
// %bb.1:                               // %if.then
	ldr	x8, [sp, #24]
	ldr	w8, [x8, #56]
	cbnz	w8, .LBB39_6
// %bb.2:                               // %if.then2
	str	wzr, [sp, #16]
.LBB39_3:                               // %for.cond
                                        // =>This Inner Loop Header: Depth=1
	ldur	x8, [x29, #-8]
	ldr	w9, [sp, #16]
	ldr	w8, [x8, #316]
	cmp	w9, w8
	b.ge	.LBB39_5
// %bb.4:                               // %for.body
                                        //   in Loop: Header=BB39_3 Depth=1
	ldr	x8, [sp, #24]
	ldrsw	x9, [sp, #16]
	add	x8, x8, x9, lsl #2
	str	wzr, [x8, #36]
	ldr	w8, [sp, #16]
	add	w8, w8, #1                      // =1
	str	w8, [sp, #16]
	b	.LBB39_3
.LBB39_5:                               // %for.end
	ldur	x8, [x29, #-8]
	ldr	x9, [sp, #24]
	ldr	w8, [x8, #272]
	str	w8, [x9, #56]
.LBB39_6:                               // %if.end
	ldr	x8, [sp, #24]
	ldr	w9, [x8, #56]
	sub	w9, w9, #1                      // =1
	str	w9, [x8, #56]
.LBB39_7:                               // %if.end7
	str	wzr, [sp, #20]
.LBB39_8:                               // %for.cond8
                                        // =>This Inner Loop Header: Depth=1
	ldur	x8, [x29, #-8]
	ldr	w9, [sp, #20]
	ldr	w8, [x8, #360]
	cmp	w9, w8
	b.ge	.LBB39_10
// %bb.9:                               // %for.body10
                                        //   in Loop: Header=BB39_8 Depth=1
	ldp	x11, x8, [x29, #-16]
	ldrsw	x9, [sp, #20]
	ldr	x12, [sp, #24]
	add	x10, x8, x9, lsl #2
	ldrsw	x10, [x10, #364]
	str	w10, [sp, #16]
	add	x8, x8, x10, lsl #3
	ldr	x8, [x8, #320]
	add	x10, x12, x10, lsl #2
	str	x8, [sp, #8]
	ldr	x0, [x11, x9, lsl #3]
	ldpsw	x9, x8, [x8, #20]
	ldr	w1, [x10, #36]
	add	x9, x12, x9, lsl #3
	add	x8, x12, x8, lsl #3
	ldr	x2, [x9, #128]
	ldr	x3, [x8, #160]
	bl	htest_one_block
	ldur	x8, [x29, #-16]
	ldpsw	x10, x9, [sp, #16]
	ldr	x8, [x8, x9, lsl #3]
	ldr	x9, [sp, #24]
	ldrsh	w8, [x8]
	add	x9, x9, x10, lsl #2
	str	w8, [x9, #36]
	ldr	w8, [sp, #20]
	add	w8, w8, #1                      // =1
	str	w8, [sp, #20]
	b	.LBB39_8
.LBB39_10:                              // %for.end36
	ldp	x29, x30, [sp, #48]             // 16-byte Folded Reload
	mov	w0, #1
	add	sp, sp, #64                     // =64
	ret
.Lfunc_end39:
	.size	encode_mcu_gather, .Lfunc_end39-encode_mcu_gather
	.cfi_endproc
                                        // -- End function
	.p2align	2                               // -- Begin function finish_pass_gather
	.type	finish_pass_gather,@function
finish_pass_gather:                     // @finish_pass_gather
	.cfi_startproc
// %bb.0:                               // %entry
	sub	sp, sp, #128                    // =128
	stp	x29, x30, [sp, #80]             // 16-byte Folded Spill
	str	x21, [sp, #96]                  // 8-byte Folded Spill
	stp	x20, x19, [sp, #112]            // 16-byte Folded Spill
	add	x29, sp, #80                    // =80
	.cfi_def_cfa w29, 48
	.cfi_offset w19, -8
	.cfi_offset w20, -16
	.cfi_offset w21, -32
	.cfi_offset w30, -40
	.cfi_offset w29, -48
	str	x0, [x29, #24]
	ldr	x8, [x0, #488]
	add	x19, sp, #24                    // =24
	add	x20, sp, #8                     // =8
	mov	w21, #1
	stp	xzr, xzr, [sp, #24]
	stp	xzr, xzr, [sp, #8]
	stur	wzr, [x29, #-12]
	stur	x8, [x29, #-8]
	b	.LBB40_3
.LBB40_1:                               // %if.end23
                                        //   in Loop: Header=BB40_3 Depth=1
	ldr	x8, [sp, #40]
	ldur	x9, [x29, #-8]
	ldursw	x10, [x29, #-20]
	ldr	x0, [x29, #24]
	ldr	x1, [x8]
	add	x8, x9, x10, lsl #3
	ldr	x2, [x8, #160]
	bl	jpeg_gen_optimal_table
	ldursw	x8, [x29, #-20]
	str	w21, [x20, x8, lsl #2]
.LBB40_2:                               // %for.inc
                                        //   in Loop: Header=BB40_3 Depth=1
	ldur	w8, [x29, #-12]
	add	w8, w8, #1                      // =1
	stur	w8, [x29, #-12]
.LBB40_3:                               // %for.cond
                                        // =>This Inner Loop Header: Depth=1
	ldr	x8, [x29, #24]
	ldur	w9, [x29, #-12]
	ldr	w8, [x8, #316]
	cmp	w9, w8
	b.ge	.LBB40_11
// %bb.4:                               // %for.body
                                        //   in Loop: Header=BB40_3 Depth=1
	ldr	x8, [x29, #24]
	ldursw	x9, [x29, #-12]
	add	x8, x8, x9, lsl #3
	ldr	x8, [x8, #320]
	stur	x8, [x29, #-32]
	ldp	w9, w8, [x8, #20]
                                        // kill: def $w9 killed $w9 def $x9
	sxtw	x9, w9
	stp	w8, w9, [x29, #-20]
	ldr	w9, [x19, x9, lsl #2]
	cbz	w9, .LBB40_6
// %bb.5:                               // %if.end13
                                        //   in Loop: Header=BB40_3 Depth=1
	ldursw	x8, [x29, #-20]
	ldr	w8, [x20, x8, lsl #2]
	cbnz	w8, .LBB40_2
	b	.LBB40_9
.LBB40_6:                               // %if.then
                                        //   in Loop: Header=BB40_3 Depth=1
	ldr	x8, [x29, #24]
	ldursw	x9, [x29, #-16]
	add	x8, x8, x9, lsl #3
	add	x9, x8, #120                    // =120
	str	x9, [sp, #40]
	ldr	x8, [x8, #120]
	cbnz	x8, .LBB40_8
// %bb.7:                               // %if.then8
                                        //   in Loop: Header=BB40_3 Depth=1
	ldr	x0, [x29, #24]
	bl	jpeg_alloc_huff_table
	ldr	x8, [sp, #40]
	str	x0, [x8]
.LBB40_8:                               // %if.end
                                        //   in Loop: Header=BB40_3 Depth=1
	ldr	x8, [sp, #40]
	ldur	x9, [x29, #-8]
	ldursw	x10, [x29, #-16]
	ldr	x0, [x29, #24]
	ldr	x1, [x8]
	add	x8, x9, x10, lsl #3
	ldr	x2, [x8, #128]
	bl	jpeg_gen_optimal_table
	ldursw	x8, [x29, #-16]
	str	w21, [x19, x8, lsl #2]
	ldursw	x8, [x29, #-20]
	ldr	w8, [x20, x8, lsl #2]
	cbnz	w8, .LBB40_2
.LBB40_9:                               // %if.then17
                                        //   in Loop: Header=BB40_3 Depth=1
	ldr	x8, [x29, #24]
	ldursw	x9, [x29, #-20]
	add	x8, x8, x9, lsl #3
	add	x9, x8, #152                    // =152
	str	x9, [sp, #40]
	ldr	x8, [x8, #152]
	cbnz	x8, .LBB40_1
// %bb.10:                              // %if.then21
                                        //   in Loop: Header=BB40_3 Depth=1
	ldr	x0, [x29, #24]
	bl	jpeg_alloc_huff_table
	ldr	x8, [sp, #40]
	str	x0, [x8]
	b	.LBB40_1
.LBB40_11:                              // %for.end
	ldp	x20, x19, [sp, #112]            // 16-byte Folded Reload
	ldr	x21, [sp, #96]                  // 8-byte Folded Reload
	ldp	x29, x30, [sp, #80]             // 16-byte Folded Reload
	add	sp, sp, #128                    // =128
	ret
.Lfunc_end40:
	.size	finish_pass_gather, .Lfunc_end40-finish_pass_gather
	.cfi_endproc
                                        // -- End function
	.p2align	2                               // -- Begin function encode_mcu_huff
	.type	encode_mcu_huff,@function
encode_mcu_huff:                        // @encode_mcu_huff
	.cfi_startproc
// %bb.0:                               // %entry
	sub	sp, sp, #144                    // =144
	stp	x29, x30, [sp, #112]            // 16-byte Folded Spill
	str	x19, [sp, #128]                 // 8-byte Folded Spill
	add	x29, sp, #112                   // =112
	.cfi_def_cfa w29, 32
	.cfi_offset w19, -16
	.cfi_offset w30, -24
	.cfi_offset w29, -32
	stp	x1, x0, [x29, #-16]
	ldr	x8, [x0, #488]
	stur	x8, [x29, #-24]
	ldr	x9, [x0, #32]
	ldr	x10, [x9]
	ldr	x9, [x0, #32]
	ldr	x9, [x9, #8]
	stp	x10, x9, [sp, #32]
	ldur	q0, [x8, #40]
	ldur	q1, [x8, #24]
	mov	x8, x0
	mov	x9, x0
	str	x8, [sp, #80]
	stp	q1, q0, [sp, #48]
	ldr	w8, [x9, #272]
	cbz	w8, .LBB41_3
// %bb.1:                               // %if.then
	ldur	x8, [x29, #-24]
	ldr	w8, [x8, #56]
	cbnz	w8, .LBB41_3
// %bb.2:                               // %if.then6
	ldur	x8, [x29, #-24]
	add	x0, sp, #32                     // =32
	ldr	w1, [x8, #60]
	bl	emit_restart
	cbz	w0, .LBB41_7
.LBB41_3:                               // %if.end10
	add	x19, sp, #32                    // =32
	str	wzr, [x29, #24]
.LBB41_4:                               // %for.cond
                                        // =>This Inner Loop Header: Depth=1
	ldur	x8, [x29, #-8]
	ldr	w9, [x29, #24]
	ldr	w8, [x8, #360]
	cmp	w9, w8
	b.ge	.LBB41_8
// %bb.5:                               // %for.body
                                        //   in Loop: Header=BB41_4 Depth=1
	ldp	x11, x8, [x29, #-16]
	ldrsw	x9, [x29, #24]
	ldur	x12, [x29, #-24]
	add	x0, sp, #32                     // =32
	add	x10, x8, x9, lsl #2
	ldrsw	x10, [x10, #364]
	str	w10, [sp, #28]
	add	x8, x8, x10, lsl #3
	ldr	x8, [x8, #320]
	add	x10, x19, x10, lsl #2
	ldr	w2, [x10, #28]
	str	x8, [sp, #16]
	ldr	x1, [x11, x9, lsl #3]
	ldpsw	x9, x8, [x8, #20]
	add	x9, x12, x9, lsl #3
	add	x8, x12, x8, lsl #3
	ldr	x3, [x9, #64]
	ldr	x4, [x8, #96]
	bl	encode_one_block
	cbz	w0, .LBB41_7
// %bb.6:                               // %if.end27
                                        //   in Loop: Header=BB41_4 Depth=1
	ldur	x8, [x29, #-16]
	ldrsw	x9, [x29, #24]
	ldrsw	x10, [sp, #28]
	ldr	x8, [x8, x9, lsl #3]
	add	x10, x19, x10, lsl #2
	add	w9, w9, #1                      // =1
	ldrsh	w8, [x8]
	str	w9, [x29, #24]
	str	w8, [x10, #28]
	b	.LBB41_4
.LBB41_7:                               // %if.then8
	str	wzr, [x29, #28]
	mov	w8, #1
	b	.LBB41_13
.LBB41_8:                               // %for.end
	ldur	x8, [x29, #-8]
	ldr	x9, [sp, #32]
	ldr	x8, [x8, #32]
	str	x9, [x8]
	ldur	x8, [x29, #-8]
	ldr	x9, [sp, #40]
	ldr	x8, [x8, #32]
	str	x9, [x8, #8]
	ldur	x8, [x29, #-24]
	ldp	q1, q0, [sp, #48]
	stur	q0, [x8, #40]
	stur	q1, [x8, #24]
	ldur	x8, [x29, #-8]
	ldr	w8, [x8, #272]
	cbz	w8, .LBB41_12
// %bb.9:                               // %if.then46
	ldur	x8, [x29, #-24]
	ldr	w8, [x8, #56]
	cbnz	w8, .LBB41_11
// %bb.10:                              // %if.then50
	ldur	x8, [x29, #-8]
	ldur	x9, [x29, #-24]
	ldr	w8, [x8, #272]
	str	w8, [x9, #56]
	ldur	x8, [x29, #-24]
	ldr	w9, [x8, #60]
	add	w9, w9, #1                      // =1
	str	w9, [x8, #60]
	ldur	x8, [x29, #-24]
	ldr	w9, [x8, #60]
	and	w9, w9, #0x7
	str	w9, [x8, #60]
.LBB41_11:                              // %if.end56
	ldur	x8, [x29, #-24]
	ldr	w9, [x8, #56]
	sub	w9, w9, #1                      // =1
	str	w9, [x8, #56]
.LBB41_12:                              // %if.end58
	mov	w8, #1
	str	w8, [x29, #28]
.LBB41_13:                              // %cleanup
	ldr	w0, [x29, #28]
	ldr	x19, [sp, #128]                 // 8-byte Folded Reload
	ldp	x29, x30, [sp, #112]            // 16-byte Folded Reload
	str	w8, [sp, #12]
	add	sp, sp, #144                    // =144
	ret
.Lfunc_end41:
	.size	encode_mcu_huff, .Lfunc_end41-encode_mcu_huff
	.cfi_endproc
                                        // -- End function
	.p2align	2                               // -- Begin function finish_pass_huff
	.type	finish_pass_huff,@function
finish_pass_huff:                       // @finish_pass_huff
	.cfi_startproc
// %bb.0:                               // %entry
	sub	sp, sp, #96                     // =96
	stp	x29, x30, [sp, #80]             // 16-byte Folded Spill
	add	x29, sp, #80                    // =80
	.cfi_def_cfa w29, 16
	.cfi_offset w30, -8
	.cfi_offset w29, -16
	ldr	x8, [x0, #488]
	stp	x8, x0, [x29, #-16]
	ldr	x9, [x0, #32]
	ldr	x10, [x9]
	ldr	x9, [x0, #32]
	ldr	x9, [x9, #8]
	stp	x10, x9, [sp, #8]
	ldur	q0, [x8, #24]
	ldur	q1, [x8, #40]
	str	x0, [sp, #56]
	add	x0, sp, #8                      // =8
	stur	q0, [sp, #24]
	stur	q1, [sp, #40]
	bl	flush_bits
	cbnz	w0, .LBB42_2
// %bb.1:                               // %if.then
	ldur	x8, [x29, #-8]
	mov	w9, #22
	ldr	x8, [x8]
	str	w9, [x8, #40]
	ldur	x0, [x29, #-8]
	ldr	x8, [x0]
	ldr	x8, [x8]
	blr	x8
.LBB42_2:                               // %if.end
	ldur	x8, [x29, #-8]
	ldr	x9, [sp, #8]
	ldr	x8, [x8, #32]
	str	x9, [x8]
	ldur	x8, [x29, #-8]
	ldr	x9, [sp, #16]
	ldr	x8, [x8, #32]
	str	x9, [x8, #8]
	ldur	x8, [x29, #-16]
	ldur	q0, [sp, #40]
	ldur	q1, [sp, #24]
	ldp	x29, x30, [sp, #80]             // 16-byte Folded Reload
	stur	q0, [x8, #40]
	stur	q1, [x8, #24]
	add	sp, sp, #96                     // =96
	ret
.Lfunc_end42:
	.size	finish_pass_huff, .Lfunc_end42-finish_pass_huff
	.cfi_endproc
                                        // -- End function
	.p2align	2                               // -- Begin function flush_bits
	.type	flush_bits,@function
flush_bits:                             // @flush_bits
	.cfi_startproc
// %bb.0:                               // %entry
	sub	sp, sp, #32                     // =32
	stp	x29, x30, [sp, #16]             // 16-byte Folded Spill
	add	x29, sp, #16                    // =16
	.cfi_def_cfa w29, 16
	.cfi_offset w30, -8
	.cfi_offset w29, -16
	mov	w1, #127
	mov	w2, #7
	str	x0, [sp]
	bl	emit_bits
	cbz	w0, .LBB43_2
// %bb.1:                               // %if.end
	ldr	x8, [sp]
	mov	w9, #1
	str	xzr, [x8, #16]
	ldr	x8, [sp]
	str	wzr, [x8, #24]
	stur	w9, [x29, #-4]
	mov	w0, w9
	ldp	x29, x30, [sp, #16]             // 16-byte Folded Reload
	add	sp, sp, #32                     // =32
	ret
.LBB43_2:                               // %if.then
	stur	wzr, [x29, #-4]
	mov	w0, wzr
	ldp	x29, x30, [sp, #16]             // 16-byte Folded Reload
	add	sp, sp, #32                     // =32
	ret
.Lfunc_end43:
	.size	flush_bits, .Lfunc_end43-flush_bits
	.cfi_endproc
                                        // -- End function
	.p2align	2                               // -- Begin function emit_bits
	.type	emit_bits,@function
emit_bits:                              // @emit_bits
	.cfi_startproc
// %bb.0:                               // %entry
	sub	sp, sp, #80                     // =80
	stp	x29, x30, [sp, #48]             // 16-byte Folded Spill
	str	x19, [sp, #64]                  // 8-byte Folded Spill
	add	x29, sp, #48                    // =48
	.cfi_def_cfa w29, 32
	.cfi_offset w19, -16
	.cfi_offset w30, -24
	.cfi_offset w29, -32
	mov	w8, w1
	stur	x0, [x29, #-8]
	str	w1, [x29, #24]
	stur	w2, [x29, #-12]
	str	x8, [sp, #24]
	ldr	w8, [x0, #24]
	str	w8, [sp, #20]
	cbnz	w2, .LBB44_2
// %bb.1:                               // %if.then
	ldur	x8, [x29, #-8]
	mov	w9, #39
	ldr	x8, [x8, #48]
	ldr	x8, [x8]
	str	w9, [x8, #40]
	ldur	x8, [x29, #-8]
	ldr	x0, [x8, #48]
	ldr	x8, [x0]
	ldr	x8, [x8]
	blr	x8
.LBB44_2:                               // %if.end
	ldur	w8, [x29, #-12]
	ldr	w9, [sp, #20]
	ldr	x10, [sp, #24]
	mov	w19, #1
	mov	w11, #24
	add	w9, w9, w8
	lsl	x8, x19, x8
	sub	x8, x8, #1                      // =1
	and	x8, x10, x8
	ldur	x10, [x29, #-8]
	str	w9, [sp, #20]
	sub	w9, w11, w9
	lsl	x8, x8, x9
	str	x8, [sp, #24]
	ldr	x9, [x10, #16]
	orr	x8, x8, x9
	str	x8, [sp, #24]
	b	.LBB44_4
.LBB44_3:                               // %if.end37
                                        //   in Loop: Header=BB44_4 Depth=1
	ldr	x8, [sp, #24]
	ldr	w9, [sp, #20]
	str	wzr, [sp, #12]
	lsl	x8, x8, #8
	sub	w9, w9, #8                      // =8
	str	x8, [sp, #24]
	str	w9, [sp, #20]
	mov	w8, wzr
	cbnz	w8, .LBB44_12
.LBB44_4:                               // %while.cond
                                        // =>This Inner Loop Header: Depth=1
	ldr	w8, [sp, #20]
	cmp	w8, #8                          // =8
	b.lt	.LBB44_11
// %bb.5:                               // %while.body
                                        //   in Loop: Header=BB44_4 Depth=1
	ldrb	w8, [sp, #26]
	ldur	x9, [x29, #-8]
	str	w8, [sp, #16]
	ldr	x10, [x9]
	add	x11, x10, #1                    // =1
	str	x11, [x9]
	strb	w8, [x10]
	ldur	x8, [x29, #-8]
	ldr	x9, [x8, #8]
	subs	x9, x9, #1                      // =1
	str	x9, [x8, #8]
	b.ne	.LBB44_7
// %bb.6:                               // %if.then18
                                        //   in Loop: Header=BB44_4 Depth=1
	ldur	x0, [x29, #-8]
	bl	dump_buffer
	cbz	w0, .LBB44_10
.LBB44_7:                               // %if.end21
                                        //   in Loop: Header=BB44_4 Depth=1
	ldr	w8, [sp, #16]
	cmp	w8, #255                        // =255
	b.ne	.LBB44_3
// %bb.8:                               // %if.then24
                                        //   in Loop: Header=BB44_4 Depth=1
	ldur	x8, [x29, #-8]
	ldr	x9, [x8]
	add	x10, x9, #1                     // =1
	str	x10, [x8]
	strb	wzr, [x9]
	ldur	x8, [x29, #-8]
	ldr	x9, [x8, #8]
	subs	x9, x9, #1                      // =1
	str	x9, [x8, #8]
	b.ne	.LBB44_3
// %bb.9:                               // %if.then31
                                        //   in Loop: Header=BB44_4 Depth=1
	ldur	x0, [x29, #-8]
	bl	dump_buffer
	cbnz	w0, .LBB44_3
.LBB44_10:                              // %if.then19
                                        //   in Loop: Header=BB44_4 Depth=1
	str	wzr, [x29, #28]
	str	w19, [sp, #12]
	mov	w8, w19
	cbz	w8, .LBB44_4
	b	.LBB44_12
.LBB44_11:                              // %while.end
	ldr	x8, [sp, #24]
	ldur	x9, [x29, #-8]
	mov	w10, #1
	str	x8, [x9, #16]
	ldr	w8, [sp, #20]
	ldur	x9, [x29, #-8]
	str	w8, [x9, #24]
	str	w10, [x29, #28]
	str	w10, [sp, #12]
.LBB44_12:                              // %cleanup44
	ldr	w0, [x29, #28]
	ldr	x19, [sp, #64]                  // 8-byte Folded Reload
	ldp	x29, x30, [sp, #48]             // 16-byte Folded Reload
	add	sp, sp, #80                     // =80
	ret
.Lfunc_end44:
	.size	emit_bits, .Lfunc_end44-emit_bits
	.cfi_endproc
                                        // -- End function
	.p2align	2                               // -- Begin function dump_buffer
	.type	dump_buffer,@function
dump_buffer:                            // @dump_buffer
	.cfi_startproc
// %bb.0:                               // %entry
	sub	sp, sp, #48                     // =48
	stp	x29, x30, [sp, #32]             // 16-byte Folded Spill
	add	x29, sp, #32                    // =32
	.cfi_def_cfa w29, 16
	.cfi_offset w30, -8
	.cfi_offset w29, -16
	ldr	x8, [x0, #48]
	ldr	x8, [x8, #32]
	stp	x8, x0, [sp, #8]
	ldr	x8, [x8, #24]
	ldr	x0, [x0, #48]
	blr	x8
	cbz	w0, .LBB45_2
// %bb.1:                               // %if.end
	ldp	x8, x9, [sp, #8]
	mov	w10, #1
	ldr	x8, [x8]
	str	x8, [x9]
	ldp	x8, x9, [sp, #8]
	ldr	x8, [x8, #8]
	str	x8, [x9, #8]
	stur	w10, [x29, #-4]
	str	w10, [sp, #4]
	mov	w0, w10
	ldp	x29, x30, [sp, #32]             // 16-byte Folded Reload
	add	sp, sp, #48                     // =48
	ret
.LBB45_2:                               // %if.then
	mov	w8, #1
	stur	wzr, [x29, #-4]
	str	w8, [sp, #4]
	mov	w0, wzr
	ldp	x29, x30, [sp, #32]             // 16-byte Folded Reload
	add	sp, sp, #48                     // =48
	ret
.Lfunc_end45:
	.size	dump_buffer, .Lfunc_end45-dump_buffer
	.cfi_endproc
                                        // -- End function
	.p2align	2                               // -- Begin function emit_restart
	.type	emit_restart,@function
emit_restart:                           // @emit_restart
	.cfi_startproc
// %bb.0:                               // %entry
	sub	sp, sp, #48                     // =48
	stp	x29, x30, [sp, #32]             // 16-byte Folded Spill
	add	x29, sp, #32                    // =32
	.cfi_def_cfa w29, 16
	.cfi_offset w30, -8
	.cfi_offset w29, -16
	str	x0, [sp, #16]
	str	w1, [sp, #12]
	bl	flush_bits
	cbz	w0, .LBB46_8
// %bb.1:                               // %if.end
	ldr	x8, [sp, #16]
	mov	w10, #255
	ldr	x9, [x8]
	add	x11, x9, #1                     // =1
	str	x11, [x8]
	strb	w10, [x9]
	ldr	x8, [sp, #16]
	ldr	x9, [x8, #8]
	subs	x9, x9, #1                      // =1
	str	x9, [x8, #8]
	b.ne	.LBB46_3
// %bb.2:                               // %if.then1
	ldr	x0, [sp, #16]
	bl	dump_buffer
	cbz	w0, .LBB46_8
.LBB46_3:                               // %if.end6
	ldr	x8, [sp, #16]
	ldr	w9, [sp, #12]
	ldr	x10, [x8]
	add	w9, w9, #208                    // =208
	add	x11, x10, #1                    // =1
	str	x11, [x8]
	strb	w9, [x10]
	ldr	x8, [sp, #16]
	ldr	x9, [x8, #8]
	subs	x9, x9, #1                      // =1
	str	x9, [x8, #8]
	b.ne	.LBB46_5
// %bb.4:                               // %if.then13
	ldr	x0, [sp, #16]
	bl	dump_buffer
	cbz	w0, .LBB46_8
.LBB46_5:                               // %if.end18
	str	wzr, [sp, #8]
.LBB46_6:                               // %for.cond
                                        // =>This Inner Loop Header: Depth=1
	ldr	x8, [sp, #16]
	ldr	w9, [sp, #8]
	ldr	x8, [x8, #48]
	ldr	w8, [x8, #316]
	cmp	w9, w8
	b.ge	.LBB46_9
// %bb.7:                               // %for.body
                                        //   in Loop: Header=BB46_6 Depth=1
	ldr	x8, [sp, #16]
	ldrsw	x9, [sp, #8]
	add	x8, x8, x9, lsl #2
	str	wzr, [x8, #28]
	ldr	w8, [sp, #8]
	add	w8, w8, #1                      // =1
	str	w8, [sp, #8]
	b	.LBB46_6
.LBB46_8:                               // %if.then
	stur	wzr, [x29, #-4]
	mov	w8, #1
	b	.LBB46_10
.LBB46_9:                               // %for.end
	mov	w8, #1
	stur	w8, [x29, #-4]
.LBB46_10:                              // %cleanup
	ldur	w0, [x29, #-4]
	ldp	x29, x30, [sp, #32]             // 16-byte Folded Reload
	str	w8, [sp, #4]
	add	sp, sp, #48                     // =48
	ret
.Lfunc_end46:
	.size	emit_restart, .Lfunc_end46-emit_restart
	.cfi_endproc
                                        // -- End function
	.p2align	2                               // -- Begin function encode_one_block
	.type	encode_one_block,@function
encode_one_block:                       // @encode_one_block
	.cfi_startproc
// %bb.0:                               // %entry
	sub	sp, sp, #112                    // =112
	stp	x29, x30, [sp, #80]             // 16-byte Folded Spill
	stp	x20, x19, [sp, #96]             // 16-byte Folded Spill
	add	x29, sp, #80                    // =80
	.cfi_def_cfa w29, 32
	.cfi_offset w19, -8
	.cfi_offset w20, -16
	.cfi_offset w30, -24
	.cfi_offset w29, -32
	stp	x1, x0, [x29, #-24]
	stur	w2, [x29, #-28]
	stp	x4, x3, [sp, #32]
	ldrsh	w8, [x1]
	subs	w8, w8, w2
	stp	w8, w8, [sp, #24]
	b.pl	.LBB47_2
// %bb.1:                               // %if.then
	ldp	w9, w8, [sp, #24]
	neg	w8, w8
	sub	w9, w9, #1                      // =1
	stp	w9, w8, [sp, #24]
.LBB47_2:                               // %if.end
	str	wzr, [sp, #20]
	ldr	w8, [sp, #28]
	cbz	w8, .LBB47_4
.LBB47_3:                               // %while.body
                                        // =>This Inner Loop Header: Depth=1
	ldr	w8, [sp, #20]
	ldr	w9, [sp, #28]
	add	w8, w8, #1                      // =1
	asr	w9, w9, #1
	str	w8, [sp, #20]
	str	w9, [sp, #28]
	mov	w8, w9
	cbnz	w8, .LBB47_3
.LBB47_4:                               // %while.end
	ldr	x8, [sp, #40]
	ldrsw	x9, [sp, #20]
	ldur	x0, [x29, #-16]
	ldr	w1, [x8, x9, lsl #2]
	add	x8, x8, x9
	ldrb	w2, [x8, #1024]
	bl	emit_bits
	cbz	w0, .LBB47_24
// %bb.5:                               // %if.end9
	ldr	w8, [sp, #20]
	cbz	w8, .LBB47_7
// %bb.6:                               // %if.then11
	ldur	x0, [x29, #-16]
	ldp	w2, w1, [sp, #20]
	bl	emit_bits
	cbz	w0, .LBB47_24
.LBB47_7:                               // %if.end16
	adrp	x20, jpeg_natural_order
	mov	w19, #1
	add	x20, x20, :lo12:jpeg_natural_order
	stp	wzr, w19, [sp, #12]
	ldr	w8, [sp, #16]
	cmp	w8, #63                         // =63
	b.gt	.LBB47_21
.LBB47_8:                               // %for.body
                                        // =>This Loop Header: Depth=1
                                        //     Child Loop BB47_10 Depth 2
                                        //     Child Loop BB47_15 Depth 2
	ldrsw	x8, [sp, #16]
	ldur	x9, [x29, #-24]
	ldrsw	x8, [x20, x8, lsl #2]
	ldrsh	w8, [x9, x8, lsl #1]
	str	w8, [sp, #28]
	cbz	w8, .LBB47_19
// %bb.9:                               // %while.cond28
                                        //   in Loop: Header=BB47_8 Depth=1
	ldr	w8, [sp, #12]
	cmp	w8, #16                         // =16
	b.lt	.LBB47_12
.LBB47_10:                              // %while.body31
                                        //   Parent Loop BB47_8 Depth=1
                                        // =>  This Inner Loop Header: Depth=2
	ldr	x8, [sp, #32]
	ldur	x0, [x29, #-16]
	ldr	w1, [x8, #960]
	ldrb	w2, [x8, #1264]
	bl	emit_bits
	cbz	w0, .LBB47_24
// %bb.11:                              // %if.end40
                                        //   in Loop: Header=BB47_10 Depth=2
	ldr	w8, [sp, #12]
	sub	w8, w8, #16                     // =16
	str	w8, [sp, #12]
	mov	w8, w8
	cmp	w8, #16                         // =16
	b.ge	.LBB47_10
.LBB47_12:                              // %while.end42
                                        //   in Loop: Header=BB47_8 Depth=1
	ldr	w8, [sp, #28]
	str	w8, [sp, #24]
	tbz	w8, #31, .LBB47_14
// %bb.13:                              // %if.then45
                                        //   in Loop: Header=BB47_8 Depth=1
	ldp	w9, w8, [sp, #24]
	neg	w8, w8
	sub	w9, w9, #1                      // =1
	stp	w9, w8, [sp, #24]
.LBB47_14:                              // %if.end48
                                        //   in Loop: Header=BB47_8 Depth=1
	str	w19, [sp, #20]
	ldr	w8, [sp, #28]
	asr	w8, w8, #1
	str	w8, [sp, #28]
	cbz	w8, .LBB47_16
.LBB47_15:                              // %while.body52
                                        //   Parent Loop BB47_8 Depth=1
                                        // =>  This Inner Loop Header: Depth=2
	ldr	w8, [sp, #20]
	add	w8, w8, #1                      // =1
	str	w8, [sp, #20]
	ldr	w8, [sp, #28]
	asr	w8, w8, #1
	str	w8, [sp, #28]
	cbnz	w8, .LBB47_15
.LBB47_16:                              // %while.end54
                                        //   in Loop: Header=BB47_8 Depth=1
	ldr	w8, [sp, #12]
	ldr	w9, [sp, #20]
	ldr	x10, [sp, #32]
	ldur	x0, [x29, #-16]
	add	w8, w9, w8, lsl #4
	str	w8, [sp, #8]
	add	x9, x10, w8, sxtw
	ldr	w1, [x10, w8, sxtw #2]
	ldrb	w2, [x9, #1024]
	bl	emit_bits
	cbz	w0, .LBB47_24
// %bb.17:                              // %if.end65
                                        //   in Loop: Header=BB47_8 Depth=1
	ldur	x0, [x29, #-16]
	ldp	w2, w1, [sp, #20]
	bl	emit_bits
	cbz	w0, .LBB47_24
// %bb.18:                              // %if.end69
                                        //   in Loop: Header=BB47_8 Depth=1
	str	wzr, [sp, #12]
	b	.LBB47_20
.LBB47_19:                              // %if.then26
                                        //   in Loop: Header=BB47_8 Depth=1
	ldr	w8, [sp, #12]
	add	w8, w8, #1                      // =1
	str	w8, [sp, #12]
.LBB47_20:                              // %for.inc
                                        //   in Loop: Header=BB47_8 Depth=1
	ldr	w8, [sp, #16]
	add	w8, w8, #1                      // =1
	str	w8, [sp, #16]
	mov	w8, w8
	cmp	w8, #63                         // =63
	b.le	.LBB47_8
.LBB47_21:                              // %for.end
	ldr	w8, [sp, #12]
	cmp	w8, #1                          // =1
	b.lt	.LBB47_23
// %bb.22:                              // %if.then74
	ldr	x8, [sp, #32]
	ldur	x0, [x29, #-16]
	ldr	w1, [x8]
	ldrb	w2, [x8, #1024]
	bl	emit_bits
	cbz	w0, .LBB47_24
.LBB47_23:                              // %if.end84
	mov	w8, #1
	stur	w8, [x29, #-4]
	b	.LBB47_25
.LBB47_24:                              // %if.then8
	stur	wzr, [x29, #-4]
	mov	w8, #1
.LBB47_25:                              // %cleanup
	ldur	w0, [x29, #-4]
	ldp	x20, x19, [sp, #96]             // 16-byte Folded Reload
	ldp	x29, x30, [sp, #80]             // 16-byte Folded Reload
	str	w8, [sp, #4]
	add	sp, sp, #112                    // =112
	ret
.Lfunc_end47:
	.size	encode_one_block, .Lfunc_end47-encode_one_block
	.cfi_endproc
                                        // -- End function
	.p2align	2                               // -- Begin function htest_one_block
	.type	htest_one_block,@function
htest_one_block:                        // @htest_one_block
	.cfi_startproc
// %bb.0:                               // %entry
	sub	sp, sp, #48                     // =48
	.cfi_def_cfa_offset 48
	str	x0, [sp, #40]
	str	w1, [sp, #36]
	stp	x3, x2, [sp, #16]
	ldrsh	w8, [x0]
	subs	w8, w8, w1
	str	w8, [sp, #12]
	b.pl	.LBB48_2
// %bb.1:                               // %if.then
	ldr	w8, [sp, #12]
	neg	w8, w8
	str	w8, [sp, #12]
.LBB48_2:                               // %if.end
	str	wzr, [sp, #8]
	ldr	w8, [sp, #12]
	cbz	w8, .LBB48_4
.LBB48_3:                               // %while.body
                                        // =>This Inner Loop Header: Depth=1
	ldp	w8, w9, [sp, #8]
	add	w8, w8, #1                      // =1
	asr	w9, w9, #1
	stp	w8, w9, [sp, #8]
	ldr	w8, [sp, #12]
	cbnz	w8, .LBB48_3
.LBB48_4:                               // %while.end
	ldrsw	x8, [sp, #8]
	ldr	x9, [sp, #24]
	lsl	x10, x8, #3
	ldr	x11, [x9, x10]
	mov	w8, #1
	add	x11, x11, #1                    // =1
	str	x11, [x9, x10]
	adrp	x9, jpeg_natural_order
	add	x9, x9, :lo12:jpeg_natural_order
	stp	wzr, w8, [sp]
	b	.LBB48_7
.LBB48_5:                               // %while.end34
                                        //   in Loop: Header=BB48_7 Depth=1
	ldr	w10, [sp]
	ldr	w11, [sp, #8]
	ldr	x12, [sp, #16]
	add	w10, w11, w10, lsl #4
	sbfiz	x10, x10, #3, #32
	ldr	x11, [x12, x10]
	add	x11, x11, #1                    // =1
	str	x11, [x12, x10]
	str	wzr, [sp]
.LBB48_6:                               // %for.inc
                                        //   in Loop: Header=BB48_7 Depth=1
	ldr	w10, [sp, #4]
	add	w10, w10, #1                    // =1
	str	w10, [sp, #4]
.LBB48_7:                               // %for.cond
                                        // =>This Loop Header: Depth=1
                                        //     Child Loop BB48_10 Depth 2
                                        //     Child Loop BB48_14 Depth 2
	ldr	w10, [sp, #4]
	cmp	w10, #63                        // =63
	b.gt	.LBB48_16
// %bb.8:                               // %for.body
                                        //   in Loop: Header=BB48_7 Depth=1
	ldrsw	x10, [sp, #4]
	ldr	x11, [sp, #40]
	ldrsw	x10, [x9, x10, lsl #2]
	ldrsh	w10, [x11, x10, lsl #1]
	str	w10, [sp, #12]
	cbz	w10, .LBB48_15
// %bb.9:                               // %while.cond16
                                        //   in Loop: Header=BB48_7 Depth=1
	ldr	w10, [sp]
	cmp	w10, #16                        // =16
	b.lt	.LBB48_11
.LBB48_10:                              // %while.body19
                                        //   Parent Loop BB48_7 Depth=1
                                        // =>  This Inner Loop Header: Depth=2
	ldr	x10, [sp, #16]
	ldr	x11, [x10, #1920]
	add	x11, x11, #1                    // =1
	str	x11, [x10, #1920]
	ldr	w10, [sp]
	sub	w10, w10, #16                   // =16
	str	w10, [sp]
	mov	w10, w10
	cmp	w10, #16                        // =16
	b.ge	.LBB48_10
.LBB48_11:                              // %while.end23
                                        //   in Loop: Header=BB48_7 Depth=1
	ldr	w10, [sp, #12]
	tbz	w10, #31, .LBB48_13
// %bb.12:                              // %if.then26
                                        //   in Loop: Header=BB48_7 Depth=1
	ldr	w10, [sp, #12]
	neg	w10, w10
	str	w10, [sp, #12]
.LBB48_13:                              // %if.end28
                                        //   in Loop: Header=BB48_7 Depth=1
	ldr	w10, [sp, #12]
	asr	w10, w10, #1
	stp	w8, w10, [sp, #8]
	cbz	w10, .LBB48_5
.LBB48_14:                              // %while.body32
                                        //   Parent Loop BB48_7 Depth=1
                                        // =>  This Inner Loop Header: Depth=2
	ldr	w10, [sp, #8]
	add	w11, w10, #1                    // =1
	ldr	w10, [sp, #12]
	asr	w10, w10, #1
	stp	w11, w10, [sp, #8]
	cbnz	w10, .LBB48_14
	b	.LBB48_5
.LBB48_15:                              // %if.then14
                                        //   in Loop: Header=BB48_7 Depth=1
	ldr	w10, [sp]
	add	w10, w10, #1                    // =1
	str	w10, [sp]
	b	.LBB48_6
.LBB48_16:                              // %for.end
	ldr	w8, [sp]
	cmp	w8, #1                          // =1
	b.lt	.LBB48_18
// %bb.17:                              // %if.then42
	ldr	x8, [sp, #16]
	ldr	x9, [x8]
	add	x9, x9, #1                      // =1
	str	x9, [x8]
.LBB48_18:                              // %if.end45
	add	sp, sp, #48                     // =48
	ret
.Lfunc_end48:
	.size	htest_one_block, .Lfunc_end48-htest_one_block
	.cfi_endproc
                                        // -- End function
	.globl	jinit_compress_master           // -- Begin function jinit_compress_master
	.p2align	2
	.type	jinit_compress_master,@function
jinit_compress_master:                  // @jinit_compress_master
	.cfi_startproc
// %bb.0:                               // %entry
	sub	sp, sp, #32                     // =32
	stp	x29, x30, [sp, #16]             // 16-byte Folded Spill
	add	x29, sp, #16                    // =16
	.cfi_def_cfa w29, 16
	.cfi_offset w30, -8
	.cfi_offset w29, -16
	mov	w1, wzr
	str	x0, [sp, #8]
	bl	jinit_c_master_control
	ldr	x8, [sp, #8]
	ldr	w8, [x8, #248]
	cbnz	w8, .LBB49_2
// %bb.1:                               // %if.then
	ldr	x0, [sp, #8]
	bl	jinit_color_converter
	ldr	x0, [sp, #8]
	bl	jinit_downsampler
	ldr	x0, [sp, #8]
	mov	w1, wzr
	bl	jinit_c_prep_controller
.LBB49_2:                               // %if.end
	ldr	x0, [sp, #8]
	bl	jinit_forward_dct
	ldr	x8, [sp, #8]
	ldr	w9, [x8, #252]
	cbz	w9, .LBB49_4
// %bb.3:                               // %if.then2
	ldr	x8, [x8]
	mov	w9, #1
	str	w9, [x8, #40]
	ldr	x0, [sp, #8]
	ldr	x8, [x0]
	ldr	x8, [x8]
	blr	x8
	ldr	x0, [sp, #8]
	ldr	w8, [x0, #232]
	cmp	w8, #1                          // =1
	b.gt	.LBB49_6
	b	.LBB49_8
.LBB49_4:                               // %if.else
	ldr	w8, [x8, #300]
	ldr	x0, [sp, #8]
	cbz	w8, .LBB49_7
// %bb.5:                               // %if.then5
	bl	jinit_phuff_encoder
	ldr	x0, [sp, #8]
	ldr	w8, [x0, #232]
	cmp	w8, #1                          // =1
	b.le	.LBB49_8
.LBB49_6:
	mov	w1, #1
	b	.LBB49_9
.LBB49_7:                               // %if.else6
	bl	jinit_huff_encoder
	ldr	x0, [sp, #8]
	ldr	w8, [x0, #232]
	cmp	w8, #1                          // =1
	b.gt	.LBB49_6
.LBB49_8:                               // %lor.rhs
	ldr	x8, [sp, #8]
	ldr	w8, [x8, #256]
	cmp	w8, #0                          // =0
	cset	w1, ne
.LBB49_9:                               // %lor.end
	bl	jinit_c_coef_controller
	ldr	x0, [sp, #8]
	mov	w1, wzr
	bl	jinit_c_main_controller
	ldr	x0, [sp, #8]
	bl	jinit_marker_writer
	ldr	x0, [sp, #8]
	ldr	x8, [x0, #8]
	ldr	x8, [x8, #48]
	blr	x8
	ldr	x0, [sp, #8]
	ldr	x8, [x0, #456]
	ldr	x8, [x8, #8]
	blr	x8
	ldp	x29, x30, [sp, #16]             // 16-byte Folded Reload
	add	sp, sp, #32                     // =32
	ret
.Lfunc_end49:
	.size	jinit_compress_master, .Lfunc_end49-jinit_compress_master
	.cfi_endproc
                                        // -- End function
	.globl	jinit_c_main_controller         // -- Begin function jinit_c_main_controller
	.p2align	2
	.type	jinit_c_main_controller,@function
jinit_c_main_controller:                // @jinit_c_main_controller
	.cfi_startproc
// %bb.0:                               // %entry
	sub	sp, sp, #80                     // =80
	stp	x29, x30, [sp, #48]             // 16-byte Folded Spill
	str	x19, [sp, #64]                  // 8-byte Folded Spill
	add	x29, sp, #48                    // =48
	.cfi_def_cfa w29, 32
	.cfi_offset w19, -16
	.cfi_offset w30, -24
	.cfi_offset w29, -32
	str	x0, [x29, #24]
	stur	w1, [x29, #-4]
	ldr	x8, [x0, #8]
	mov	w1, #1
	mov	w2, #112
	mov	w19, #1
	ldr	x8, [x8]
	blr	x8
	ldr	x8, [x29, #24]
	adrp	x9, start_pass_main
	stur	x0, [x29, #-16]
	add	x9, x9, :lo12:start_pass_main
	str	x0, [x8, #432]
	mov	x8, x0
	str	x9, [x8]
	ldr	x8, [x29, #24]
	ldr	w8, [x8, #248]
	cbz	w8, .LBB50_2
// %bb.1:                               // %if.then
	str	w19, [sp, #12]
	ldr	x19, [sp, #64]                  // 8-byte Folded Reload
	ldp	x29, x30, [sp, #48]             // 16-byte Folded Reload
	add	sp, sp, #80                     // =80
	ret
.LBB50_2:                               // %if.end
	ldur	w8, [x29, #-4]
	cbz	w8, .LBB50_5
// %bb.3:                               // %if.then2
	ldr	x8, [x29, #24]
	mov	w9, #4
	ldr	x8, [x8]
	str	w9, [x8, #40]
	ldr	x0, [x29, #24]
	ldr	x8, [x0]
	ldr	x8, [x8]
	blr	x8
.LBB50_4:                               // %if.end7
	str	wzr, [sp, #12]
	ldr	x19, [sp, #64]                  // 8-byte Folded Reload
	ldp	x29, x30, [sp, #48]             // 16-byte Folded Reload
	add	sp, sp, #80                     // =80
	ret
.LBB50_5:                               // %if.else
	ldr	x8, [x29, #24]
	stur	wzr, [x29, #-20]
	ldr	x8, [x8, #80]
	str	x8, [sp, #16]
.LBB50_6:                               // %for.cond
                                        // =>This Inner Loop Header: Depth=1
	ldr	x8, [x29, #24]
	ldur	w9, [x29, #-20]
	ldr	w8, [x8, #68]
	cmp	w9, w8
	b.ge	.LBB50_4
// %bb.7:                               // %for.body
                                        //   in Loop: Header=BB50_6 Depth=1
	ldr	x0, [x29, #24]
	ldr	x8, [sp, #16]
	mov	w1, #1
	ldr	x9, [x0, #8]
	ldr	w10, [x8, #28]
	ldr	w8, [x8, #12]
	ldr	x9, [x9, #16]
	lsl	w2, w10, #3
	lsl	w3, w8, #3
	blr	x9
	ldur	x8, [x29, #-16]
	ldursw	x9, [x29, #-20]
	add	x8, x8, x9, lsl #3
	str	x0, [x8, #32]
	ldur	w8, [x29, #-20]
	ldr	x9, [sp, #16]
	add	w8, w8, #1                      // =1
	add	x9, x9, #96                     // =96
	stur	w8, [x29, #-20]
	str	x9, [sp, #16]
	b	.LBB50_6
.Lfunc_end50:
	.size	jinit_c_main_controller, .Lfunc_end50-jinit_c_main_controller
	.cfi_endproc
                                        // -- End function
	.p2align	2                               // -- Begin function start_pass_main
	.type	start_pass_main,@function
start_pass_main:                        // @start_pass_main
	.cfi_startproc
// %bb.0:                               // %entry
	sub	sp, sp, #48                     // =48
	stp	x29, x30, [sp, #32]             // 16-byte Folded Spill
	add	x29, sp, #32                    // =32
	.cfi_def_cfa w29, 16
	.cfi_offset w30, -8
	.cfi_offset w29, -16
	stur	x0, [x29, #-8]
	stur	w1, [x29, #-12]
	ldr	x8, [x0, #432]
	str	x8, [sp, #8]
	ldr	w8, [x0, #248]
	cbz	w8, .LBB51_2
// %bb.1:                               // %if.then
	mov	w8, #1
	str	w8, [sp, #4]
	ldp	x29, x30, [sp, #32]             // 16-byte Folded Reload
	add	sp, sp, #48                     // =48
	ret
.LBB51_2:                               // %if.end
	ldr	x8, [sp, #8]
	str	wzr, [x8, #16]
	ldr	x8, [sp, #8]
	str	wzr, [x8, #20]
	ldr	x8, [sp, #8]
	str	wzr, [x8, #24]
	ldur	w8, [x29, #-12]
	ldr	x9, [sp, #8]
	str	w8, [x9, #28]
	ldur	w8, [x29, #-12]
	cbz	w8, .LBB51_4
// %bb.3:                               // %sw.default
	ldur	x8, [x29, #-8]
	mov	w9, #4
	ldr	x8, [x8]
	str	w9, [x8, #40]
	ldur	x0, [x29, #-8]
	ldr	x8, [x0]
	ldr	x8, [x8]
	blr	x8
	str	wzr, [sp, #4]
	ldp	x29, x30, [sp, #32]             // 16-byte Folded Reload
	add	sp, sp, #48                     // =48
	ret
.LBB51_4:                               // %sw.bb
	ldr	x8, [sp, #8]
	adrp	x9, process_data_simple_main
	add	x9, x9, :lo12:process_data_simple_main
	str	x9, [x8, #8]
	str	wzr, [sp, #4]
	ldp	x29, x30, [sp, #32]             // 16-byte Folded Reload
	add	sp, sp, #48                     // =48
	ret
.Lfunc_end51:
	.size	start_pass_main, .Lfunc_end51-start_pass_main
	.cfi_endproc
                                        // -- End function
	.p2align	2                               // -- Begin function process_data_simple_main
	.type	process_data_simple_main,@function
process_data_simple_main:               // @process_data_simple_main
	.cfi_startproc
// %bb.0:                               // %entry
	sub	sp, sp, #64                     // =64
	stp	x29, x30, [sp, #48]             // 16-byte Folded Spill
	add	x29, sp, #48                    // =48
	.cfi_def_cfa w29, 16
	.cfi_offset w30, -8
	.cfi_offset w29, -16
	stp	x1, x0, [x29, #-16]
	str	x2, [sp, #24]
	str	w3, [sp, #20]
	ldr	x8, [x0, #432]
	str	x8, [sp, #8]
	b	.LBB52_2
.LBB52_1:                               // %if.end19
                                        //   in Loop: Header=BB52_2 Depth=1
	ldr	x8, [sp, #8]
	str	wzr, [x8, #20]
	ldr	x8, [sp, #8]
	ldr	w9, [x8, #16]
	add	w9, w9, #1                      // =1
	str	w9, [x8, #16]
.LBB52_2:                               // %while.cond
                                        // =>This Inner Loop Header: Depth=1
	ldr	x8, [sp, #8]
	ldur	x9, [x29, #-8]
	ldr	w8, [x8, #16]
	ldr	w9, [x9, #312]
	cmp	w8, w9
	b.hs	.LBB52_9
// %bb.3:                               // %while.body
                                        //   in Loop: Header=BB52_2 Depth=1
	ldr	x8, [sp, #8]
	ldr	w8, [x8, #20]
	cmp	w8, #7                          // =7
	b.hi	.LBB52_5
// %bb.4:                               // %if.then
                                        //   in Loop: Header=BB52_2 Depth=1
	ldp	x1, x0, [x29, #-16]
	ldr	x9, [sp, #8]
	ldr	x2, [sp, #24]
	ldr	w3, [sp, #20]
	ldr	x8, [x0, #440]
	add	x4, x9, #32                     // =32
	add	x5, x9, #20                     // =20
	mov	w6, #8
	ldr	x8, [x8, #8]
	blr	x8
.LBB52_5:                               // %if.end
                                        //   in Loop: Header=BB52_2 Depth=1
	ldr	x8, [sp, #8]
	ldr	w8, [x8, #20]
	cmp	w8, #8                          // =8
	b.ne	.LBB52_12
// %bb.6:                               // %if.end6
                                        //   in Loop: Header=BB52_2 Depth=1
	ldur	x0, [x29, #-8]
	ldr	x9, [sp, #8]
	ldr	x8, [x0, #448]
	add	x1, x9, #32                     // =32
	ldr	x8, [x8, #8]
	blr	x8
	ldr	x8, [sp, #8]
	ldr	w8, [x8, #24]
	cbz	w0, .LBB52_10
// %bb.7:                               // %if.end14
                                        //   in Loop: Header=BB52_2 Depth=1
	cbz	w8, .LBB52_1
// %bb.8:                               // %if.then17
                                        //   in Loop: Header=BB52_2 Depth=1
	ldr	x8, [sp, #24]
	ldr	w9, [x8]
	add	w9, w9, #1                      // =1
	str	w9, [x8]
	ldr	x8, [sp, #8]
	str	wzr, [x8, #24]
	b	.LBB52_1
.LBB52_9:                               // %while.end
	str	wzr, [sp, #4]
	ldp	x29, x30, [sp, #48]             // 16-byte Folded Reload
	add	sp, sp, #64                     // =64
	ret
.LBB52_10:                              // %if.then9
	cbnz	w8, .LBB52_12
// %bb.11:                              // %if.then11
	ldr	x8, [sp, #24]
	ldr	w9, [x8]
	sub	w9, w9, #1                      // =1
	str	w9, [x8]
	ldr	x8, [sp, #8]
	mov	w9, #1
	str	w9, [x8, #24]
.LBB52_12:                              // %if.then5
	mov	w8, #1
	str	w8, [sp, #4]
	ldp	x29, x30, [sp, #48]             // 16-byte Folded Reload
	add	sp, sp, #64                     // =64
	ret
.Lfunc_end52:
	.size	process_data_simple_main, .Lfunc_end52-process_data_simple_main
	.cfi_endproc
                                        // -- End function
	.globl	jinit_marker_writer             // -- Begin function jinit_marker_writer
	.p2align	2
	.type	jinit_marker_writer,@function
jinit_marker_writer:                    // @jinit_marker_writer
	.cfi_startproc
// %bb.0:                               // %entry
	sub	sp, sp, #32                     // =32
	stp	x29, x30, [sp, #16]             // 16-byte Folded Spill
	add	x29, sp, #16                    // =16
	.cfi_def_cfa w29, 16
	.cfi_offset w30, -8
	.cfi_offset w29, -16
	str	x0, [sp, #8]
	ldr	x8, [x0, #8]
	mov	w1, #1
	mov	w2, #48
	ldr	x8, [x8]
	blr	x8
	ldr	x8, [sp, #8]
	adrp	x9, write_any_marker
	add	x9, x9, :lo12:write_any_marker
	ldp	x29, x30, [sp, #16]             // 16-byte Folded Reload
	str	x0, [x8, #456]
	ldr	x8, [sp, #8]
	ldr	x8, [x8, #456]
	str	x9, [x8]
	ldr	x8, [sp, #8]
	adrp	x9, write_file_header
	add	x9, x9, :lo12:write_file_header
	ldr	x8, [x8, #456]
	str	x9, [x8, #8]
	ldr	x8, [sp, #8]
	adrp	x9, write_frame_header
	add	x9, x9, :lo12:write_frame_header
	ldr	x8, [x8, #456]
	str	x9, [x8, #16]
	ldr	x8, [sp, #8]
	adrp	x9, write_scan_header
	add	x9, x9, :lo12:write_scan_header
	ldr	x8, [x8, #456]
	str	x9, [x8, #24]
	ldr	x8, [sp, #8]
	adrp	x9, write_file_trailer
	add	x9, x9, :lo12:write_file_trailer
	ldr	x8, [x8, #456]
	str	x9, [x8, #32]
	ldr	x8, [sp, #8]
	adrp	x9, write_tables_only
	add	x9, x9, :lo12:write_tables_only
	ldr	x8, [x8, #456]
	str	x9, [x8, #40]
	add	sp, sp, #32                     // =32
	ret
.Lfunc_end53:
	.size	jinit_marker_writer, .Lfunc_end53-jinit_marker_writer
	.cfi_endproc
                                        // -- End function
	.p2align	2                               // -- Begin function write_any_marker
	.type	write_any_marker,@function
write_any_marker:                       // @write_any_marker
	.cfi_startproc
// %bb.0:                               // %entry
	sub	sp, sp, #48                     // =48
	stp	x29, x30, [sp, #32]             // 16-byte Folded Spill
	add	x29, sp, #32                    // =32
	.cfi_def_cfa w29, 16
	.cfi_offset w30, -8
	.cfi_offset w29, -16
	mov	w8, #65533
	cmp	w3, w8
	stur	x0, [x29, #-8]
	stur	w1, [x29, #-12]
	str	x2, [sp, #8]
	str	w3, [sp, #4]
	b.hi	.LBB54_3
// %bb.1:                               // %if.then
	ldur	x0, [x29, #-8]
	ldur	w1, [x29, #-12]
	bl	emit_marker
	ldr	w8, [sp, #4]
	ldur	x0, [x29, #-8]
	add	w1, w8, #2                      // =2
	bl	emit_2bytes
	ldr	w8, [sp, #4]
	subs	w8, w8, #1                      // =1
	str	w8, [sp, #4]
	b.lo	.LBB54_3
.LBB54_2:                               // %while.body
                                        // =>This Inner Loop Header: Depth=1
	ldr	x8, [sp, #8]
	ldur	x0, [x29, #-8]
	ldrb	w1, [x8]
	bl	emit_byte
	ldr	x8, [sp, #8]
	add	x8, x8, #1                      // =1
	str	x8, [sp, #8]
	ldr	w8, [sp, #4]
	subs	w8, w8, #1                      // =1
	str	w8, [sp, #4]
	b.hs	.LBB54_2
.LBB54_3:                               // %if.end
	ldp	x29, x30, [sp, #32]             // 16-byte Folded Reload
	add	sp, sp, #48                     // =48
	ret
.Lfunc_end54:
	.size	write_any_marker, .Lfunc_end54-write_any_marker
	.cfi_endproc
                                        // -- End function
	.p2align	2                               // -- Begin function write_file_header
	.type	write_file_header,@function
write_file_header:                      // @write_file_header
	.cfi_startproc
// %bb.0:                               // %entry
	sub	sp, sp, #32                     // =32
	stp	x29, x30, [sp, #16]             // 16-byte Folded Spill
	add	x29, sp, #16                    // =16
	.cfi_def_cfa w29, 16
	.cfi_offset w30, -8
	.cfi_offset w29, -16
	mov	w1, #216
	str	x0, [sp, #8]
	bl	emit_marker
	ldr	x8, [sp, #8]
	ldr	w8, [x8, #280]
	cbz	w8, .LBB55_2
// %bb.1:                               // %if.then
	ldr	x0, [sp, #8]
	bl	emit_jfif_app0
.LBB55_2:                               // %if.end
	ldr	x8, [sp, #8]
	ldr	w8, [x8, #292]
	cbz	w8, .LBB55_4
// %bb.3:                               // %if.then2
	ldr	x0, [sp, #8]
	bl	emit_adobe_app14
.LBB55_4:                               // %if.end3
	ldp	x29, x30, [sp, #16]             // 16-byte Folded Reload
	add	sp, sp, #32                     // =32
	ret
.Lfunc_end55:
	.size	write_file_header, .Lfunc_end55-write_file_header
	.cfi_endproc
                                        // -- End function
	.p2align	2                               // -- Begin function write_frame_header
	.type	write_frame_header,@function
write_frame_header:                     // @write_frame_header
	.cfi_startproc
// %bb.0:                               // %entry
	sub	sp, sp, #48                     // =48
	stp	x29, x30, [sp, #32]             // 16-byte Folded Spill
	add	x29, sp, #32                    // =32
	.cfi_def_cfa w29, 16
	.cfi_offset w30, -8
	.cfi_offset w29, -16
	stur	x0, [x29, #-8]
	str	wzr, [sp, #16]
	stur	wzr, [x29, #-12]
	ldr	x8, [x0, #80]
	str	x8, [sp]
.LBB56_1:                               // %for.cond
                                        // =>This Inner Loop Header: Depth=1
	ldur	x0, [x29, #-8]
	ldur	w8, [x29, #-12]
	ldr	w9, [x0, #68]
	cmp	w8, w9
	b.ge	.LBB56_3
// %bb.2:                               // %for.body
                                        //   in Loop: Header=BB56_1 Depth=1
	ldr	x8, [sp]
	ldr	w1, [x8, #16]
	bl	emit_dqt
	ldr	w8, [sp, #16]
	ldur	w9, [x29, #-12]
	ldr	x10, [sp]
	add	w8, w8, w0
	add	w9, w9, #1                      // =1
	add	x10, x10, #96                   // =96
	str	w8, [sp, #16]
	stur	w9, [x29, #-12]
	str	x10, [sp]
	b	.LBB56_1
.LBB56_3:                               // %for.end
	ldr	w8, [x0, #252]
	cbnz	w8, .LBB56_6
// %bb.4:                               // %lor.lhs.false
	ldur	x8, [x29, #-8]
	ldr	w8, [x8, #300]
	cbnz	w8, .LBB56_6
// %bb.5:                               // %lor.lhs.false2
	ldur	x8, [x29, #-8]
	ldr	w8, [x8, #64]
	cmp	w8, #8                          // =8
	b.eq	.LBB56_12
.LBB56_6:                               // %if.then
	str	wzr, [sp, #12]
.LBB56_7:                               // %if.end22
	ldur	x0, [x29, #-8]
	ldr	w8, [x0, #252]
	cbz	w8, .LBB56_9
// %bb.8:                               // %if.then25
	mov	w1, #201
	bl	emit_sof
	ldp	x29, x30, [sp, #32]             // 16-byte Folded Reload
	add	sp, sp, #48                     // =48
	ret
.LBB56_9:                               // %if.else26
	ldr	w8, [x0, #300]
	cbz	w8, .LBB56_11
// %bb.10:                              // %if.then29
	ldur	x0, [x29, #-8]
	mov	w1, #194
	bl	emit_sof
	ldp	x29, x30, [sp, #32]             // 16-byte Folded Reload
	add	sp, sp, #48                     // =48
	ret
.LBB56_11:                              // %if.else30
	ldr	w8, [sp, #12]
	ldur	x0, [x29, #-8]
	cmp	w8, #0                          // =0
	mov	w8, #192
	cinc	w1, w8, eq
	bl	emit_sof
	ldp	x29, x30, [sp, #32]             // 16-byte Folded Reload
	add	sp, sp, #48                     // =48
	ret
.LBB56_12:                              // %if.else
	ldur	x8, [x29, #-8]
	mov	w9, #1
	str	w9, [sp, #12]
	stur	wzr, [x29, #-12]
	ldr	x8, [x8, #80]
	str	x8, [sp]
	b	.LBB56_15
.LBB56_13:                              // %if.then12
                                        //   in Loop: Header=BB56_15 Depth=1
	str	wzr, [sp, #12]
.LBB56_14:                              // %for.inc13
                                        //   in Loop: Header=BB56_15 Depth=1
	ldur	w8, [x29, #-12]
	ldr	x9, [sp]
	add	w8, w8, #1                      // =1
	add	x9, x9, #96                     // =96
	stur	w8, [x29, #-12]
	str	x9, [sp]
.LBB56_15:                              // %for.cond5
                                        // =>This Inner Loop Header: Depth=1
	ldur	x8, [x29, #-8]
	ldur	w9, [x29, #-12]
	ldr	w8, [x8, #68]
	cmp	w9, w8
	b.ge	.LBB56_18
// %bb.16:                              // %for.body8
                                        //   in Loop: Header=BB56_15 Depth=1
	ldr	x8, [sp]
	ldr	w8, [x8, #20]
	cmp	w8, #1                          // =1
	b.gt	.LBB56_13
// %bb.17:                              // %lor.lhs.false10
                                        //   in Loop: Header=BB56_15 Depth=1
	ldr	x8, [sp]
	ldr	w8, [x8, #24]
	cmp	w8, #2                          // =2
	b.ge	.LBB56_13
	b	.LBB56_14
.LBB56_18:                              // %for.end16
	ldr	w8, [sp, #16]
	cbz	w8, .LBB56_7
// %bb.19:                              // %for.end16
	ldr	w8, [sp, #12]
	cbz	w8, .LBB56_7
// %bb.20:                              // %if.then19
	ldur	x8, [x29, #-8]
	str	wzr, [sp, #12]
	mov	w9, #74
	mov	w1, wzr
	ldr	x8, [x8]
	str	w9, [x8, #40]
	ldur	x0, [x29, #-8]
	ldr	x8, [x0]
	ldr	x8, [x8, #8]
	blr	x8
	b	.LBB56_7
.Lfunc_end56:
	.size	write_frame_header, .Lfunc_end56-write_frame_header
	.cfi_endproc
                                        // -- End function
	.p2align	2                               // -- Begin function write_scan_header
	.type	write_scan_header,@function
write_scan_header:                      // @write_scan_header
	.cfi_startproc
// %bb.0:                               // %entry
	sub	sp, sp, #48                     // =48
	stp	x29, x30, [sp, #32]             // 16-byte Folded Spill
	add	x29, sp, #32                    // =32
	.cfi_def_cfa w29, 16
	.cfi_offset w30, -8
	.cfi_offset w29, -16
	stur	x0, [x29, #-8]
	ldr	w8, [x0, #252]
	cbz	w8, .LBB57_5
// %bb.1:                               // %if.then
	ldur	x0, [x29, #-8]
	bl	emit_dac
.LBB57_2:                               // %if.end13
	ldur	x8, [x29, #-8]
	ldr	w8, [x8, #272]
	cbz	w8, .LBB57_4
// %bb.3:                               // %if.then15
	ldur	x0, [x29, #-8]
	bl	emit_dri
.LBB57_4:                               // %if.end16
	ldur	x0, [x29, #-8]
	bl	emit_sos
	ldp	x29, x30, [sp, #32]             // 16-byte Folded Reload
	add	sp, sp, #48                     // =48
	ret
.LBB57_5:                               // %if.else
	stur	wzr, [x29, #-12]
	b	.LBB57_10
.LBB57_6:                               // %if.else9
                                        //   in Loop: Header=BB57_10 Depth=1
	ldr	x8, [sp, #8]
	mov	w2, wzr
	ldr	w1, [x8, #20]
	bl	emit_dht
	ldr	x8, [sp, #8]
	ldur	x0, [x29, #-8]
.LBB57_7:                               // %for.inc
                                        //   in Loop: Header=BB57_10 Depth=1
	ldr	w1, [x8, #24]
	mov	w2, #1
.LBB57_8:                               // %for.inc
                                        //   in Loop: Header=BB57_10 Depth=1
	bl	emit_dht
.LBB57_9:                               // %for.inc
                                        //   in Loop: Header=BB57_10 Depth=1
	ldur	w8, [x29, #-12]
	add	w8, w8, #1                      // =1
	stur	w8, [x29, #-12]
.LBB57_10:                              // %for.cond
                                        // =>This Inner Loop Header: Depth=1
	ldur	x8, [x29, #-8]
	ldur	w9, [x29, #-12]
	ldr	w8, [x8, #316]
	cmp	w9, w8
	b.ge	.LBB57_2
// %bb.11:                              // %for.body
                                        //   in Loop: Header=BB57_10 Depth=1
	ldur	x0, [x29, #-8]
	ldursw	x8, [x29, #-12]
	add	x8, x0, x8, lsl #3
	ldr	x8, [x8, #320]
	str	x8, [sp, #8]
	ldr	w8, [x0, #300]
	cbz	w8, .LBB57_6
// %bb.12:                              // %if.then2
                                        //   in Loop: Header=BB57_10 Depth=1
	ldr	w8, [x0, #404]
	ldur	x0, [x29, #-8]
	cbz	w8, .LBB57_14
// %bb.13:                              // %if.else7
                                        //   in Loop: Header=BB57_10 Depth=1
	ldr	x8, [sp, #8]
	b	.LBB57_7
.LBB57_14:                              // %if.then4
                                        //   in Loop: Header=BB57_10 Depth=1
	ldr	w8, [x0, #412]
	cbnz	w8, .LBB57_9
// %bb.15:                              // %if.then6
                                        //   in Loop: Header=BB57_10 Depth=1
	ldr	x8, [sp, #8]
	ldur	x0, [x29, #-8]
	mov	w2, wzr
	ldr	w1, [x8, #20]
	b	.LBB57_8
.Lfunc_end57:
	.size	write_scan_header, .Lfunc_end57-write_scan_header
	.cfi_endproc
                                        // -- End function
	.p2align	2                               // -- Begin function write_file_trailer
	.type	write_file_trailer,@function
write_file_trailer:                     // @write_file_trailer
	.cfi_startproc
// %bb.0:                               // %entry
	sub	sp, sp, #32                     // =32
	stp	x29, x30, [sp, #16]             // 16-byte Folded Spill
	add	x29, sp, #16                    // =16
	.cfi_def_cfa w29, 16
	.cfi_offset w30, -8
	.cfi_offset w29, -16
	mov	w1, #217
	str	x0, [sp, #8]
	bl	emit_marker
	ldp	x29, x30, [sp, #16]             // 16-byte Folded Reload
	add	sp, sp, #32                     // =32
	ret
.Lfunc_end58:
	.size	write_file_trailer, .Lfunc_end58-write_file_trailer
	.cfi_endproc
                                        // -- End function
	.p2align	2                               // -- Begin function write_tables_only
	.type	write_tables_only,@function
write_tables_only:                      // @write_tables_only
	.cfi_startproc
// %bb.0:                               // %entry
	sub	sp, sp, #32                     // =32
	stp	x29, x30, [sp, #16]             // 16-byte Folded Spill
	add	x29, sp, #16                    // =16
	.cfi_def_cfa w29, 16
	.cfi_offset w30, -8
	.cfi_offset w29, -16
	mov	w1, #216
	str	x0, [sp, #8]
	bl	emit_marker
	str	wzr, [sp, #4]
	b	.LBB59_2
.LBB59_1:                               // %for.inc
                                        //   in Loop: Header=BB59_2 Depth=1
	ldr	w8, [sp, #4]
	add	w8, w8, #1                      // =1
	str	w8, [sp, #4]
.LBB59_2:                               // %for.cond
                                        // =>This Inner Loop Header: Depth=1
	ldr	w9, [sp, #4]
	ldr	x8, [sp, #8]
	cmp	w9, #3                          // =3
	b.gt	.LBB59_5
// %bb.3:                               // %for.body
                                        //   in Loop: Header=BB59_2 Depth=1
	ldrsw	x9, [sp, #4]
	add	x8, x8, x9, lsl #3
	ldr	x8, [x8, #88]
	cbz	x8, .LBB59_1
// %bb.4:                               // %if.then
                                        //   in Loop: Header=BB59_2 Depth=1
	ldr	x0, [sp, #8]
	ldr	w1, [sp, #4]
	bl	emit_dqt
	b	.LBB59_1
.LBB59_5:                               // %for.end
	ldr	w8, [x8, #252]
	cbz	w8, .LBB59_7
.LBB59_6:                               // %if.end19
	ldr	x0, [sp, #8]
	mov	w1, #217
	bl	emit_marker
	ldp	x29, x30, [sp, #16]             // 16-byte Folded Reload
	add	sp, sp, #32                     // =32
	ret
.LBB59_7:                               // %if.then2
	str	wzr, [sp, #4]
	b	.LBB59_9
.LBB59_8:                               // %for.inc16
                                        //   in Loop: Header=BB59_9 Depth=1
	ldr	w8, [sp, #4]
	add	w8, w8, #1                      // =1
	str	w8, [sp, #4]
.LBB59_9:                               // %for.cond3
                                        // =>This Inner Loop Header: Depth=1
	ldr	w8, [sp, #4]
	cmp	w8, #3                          // =3
	b.gt	.LBB59_6
// %bb.10:                              // %for.body5
                                        //   in Loop: Header=BB59_9 Depth=1
	ldr	x8, [sp, #8]
	ldrsw	x9, [sp, #4]
	add	x8, x8, x9, lsl #3
	ldr	x8, [x8, #120]
	cbz	x8, .LBB59_12
// %bb.11:                              // %if.then9
                                        //   in Loop: Header=BB59_9 Depth=1
	ldr	x0, [sp, #8]
	ldr	w1, [sp, #4]
	mov	w2, wzr
	bl	emit_dht
.LBB59_12:                              // %if.end10
                                        //   in Loop: Header=BB59_9 Depth=1
	ldr	x8, [sp, #8]
	ldrsw	x9, [sp, #4]
	add	x8, x8, x9, lsl #3
	ldr	x8, [x8, #152]
	cbz	x8, .LBB59_8
// %bb.13:                              // %if.then14
                                        //   in Loop: Header=BB59_9 Depth=1
	ldr	x0, [sp, #8]
	ldr	w1, [sp, #4]
	mov	w2, #1
	bl	emit_dht
	b	.LBB59_8
.Lfunc_end59:
	.size	write_tables_only, .Lfunc_end59-write_tables_only
	.cfi_endproc
                                        // -- End function
	.p2align	2                               // -- Begin function emit_marker
	.type	emit_marker,@function
emit_marker:                            // @emit_marker
	.cfi_startproc
// %bb.0:                               // %entry
	sub	sp, sp, #32                     // =32
	stp	x29, x30, [sp, #16]             // 16-byte Folded Spill
	add	x29, sp, #16                    // =16
	.cfi_def_cfa w29, 16
	.cfi_offset w30, -8
	.cfi_offset w29, -16
	str	w1, [sp, #4]
	mov	w1, #255
	str	x0, [sp, #8]
	bl	emit_byte
	ldr	x0, [sp, #8]
	ldr	w1, [sp, #4]
	bl	emit_byte
	ldp	x29, x30, [sp, #16]             // 16-byte Folded Reload
	add	sp, sp, #32                     // =32
	ret
.Lfunc_end60:
	.size	emit_marker, .Lfunc_end60-emit_marker
	.cfi_endproc
                                        // -- End function
	.p2align	2                               // -- Begin function emit_dqt
	.type	emit_dqt,@function
emit_dqt:                               // @emit_dqt
	.cfi_startproc
// %bb.0:                               // %entry
	sub	sp, sp, #64                     // =64
	stp	x29, x30, [sp, #32]             // 16-byte Folded Spill
	str	x19, [sp, #48]                  // 8-byte Folded Spill
	add	x29, sp, #32                    // =32
	.cfi_def_cfa w29, 32
	.cfi_offset w19, -16
	.cfi_offset w30, -24
	.cfi_offset w29, -32
	str	x0, [x29, #24]
	stur	w1, [x29, #-4]
	add	x8, x0, w1, sxtw #3
	ldr	x8, [x8, #88]
	str	x8, [sp, #16]
	cbnz	x8, .LBB61_2
// %bb.1:                               // %if.then
	ldr	x8, [x29, #24]
	mov	w9, #51
	ldr	x8, [x8]
	str	w9, [x8, #40]
	ldr	x8, [x29, #24]
	ldur	w9, [x29, #-4]
	ldr	x8, [x8]
	str	w9, [x8, #44]
	ldr	x0, [x29, #24]
	ldr	x8, [x0]
	ldr	x8, [x8]
	blr	x8
.LBB61_2:                               // %if.end
	mov	w8, #1
	str	xzr, [sp, #8]
	b	.LBB61_4
.LBB61_3:                               // %for.inc
                                        //   in Loop: Header=BB61_4 Depth=1
	ldr	w9, [sp, #8]
	add	w9, w9, #1                      // =1
	str	w9, [sp, #8]
.LBB61_4:                               // %for.cond
                                        // =>This Inner Loop Header: Depth=1
	ldr	w10, [sp, #8]
	ldr	x9, [sp, #16]
	cmp	w10, #63                        // =63
	b.gt	.LBB61_7
// %bb.5:                               // %for.body
                                        //   in Loop: Header=BB61_4 Depth=1
	ldrsw	x10, [sp, #8]
	ldrh	w9, [x9, x10, lsl #1]
	cmp	w9, #256                        // =256
	b.lt	.LBB61_3
// %bb.6:                               // %if.then10
                                        //   in Loop: Header=BB61_4 Depth=1
	str	w8, [sp, #12]
	b	.LBB61_3
.LBB61_7:                               // %for.end
	ldr	w8, [x9, #128]
	cbnz	w8, .LBB61_14
// %bb.8:                               // %if.then12
	ldr	x0, [x29, #24]
	mov	w1, #219
	bl	emit_marker
	ldr	w8, [sp, #12]
	ldr	x0, [x29, #24]
	mov	w9, #67
	cmp	w8, #0                          // =0
	mov	w8, #131
	csel	w1, w8, w9, ne
	bl	emit_2bytes
	ldur	w8, [x29, #-4]
	ldr	w9, [sp, #12]
	ldr	x0, [x29, #24]
	add	w1, w8, w9, lsl #4
	bl	emit_byte
	adrp	x19, jpeg_natural_order
	add	x19, x19, :lo12:jpeg_natural_order
	str	wzr, [sp, #8]
	b	.LBB61_10
.LBB61_9:                               // %if.end26
                                        //   in Loop: Header=BB61_10 Depth=1
	ldr	x0, [x29, #24]
	ldrb	w1, [sp, #4]
	bl	emit_byte
	ldr	w8, [sp, #8]
	add	w8, w8, #1                      // =1
	str	w8, [sp, #8]
.LBB61_10:                              // %for.cond14
                                        // =>This Inner Loop Header: Depth=1
	ldr	w8, [sp, #8]
	cmp	w8, #63                         // =63
	b.gt	.LBB61_13
// %bb.11:                              // %for.body17
                                        //   in Loop: Header=BB61_10 Depth=1
	ldrsw	x8, [sp, #8]
	ldr	x9, [sp, #16]
	ldrsw	x8, [x19, x8, lsl #2]
	ldrh	w8, [x9, x8, lsl #1]
	ldr	w9, [sp, #12]
	str	w8, [sp, #4]
	cbz	w9, .LBB61_9
// %bb.12:                              // %if.then25
                                        //   in Loop: Header=BB61_10 Depth=1
	ldr	w8, [sp, #4]
	ldr	x0, [x29, #24]
	lsr	w1, w8, #8
	bl	emit_byte
	b	.LBB61_9
.LBB61_13:                              // %for.end29
	ldr	x8, [sp, #16]
	mov	w9, #1
	str	w9, [x8, #128]
.LBB61_14:                              // %if.end31
	ldr	w0, [sp, #12]
	ldr	x19, [sp, #48]                  // 8-byte Folded Reload
	ldp	x29, x30, [sp, #32]             // 16-byte Folded Reload
	add	sp, sp, #64                     // =64
	ret
.Lfunc_end61:
	.size	emit_dqt, .Lfunc_end61-emit_dqt
	.cfi_endproc
                                        // -- End function
	.p2align	2                               // -- Begin function emit_dht
	.type	emit_dht,@function
emit_dht:                               // @emit_dht
	.cfi_startproc
// %bb.0:                               // %entry
	sub	sp, sp, #48                     // =48
	stp	x29, x30, [sp, #32]             // 16-byte Folded Spill
	add	x29, sp, #32                    // =32
	.cfi_def_cfa w29, 16
	.cfi_offset w30, -8
	.cfi_offset w29, -16
	stur	x0, [x29, #-8]
	stur	w1, [x29, #-12]
	str	w2, [sp, #16]
	cbz	w2, .LBB62_4
// %bb.1:                               // %if.then
	ldursw	x8, [x29, #-12]
	add	x9, x0, x8, lsl #3
	ldr	x9, [x9, #152]
	add	w8, w8, #16                     // =16
	stur	w8, [x29, #-12]
	str	x9, [sp, #8]
	mov	x8, x9
	cbz	x8, .LBB62_5
.LBB62_2:                               // %if.end8
	ldr	x8, [sp, #8]
	ldr	w8, [x8, #276]
	cbz	w8, .LBB62_6
.LBB62_3:                               // %if.end40
	ldp	x29, x30, [sp, #32]             // 16-byte Folded Reload
	add	sp, sp, #48                     // =48
	ret
.LBB62_4:                               // %if.else
	ldursw	x8, [x29, #-12]
	add	x8, x0, x8, lsl #3
	ldr	x8, [x8, #120]
	str	x8, [sp, #8]
	cbnz	x8, .LBB62_2
.LBB62_5:                               // %if.then3
	ldur	x8, [x29, #-8]
	mov	w9, #49
	ldr	x8, [x8]
	str	w9, [x8, #40]
	ldur	x8, [x29, #-8]
	ldur	w9, [x29, #-12]
	ldr	x8, [x8]
	str	w9, [x8, #44]
	ldur	x0, [x29, #-8]
	ldr	x8, [x0]
	ldr	x8, [x8]
	blr	x8
	ldr	x8, [sp, #8]
	ldr	w8, [x8, #276]
	cbnz	w8, .LBB62_3
.LBB62_6:                               // %if.then10
	ldur	x0, [x29, #-8]
	mov	w1, #196
	bl	emit_marker
	mov	w8, #1
	stp	w8, wzr, [sp]
	ldr	w8, [sp]
	cmp	w8, #16                         // =16
	b.gt	.LBB62_8
.LBB62_7:                               // %for.body
                                        // =>This Inner Loop Header: Depth=1
	ldr	x8, [sp, #8]
	ldp	w9, w10, [sp]
                                        // kill: def $w9 killed $w9 def $x9
	sxtw	x9, w9
	ldrb	w8, [x8, x9]
	add	w9, w9, #1                      // =1
	add	w8, w10, w8
	stp	w9, w8, [sp]
	ldr	w8, [sp]
	cmp	w8, #16                         // =16
	b.le	.LBB62_7
.LBB62_8:                               // %for.end
	ldr	w8, [sp, #4]
	ldur	x0, [x29, #-8]
	add	w1, w8, #19                     // =19
	bl	emit_2bytes
	ldur	x0, [x29, #-8]
	ldur	w1, [x29, #-12]
	bl	emit_byte
	mov	w8, #1
	str	w8, [sp]
	mov	w8, w8
	cmp	w8, #16                         // =16
	b.gt	.LBB62_10
.LBB62_9:                               // %for.body21
                                        // =>This Inner Loop Header: Depth=1
	ldr	x8, [sp, #8]
	ldrsw	x9, [sp]
	ldur	x0, [x29, #-8]
	ldrb	w1, [x8, x9]
	bl	emit_byte
	ldr	w8, [sp]
	add	w8, w8, #1                      // =1
	str	w8, [sp]
	mov	w8, w8
	cmp	w8, #16                         // =16
	b.le	.LBB62_9
.LBB62_10:                              // %for.end28
	str	wzr, [sp]
	ldp	w8, w9, [sp]
	cmp	w8, w9
	b.ge	.LBB62_12
.LBB62_11:                              // %for.body32
                                        // =>This Inner Loop Header: Depth=1
	ldr	x8, [sp, #8]
	ldrsw	x9, [sp]
	ldur	x0, [x29, #-8]
	add	x8, x8, x9
	ldrb	w1, [x8, #17]
	bl	emit_byte
	ldr	w8, [sp]
	add	w8, w8, #1                      // =1
	str	w8, [sp]
	ldp	w8, w9, [sp]
	cmp	w8, w9
	b.lt	.LBB62_11
.LBB62_12:                              // %for.end38
	ldr	x8, [sp, #8]
	mov	w9, #1
	str	w9, [x8, #276]
	ldp	x29, x30, [sp, #32]             // 16-byte Folded Reload
	add	sp, sp, #48                     // =48
	ret
.Lfunc_end62:
	.size	emit_dht, .Lfunc_end62-emit_dht
	.cfi_endproc
                                        // -- End function
	.p2align	2                               // -- Begin function emit_2bytes
	.type	emit_2bytes,@function
emit_2bytes:                            // @emit_2bytes
	.cfi_startproc
// %bb.0:                               // %entry
	sub	sp, sp, #32                     // =32
	stp	x29, x30, [sp, #16]             // 16-byte Folded Spill
	add	x29, sp, #16                    // =16
	.cfi_def_cfa w29, 16
	.cfi_offset w30, -8
	.cfi_offset w29, -16
	str	w1, [sp, #4]
	ubfx	w1, w1, #8, #8
	str	x0, [sp, #8]
	bl	emit_byte
	ldr	x0, [sp, #8]
	ldrb	w1, [sp, #4]
	bl	emit_byte
	ldp	x29, x30, [sp, #16]             // 16-byte Folded Reload
	add	sp, sp, #32                     // =32
	ret
.Lfunc_end63:
	.size	emit_2bytes, .Lfunc_end63-emit_2bytes
	.cfi_endproc
                                        // -- End function
	.p2align	2                               // -- Begin function emit_byte
	.type	emit_byte,@function
emit_byte:                              // @emit_byte
	.cfi_startproc
// %bb.0:                               // %entry
	sub	sp, sp, #48                     // =48
	stp	x29, x30, [sp, #32]             // 16-byte Folded Spill
	add	x29, sp, #32                    // =32
	.cfi_def_cfa w29, 16
	.cfi_offset w30, -8
	.cfi_offset w29, -16
	stur	x0, [x29, #-8]
	stur	w1, [x29, #-12]
	ldr	x8, [x0, #32]
	str	x8, [sp, #8]
	ldr	x9, [x8]
	add	x10, x9, #1                     // =1
	str	x10, [x8]
	strb	w1, [x9]
	ldr	x9, [x8, #8]
	subs	x9, x9, #1                      // =1
	str	x9, [x8, #8]
	b.eq	.LBB64_2
.LBB64_1:                               // %if.end5
	ldp	x29, x30, [sp, #32]             // 16-byte Folded Reload
	add	sp, sp, #48                     // =48
	ret
.LBB64_2:                               // %if.then
	ldr	x8, [sp, #8]
	ldur	x0, [x29, #-8]
	ldr	x8, [x8, #24]
	blr	x8
	cbnz	w0, .LBB64_1
// %bb.3:                               // %if.then3
	ldur	x8, [x29, #-8]
	mov	w9, #22
	ldr	x8, [x8]
	str	w9, [x8, #40]
	ldur	x0, [x29, #-8]
	ldr	x8, [x0]
	ldr	x8, [x8]
	blr	x8
	ldp	x29, x30, [sp, #32]             // 16-byte Folded Reload
	add	sp, sp, #48                     // =48
	ret
.Lfunc_end64:
	.size	emit_byte, .Lfunc_end64-emit_byte
	.cfi_endproc
                                        // -- End function
	.p2align	2                               // -- Begin function emit_dac
	.type	emit_dac,@function
emit_dac:                               // @emit_dac
	.cfi_startproc
// %bb.0:                               // %entry
	sub	sp, sp, #16                     // =16
	.cfi_def_cfa_offset 16
	str	x0, [sp, #8]
	add	sp, sp, #16                     // =16
	ret
.Lfunc_end65:
	.size	emit_dac, .Lfunc_end65-emit_dac
	.cfi_endproc
                                        // -- End function
	.p2align	2                               // -- Begin function emit_dri
	.type	emit_dri,@function
emit_dri:                               // @emit_dri
	.cfi_startproc
// %bb.0:                               // %entry
	sub	sp, sp, #32                     // =32
	stp	x29, x30, [sp, #16]             // 16-byte Folded Spill
	add	x29, sp, #16                    // =16
	.cfi_def_cfa w29, 16
	.cfi_offset w30, -8
	.cfi_offset w29, -16
	mov	w1, #221
	str	x0, [sp, #8]
	bl	emit_marker
	ldr	x0, [sp, #8]
	mov	w1, #4
	bl	emit_2bytes
	ldr	x0, [sp, #8]
	ldr	w1, [x0, #272]
	bl	emit_2bytes
	ldp	x29, x30, [sp, #16]             // 16-byte Folded Reload
	add	sp, sp, #32                     // =32
	ret
.Lfunc_end66:
	.size	emit_dri, .Lfunc_end66-emit_dri
	.cfi_endproc
                                        // -- End function
	.p2align	2                               // -- Begin function emit_sos
	.type	emit_sos,@function
emit_sos:                               // @emit_sos
	.cfi_startproc
// %bb.0:                               // %entry
	sub	sp, sp, #48                     // =48
	stp	x29, x30, [sp, #32]             // 16-byte Folded Spill
	add	x29, sp, #32                    // =32
	.cfi_def_cfa w29, 16
	.cfi_offset w30, -8
	.cfi_offset w29, -16
	mov	w1, #218
	stur	x0, [x29, #-8]
	bl	emit_marker
	ldur	x0, [x29, #-8]
	ldr	w8, [x0, #316]
	lsl	w8, w8, #1
	add	w1, w8, #6                      // =6
	bl	emit_2bytes
	ldur	x0, [x29, #-8]
	ldr	w1, [x0, #316]
	bl	emit_byte
	stur	wzr, [x29, #-12]
	b	.LBB67_3
.LBB67_1:                               // %if.else
                                        //   in Loop: Header=BB67_3 Depth=1
	str	wzr, [sp, #16]
.LBB67_2:                               // %if.end11
                                        //   in Loop: Header=BB67_3 Depth=1
	ldp	w9, w8, [sp, #12]
	ldur	x0, [x29, #-8]
	add	w1, w9, w8, lsl #4
	bl	emit_byte
	ldur	w8, [x29, #-12]
	add	w8, w8, #1                      // =1
	stur	w8, [x29, #-12]
.LBB67_3:                               // %for.cond
                                        // =>This Inner Loop Header: Depth=1
	ldur	x0, [x29, #-8]
	ldur	w8, [x29, #-12]
	ldr	w9, [x0, #316]
	cmp	w8, w9
	b.ge	.LBB67_8
// %bb.4:                               // %for.body
                                        //   in Loop: Header=BB67_3 Depth=1
	ldursw	x8, [x29, #-12]
	add	x8, x0, x8, lsl #3
	ldr	x8, [x8, #320]
	ldur	x0, [x29, #-8]
	str	x8, [sp]
	ldr	w1, [x8]
	bl	emit_byte
	ldr	x8, [sp]
	ldp	w9, w8, [x8, #20]
	stp	w8, w9, [sp, #12]
	ldur	x9, [x29, #-8]
	ldr	w8, [x9, #300]
	cbz	w8, .LBB67_2
// %bb.5:                               // %if.then
                                        //   in Loop: Header=BB67_3 Depth=1
	ldur	x8, [x29, #-8]
	ldr	w8, [x8, #404]
	cbnz	w8, .LBB67_1
// %bb.6:                               // %if.then6
                                        //   in Loop: Header=BB67_3 Depth=1
	ldur	x8, [x29, #-8]
	str	wzr, [sp, #12]
	ldr	w8, [x8, #412]
	cbz	w8, .LBB67_2
// %bb.7:                               // %land.lhs.true
                                        //   in Loop: Header=BB67_3 Depth=1
	ldur	x8, [x29, #-8]
	ldr	w8, [x8, #252]
	cbnz	w8, .LBB67_2
	b	.LBB67_1
.LBB67_8:                               // %for.end
	ldur	x8, [x29, #-8]
	ldr	w1, [x8, #404]
	bl	emit_byte
	ldur	x0, [x29, #-8]
	ldr	w1, [x0, #408]
	bl	emit_byte
	ldur	x0, [x29, #-8]
	ldr	w8, [x0, #412]
	ldr	w9, [x0, #416]
	add	w1, w9, w8, lsl #4
	bl	emit_byte
	ldp	x29, x30, [sp, #32]             // 16-byte Folded Reload
	add	sp, sp, #48                     // =48
	ret
.Lfunc_end67:
	.size	emit_sos, .Lfunc_end67-emit_sos
	.cfi_endproc
                                        // -- End function
	.p2align	2                               // -- Begin function emit_sof
	.type	emit_sof,@function
emit_sof:                               // @emit_sof
	.cfi_startproc
// %bb.0:                               // %entry
	sub	sp, sp, #48                     // =48
	stp	x29, x30, [sp, #32]             // 16-byte Folded Spill
	add	x29, sp, #32                    // =32
	.cfi_def_cfa w29, 16
	.cfi_offset w30, -8
	.cfi_offset w29, -16
	stur	x0, [x29, #-8]
	stur	w1, [x29, #-12]
	bl	emit_marker
	ldur	x0, [x29, #-8]
	ldr	w8, [x0, #68]
	add	w8, w8, w8, lsl #1
	add	w1, w8, #8                      // =8
	bl	emit_2bytes
	ldur	x8, [x29, #-8]
	ldr	w8, [x8, #44]
	cmp	x8, #16, lsl #12                // =65536
	b.ge	.LBB68_2
// %bb.1:                               // %lor.lhs.false
	ldur	x8, [x29, #-8]
	ldr	w8, [x8, #40]
	cmp	x8, #16, lsl #12                // =65536
	b.lt	.LBB68_3
.LBB68_2:                               // %if.then
	ldur	x8, [x29, #-8]
	mov	w9, #40
	ldr	x8, [x8]
	str	w9, [x8, #40]
	ldur	x8, [x29, #-8]
	mov	w9, #65535
	ldr	x8, [x8]
	str	w9, [x8, #44]
	ldur	x0, [x29, #-8]
	ldr	x8, [x0]
	ldr	x8, [x8]
	blr	x8
.LBB68_3:                               // %if.end
	ldur	x0, [x29, #-8]
	ldr	w1, [x0, #64]
	bl	emit_byte
	ldur	x0, [x29, #-8]
	ldr	w1, [x0, #44]
	bl	emit_2bytes
	ldur	x0, [x29, #-8]
	ldr	w1, [x0, #40]
	bl	emit_2bytes
	ldur	x0, [x29, #-8]
	ldr	w1, [x0, #68]
	bl	emit_byte
	ldur	x8, [x29, #-8]
	str	wzr, [sp, #16]
	ldr	x8, [x8, #80]
	str	x8, [sp, #8]
.LBB68_4:                               // %for.cond
                                        // =>This Inner Loop Header: Depth=1
	ldur	x8, [x29, #-8]
	ldr	w9, [sp, #16]
	ldr	w8, [x8, #68]
	cmp	w9, w8
	b.ge	.LBB68_6
// %bb.5:                               // %for.body
                                        //   in Loop: Header=BB68_4 Depth=1
	ldr	x8, [sp, #8]
	ldur	x0, [x29, #-8]
	ldr	w1, [x8]
	bl	emit_byte
	ldr	x8, [sp, #8]
	ldur	x0, [x29, #-8]
	ldp	w9, w8, [x8, #8]
	add	w1, w8, w9, lsl #4
	bl	emit_byte
	ldr	x8, [sp, #8]
	ldur	x0, [x29, #-8]
	ldr	w1, [x8, #16]
	bl	emit_byte
	ldr	w8, [sp, #16]
	ldr	x9, [sp, #8]
	add	w8, w8, #1                      // =1
	add	x9, x9, #96                     // =96
	str	w8, [sp, #16]
	str	x9, [sp, #8]
	b	.LBB68_4
.LBB68_6:                               // %for.end
	ldp	x29, x30, [sp, #32]             // 16-byte Folded Reload
	add	sp, sp, #48                     // =48
	ret
.Lfunc_end68:
	.size	emit_sof, .Lfunc_end68-emit_sof
	.cfi_endproc
                                        // -- End function
	.p2align	2                               // -- Begin function emit_jfif_app0
	.type	emit_jfif_app0,@function
emit_jfif_app0:                         // @emit_jfif_app0
	.cfi_startproc
// %bb.0:                               // %entry
	sub	sp, sp, #32                     // =32
	stp	x29, x30, [sp, #16]             // 16-byte Folded Spill
	add	x29, sp, #16                    // =16
	.cfi_def_cfa w29, 16
	.cfi_offset w30, -8
	.cfi_offset w29, -16
	mov	w1, #224
	str	x0, [sp, #8]
	bl	emit_marker
	ldr	x0, [sp, #8]
	mov	w1, #16
	bl	emit_2bytes
	ldr	x0, [sp, #8]
	mov	w1, #74
	bl	emit_byte
	ldr	x0, [sp, #8]
	mov	w1, #70
	bl	emit_byte
	ldr	x0, [sp, #8]
	mov	w1, #73
	bl	emit_byte
	ldr	x0, [sp, #8]
	mov	w1, #70
	bl	emit_byte
	ldr	x0, [sp, #8]
	mov	w1, wzr
	bl	emit_byte
