	.text
	.file	"llvm-link"
	.globl	BZ2_blockSort                   # -- Begin function BZ2_blockSort
	.p2align	4, 0x90
	.type	BZ2_blockSort,@function
BZ2_blockSort:                          # @BZ2_blockSort
	.cfi_startproc
# %bb.0:
	pushq	%rbp
	.cfi_def_cfa_offset 16
	.cfi_offset %rbp, -16
	movq	%rsp, %rbp
	.cfi_def_cfa_register %rbp
	subq	$80, %rsp
	movq	%rdi, -32(%rbp)
	movq	56(%rdi), %rax
	movq	%rax, -64(%rbp)
	movq	64(%rdi), %rax
	movq	%rax, -56(%rbp)
	movq	40(%rdi), %rax
	movq	%rax, -40(%rbp)
	movl	108(%rdi), %eax
	movl	%eax, -8(%rbp)
	movl	656(%rdi), %ecx
	movl	%ecx, -16(%rbp)
	movl	88(%rdi), %ecx
	movl	%ecx, -12(%rbp)
	cmpl	$9999, %eax                     # imm = 0x270F
	jg	.LBB0_1
.LBB0_15:
	movq	-32(%rbp), %rax
	movq	24(%rax), %rdi
	movq	32(%rax), %rsi
	movq	-40(%rbp), %rdx
	movl	-8(%rbp), %ecx
	movl	-16(%rbp), %r8d
	callq	fallbackSort
	jmp	.LBB0_16
.LBB0_1:
	movl	-8(%rbp), %eax
	addl	$34, %eax
	movl	%eax, -4(%rbp)
	testb	$1, %al
	je	.LBB0_3
# %bb.2:
	addl	$1, -4(%rbp)
.LBB0_3:
	movslq	-4(%rbp), %rax
	addq	-56(%rbp), %rax
	movq	%rax, -72(%rbp)
	cmpl	$0, -12(%rbp)
	jle	.LBB0_4
# %bb.5:
	cmpl	$101, -12(%rbp)
	jl	.LBB0_7
.LBB0_6:
	movl	$100, -12(%rbp)
.LBB0_7:
	movl	-8(%rbp), %r8d
	movl	-12(%rbp), %eax
	addl	$-1, %eax
	cltq
	imulq	$1431655766, %rax, %rax         # imm = 0x55555556
	movq	%rax, %rcx
	shrq	$63, %rcx
	shrq	$32, %rax
	addl	%ecx, %eax
	imull	%r8d, %eax
	movl	%eax, -44(%rbp)
	movl	%eax, -20(%rbp)
	movq	-64(%rbp), %rdi
	movq	-56(%rbp), %rsi
	movq	-72(%rbp), %rdx
	movq	-40(%rbp), %rcx
	movl	-16(%rbp), %r9d
	leaq	-20(%rbp), %rax
	movq	%rax, (%rsp)
	callq	mainSort
	cmpl	$3, -16(%rbp)
	jl	.LBB0_12
# %bb.8:
	movq	stderr(%rip), %rdi
	movl	-44(%rbp), %edx
	subl	-20(%rbp), %edx
	movl	-8(%rbp), %ecx
	cvtsi2ss	%edx, %xmm0
	testl	%ecx, %ecx
	je	.LBB0_9
# %bb.10:
	movl	-8(%rbp), %eax
	jmp	.LBB0_11
.LBB0_4:
	movl	$1, -12(%rbp)
	cmpl	$101, -12(%rbp)
	jge	.LBB0_6
	jmp	.LBB0_7
.LBB0_9:
	movl	$1, %eax
.LBB0_11:
	cvtsi2ss	%eax, %xmm1
	divss	%xmm1, %xmm0
	cvtss2sd	%xmm0, %xmm0
	movl	$.L.str, %esi
	movb	$1, %al
	callq	fprintf
.LBB0_12:
	cmpl	$0, -20(%rbp)
	js	.LBB0_13
.LBB0_16:
	movq	-32(%rbp), %rax
	movl	$-1, 48(%rax)
	movl	$0, -4(%rbp)
	.p2align	4, 0x90
.LBB0_17:                               # =>This Inner Loop Header: Depth=1
	movl	-4(%rbp), %eax
	movq	-32(%rbp), %rcx
	cmpl	108(%rcx), %eax
	jge	.LBB0_20
# %bb.18:                               #   in Loop: Header=BB0_17 Depth=1
	movq	-64(%rbp), %rax
	movslq	-4(%rbp), %rcx
	cmpl	$0, (%rax,%rcx,4)
	je	.LBB0_19
# %bb.23:                               #   in Loop: Header=BB0_17 Depth=1
	addl	$1, -4(%rbp)
	jmp	.LBB0_17
.LBB0_19:
	movl	-4(%rbp), %eax
	movq	-32(%rbp), %rcx
	movl	%eax, 48(%rcx)
.LBB0_20:
	movq	-32(%rbp), %rax
	cmpl	$-1, 48(%rax)
	jne	.LBB0_22
# %bb.21:
	movl	$1003, %edi                     # imm = 0x3EB
	callq	BZ2_bz__AssertH__fail
.LBB0_22:
	addq	$80, %rsp
	popq	%rbp
	.cfi_def_cfa %rsp, 8
	retq
.LBB0_13:
	.cfi_def_cfa %rbp, 16
	cmpl	$2, -16(%rbp)
	jl	.LBB0_15
# %bb.14:
	movq	stderr(%rip), %rdi
	movl	$.L.str.1, %esi
	xorl	%eax, %eax
	callq	fprintf
	jmp	.LBB0_15
.Lfunc_end0:
	.size	BZ2_blockSort, .Lfunc_end0-BZ2_blockSort
	.cfi_endproc
                                        # -- End function
	.p2align	4, 0x90                         # -- Begin function fallbackSort
	.type	fallbackSort,@function
fallbackSort:                           # @fallbackSort
	.cfi_startproc
# %bb.0:
	pushq	%rbp
	.cfi_def_cfa_offset 16
	.cfi_offset %rbp, -16
	movq	%rsp, %rbp
	.cfi_def_cfa_register %rbp
	subq	$2144, %rsp                     # imm = 0x860
	movq	%rdi, -56(%rbp)
	movq	%rsi, -80(%rbp)
	movq	%rdx, -24(%rbp)
	movl	%ecx, -12(%rbp)
	movl	%r8d, -44(%rbp)
	movq	%rsi, -72(%rbp)
	cmpl	$4, %r8d
	jl	.LBB1_2
# %bb.1:
	movq	stderr(%rip), %rdi
	movl	$.L.str.2, %esi
	xorl	%eax, %eax
	callq	fprintf
.LBB1_2:
	movl	$0, -4(%rbp)
	cmpl	$256, -4(%rbp)                  # imm = 0x100
	jg	.LBB1_5
	.p2align	4, 0x90
.LBB1_4:                                # =>This Inner Loop Header: Depth=1
	movslq	-4(%rbp), %rax
	movl	$0, -1120(%rbp,%rax,4)
	addl	$1, %eax
	movl	%eax, -4(%rbp)
	cmpl	$256, -4(%rbp)                  # imm = 0x100
	jle	.LBB1_4
.LBB1_5:
	movl	$0, -4(%rbp)
	.p2align	4, 0x90
.LBB1_6:                                # =>This Inner Loop Header: Depth=1
	movl	-4(%rbp), %eax
	cmpl	-12(%rbp), %eax
	jge	.LBB1_8
# %bb.7:                                #   in Loop: Header=BB1_6 Depth=1
	movq	-72(%rbp), %rax
	movslq	-4(%rbp), %rcx
	movzbl	(%rax,%rcx), %eax
	addl	$1, -1120(%rbp,%rax,4)
	leal	1(%rcx), %eax
	movl	%eax, -4(%rbp)
	jmp	.LBB1_6
.LBB1_8:
	movl	$0, -4(%rbp)
	cmpl	$255, -4(%rbp)
	jg	.LBB1_11
	.p2align	4, 0x90
.LBB1_10:                               # =>This Inner Loop Header: Depth=1
	movslq	-4(%rbp), %rax
	movl	-1120(%rbp,%rax,4), %ecx
	movl	%ecx, -2144(%rbp,%rax,4)
	addl	$1, %eax
	movl	%eax, -4(%rbp)
	cmpl	$255, -4(%rbp)
	jle	.LBB1_10
.LBB1_11:
	movl	$1, -4(%rbp)
	cmpl	$256, -4(%rbp)                  # imm = 0x100
	jg	.LBB1_14
	.p2align	4, 0x90
.LBB1_13:                               # =>This Inner Loop Header: Depth=1
	movslq	-4(%rbp), %rax
	movl	-1124(%rbp,%rax,4), %ecx
	addl	%ecx, -1120(%rbp,%rax,4)
	addl	$1, %eax
	movl	%eax, -4(%rbp)
	cmpl	$256, -4(%rbp)                  # imm = 0x100
	jle	.LBB1_13
.LBB1_14:
	movl	$0, -4(%rbp)
	.p2align	4, 0x90
.LBB1_15:                               # =>This Inner Loop Header: Depth=1
	movl	-4(%rbp), %eax
	cmpl	-12(%rbp), %eax
	jge	.LBB1_17
# %bb.16:                               #   in Loop: Header=BB1_15 Depth=1
	movq	-72(%rbp), %rax
	movslq	-4(%rbp), %rcx
	movzbl	(%rax,%rcx), %eax
	movl	%eax, -16(%rbp)
	movl	-1120(%rbp,%rax,4), %edx
	addl	$-1, %edx
	movl	%edx, -8(%rbp)
	movl	%edx, -1120(%rbp,%rax,4)
	movq	-56(%rbp), %rax
	movslq	%edx, %rdx
	movl	%ecx, (%rax,%rdx,4)
	addl	$1, -4(%rbp)
	jmp	.LBB1_15
.LBB1_17:
	movl	-12(%rbp), %eax
	leal	31(%rax), %ecx
	testl	%eax, %eax
	cmovnsl	%eax, %ecx
	sarl	$5, %ecx
	addl	$2, %ecx
	movl	%ecx, -84(%rbp)
	movl	$0, -4(%rbp)
	.p2align	4, 0x90
.LBB1_18:                               # =>This Inner Loop Header: Depth=1
	movl	-4(%rbp), %eax
	cmpl	-84(%rbp), %eax
	jge	.LBB1_20
# %bb.19:                               #   in Loop: Header=BB1_18 Depth=1
	movq	-24(%rbp), %rax
	movslq	-4(%rbp), %rcx
	movl	$0, (%rax,%rcx,4)
	addl	$1, -4(%rbp)
	jmp	.LBB1_18
.LBB1_20:
	movl	$0, -4(%rbp)
	cmpl	$255, -4(%rbp)
	jg	.LBB1_23
	.p2align	4, 0x90
.LBB1_22:                               # =>This Inner Loop Header: Depth=1
	movslq	-4(%rbp), %rax
	movl	-1120(%rbp,%rax,4), %ecx
	movl	$1, %eax
	shll	%cl, %eax
	movq	-24(%rbp), %rdx
	sarl	$5, %ecx
	movslq	%ecx, %rcx
	orl	%eax, (%rdx,%rcx,4)
	addl	$1, -4(%rbp)
	cmpl	$255, -4(%rbp)
	jle	.LBB1_22
.LBB1_23:
	movl	$0, -4(%rbp)
	cmpl	$31, -4(%rbp)
	jg	.LBB1_26
	.p2align	4, 0x90
.LBB1_25:                               # =>This Inner Loop Header: Depth=1
	movl	-4(%rbp), %ecx
	addl	%ecx, %ecx
	addl	-12(%rbp), %ecx
	movl	$1, %eax
	shll	%cl, %eax
	movq	-24(%rbp), %rdx
	sarl	$5, %ecx
	movslq	%ecx, %rcx
	orl	%eax, (%rdx,%rcx,4)
	movl	-12(%rbp), %eax
	movl	-4(%rbp), %ecx
	leal	(%rax,%rcx,2), %ecx
	addl	$1, %ecx
	movl	$-2, %eax
	roll	%cl, %eax
	movq	-24(%rbp), %rdx
	sarl	$5, %ecx
	movslq	%ecx, %rcx
	andl	%eax, (%rdx,%rcx,4)
	addl	$1, -4(%rbp)
	cmpl	$31, -4(%rbp)
	jle	.LBB1_25
.LBB1_26:
	movl	$1, -36(%rbp)
	.p2align	4, 0x90
.LBB1_27:                               # =>This Loop Header: Depth=1
                                        #     Child Loop BB1_30 Depth 2
                                        #     Child Loop BB1_37 Depth 2
                                        #       Child Loop BB1_38 Depth 3
                                        #       Child Loop BB1_44 Depth 3
                                        #       Child Loop BB1_46 Depth 3
                                        #       Child Loop BB1_49 Depth 3
                                        #       Child Loop BB1_55 Depth 3
                                        #       Child Loop BB1_57 Depth 3
                                        #       Child Loop BB1_62 Depth 3
	cmpl	$4, -44(%rbp)
	jl	.LBB1_29
# %bb.28:                               #   in Loop: Header=BB1_27 Depth=1
	movq	stderr(%rip), %rdi
	movl	-36(%rbp), %edx
	movl	$.L.str.3, %esi
	xorl	%eax, %eax
	callq	fprintf
.LBB1_29:                               #   in Loop: Header=BB1_27 Depth=1
	movl	$0, -16(%rbp)
	movl	$0, -4(%rbp)
	jmp	.LBB1_30
	.p2align	4, 0x90
.LBB1_35:                               #   in Loop: Header=BB1_30 Depth=2
	movl	-16(%rbp), %eax
	movq	-80(%rbp), %rcx
	movslq	-8(%rbp), %rdx
	movl	%eax, (%rcx,%rdx,4)
	addl	$1, -4(%rbp)
.LBB1_30:                               #   Parent Loop BB1_27 Depth=1
                                        # =>  This Inner Loop Header: Depth=2
	movl	-4(%rbp), %eax
	cmpl	-12(%rbp), %eax
	jge	.LBB1_36
# %bb.31:                               #   in Loop: Header=BB1_30 Depth=2
	movq	-24(%rbp), %rax
	movl	-4(%rbp), %ecx
	movl	%ecx, %edx
	sarl	$5, %edx
	movslq	%edx, %rdx
	movl	(%rax,%rdx,4), %eax
	btl	%ecx, %eax
	jae	.LBB1_33
# %bb.32:                               #   in Loop: Header=BB1_30 Depth=2
	movl	-4(%rbp), %eax
	movl	%eax, -16(%rbp)
.LBB1_33:                               #   in Loop: Header=BB1_30 Depth=2
	movq	-56(%rbp), %rax
	movslq	-4(%rbp), %rcx
	movl	(%rax,%rcx,4), %eax
	subl	-36(%rbp), %eax
	movl	%eax, -8(%rbp)
	jns	.LBB1_35
# %bb.34:                               #   in Loop: Header=BB1_30 Depth=2
	movl	-12(%rbp), %eax
	addl	%eax, -8(%rbp)
	jmp	.LBB1_35
	.p2align	4, 0x90
.LBB1_36:                               #   in Loop: Header=BB1_27 Depth=1
	movl	$0, -32(%rbp)
	movl	$-1, -28(%rbp)
	.p2align	4, 0x90
.LBB1_37:                               #   Parent Loop BB1_27 Depth=1
                                        # =>  This Loop Header: Depth=2
                                        #       Child Loop BB1_38 Depth 3
                                        #       Child Loop BB1_44 Depth 3
                                        #       Child Loop BB1_46 Depth 3
                                        #       Child Loop BB1_49 Depth 3
                                        #       Child Loop BB1_55 Depth 3
                                        #       Child Loop BB1_57 Depth 3
                                        #       Child Loop BB1_62 Depth 3
	movl	-28(%rbp), %eax
	addl	$1, %eax
	movl	%eax, -8(%rbp)
	.p2align	4, 0x90
.LBB1_38:                               #   Parent Loop BB1_27 Depth=1
                                        #     Parent Loop BB1_37 Depth=2
                                        # =>    This Inner Loop Header: Depth=3
	movq	-24(%rbp), %rax
	movl	-8(%rbp), %ecx
	movl	%ecx, %edx
	sarl	$5, %edx
	movslq	%edx, %rdx
	movl	(%rax,%rdx,4), %eax
	btl	%ecx, %eax
	jae	.LBB1_39
# %bb.40:                               #   in Loop: Header=BB1_38 Depth=3
	testb	$31, -8(%rbp)
	setne	%al
	testb	%al, %al
	jne	.LBB1_42
	jmp	.LBB1_43
	.p2align	4, 0x90
.LBB1_39:                               #   in Loop: Header=BB1_38 Depth=3
	xorl	%eax, %eax
	testb	%al, %al
	je	.LBB1_43
.LBB1_42:                               #   in Loop: Header=BB1_38 Depth=3
	addl	$1, -8(%rbp)
	jmp	.LBB1_38
	.p2align	4, 0x90
.LBB1_43:                               #   in Loop: Header=BB1_37 Depth=2
	movq	-24(%rbp), %rax
	movl	-8(%rbp), %ecx
	movl	%ecx, %edx
	sarl	$5, %edx
	movslq	%edx, %rdx
	movl	(%rax,%rdx,4), %eax
	btl	%ecx, %eax
	jae	.LBB1_48
	.p2align	4, 0x90
.LBB1_44:                               #   Parent Loop BB1_27 Depth=1
                                        #     Parent Loop BB1_37 Depth=2
                                        # =>    This Inner Loop Header: Depth=3
	movq	-24(%rbp), %rax
	movl	-8(%rbp), %ecx
	sarl	$5, %ecx
	movslq	%ecx, %rcx
	cmpl	$-1, (%rax,%rcx,4)
	jne	.LBB1_46
# %bb.45:                               #   in Loop: Header=BB1_44 Depth=3
	addl	$32, -8(%rbp)
	jmp	.LBB1_44
	.p2align	4, 0x90
.LBB1_47:                               #   in Loop: Header=BB1_46 Depth=3
	addl	$1, -8(%rbp)
.LBB1_46:                               #   Parent Loop BB1_27 Depth=1
                                        #     Parent Loop BB1_37 Depth=2
                                        # =>    This Inner Loop Header: Depth=3
	movq	-24(%rbp), %rax
	movl	-8(%rbp), %ecx
	movl	%ecx, %edx
	sarl	$5, %edx
	movslq	%edx, %rdx
	movl	(%rax,%rdx,4), %eax
	btl	%ecx, %eax
	jb	.LBB1_47
.LBB1_48:                               #   in Loop: Header=BB1_37 Depth=2
	movl	-8(%rbp), %eax
	addl	$-1, %eax
	movl	%eax, -40(%rbp)
	cmpl	-12(%rbp), %eax
	jge	.LBB1_66
	.p2align	4, 0x90
.LBB1_49:                               #   Parent Loop BB1_27 Depth=1
                                        #     Parent Loop BB1_37 Depth=2
                                        # =>    This Inner Loop Header: Depth=3
	movq	-24(%rbp), %rax
	movl	-8(%rbp), %ecx
	movl	%ecx, %edx
	sarl	$5, %edx
	movslq	%edx, %rdx
	movl	(%rax,%rdx,4), %eax
	btl	%ecx, %eax
	jae	.LBB1_51
# %bb.50:                               #   in Loop: Header=BB1_49 Depth=3
	xorl	%eax, %eax
	testb	%al, %al
	jne	.LBB1_53
	jmp	.LBB1_54
	.p2align	4, 0x90
.LBB1_51:                               #   in Loop: Header=BB1_49 Depth=3
	testb	$31, -8(%rbp)
	setne	%al
	testb	%al, %al
	je	.LBB1_54
.LBB1_53:                               #   in Loop: Header=BB1_49 Depth=3
	addl	$1, -8(%rbp)
	jmp	.LBB1_49
	.p2align	4, 0x90
.LBB1_54:                               #   in Loop: Header=BB1_37 Depth=2
	movq	-24(%rbp), %rax
	movl	-8(%rbp), %ecx
	movl	%ecx, %edx
	sarl	$5, %edx
	movslq	%edx, %rdx
	movl	(%rax,%rdx,4), %eax
	btl	%ecx, %eax
	jb	.LBB1_59
	jmp	.LBB1_55
	.p2align	4, 0x90
.LBB1_56:                               #   in Loop: Header=BB1_55 Depth=3
	addl	$32, -8(%rbp)
.LBB1_55:                               #   Parent Loop BB1_27 Depth=1
                                        #     Parent Loop BB1_37 Depth=2
                                        # =>    This Inner Loop Header: Depth=3
	movq	-24(%rbp), %rax
	movl	-8(%rbp), %ecx
	sarl	$5, %ecx
	movslq	%ecx, %rcx
	cmpl	$0, (%rax,%rcx,4)
	je	.LBB1_56
	jmp	.LBB1_57
	.p2align	4, 0x90
.LBB1_58:                               #   in Loop: Header=BB1_57 Depth=3
	addl	$1, -8(%rbp)
.LBB1_57:                               #   Parent Loop BB1_27 Depth=1
                                        #     Parent Loop BB1_37 Depth=2
                                        # =>    This Inner Loop Header: Depth=3
	movq	-24(%rbp), %rax
	movl	-8(%rbp), %ecx
	movl	%ecx, %edx
	sarl	$5, %edx
	movslq	%edx, %rdx
	movl	(%rax,%rdx,4), %eax
	btl	%ecx, %eax
	jae	.LBB1_58
.LBB1_59:                               #   in Loop: Header=BB1_37 Depth=2
	movl	-8(%rbp), %eax
	addl	$-1, %eax
	movl	%eax, -28(%rbp)
	cmpl	-12(%rbp), %eax
	jge	.LBB1_66
# %bb.60:                               #   in Loop: Header=BB1_37 Depth=2
	movl	-28(%rbp), %eax
	cmpl	-40(%rbp), %eax
	jle	.LBB1_37
# %bb.61:                               #   in Loop: Header=BB1_37 Depth=2
	movl	-28(%rbp), %ecx
	movl	-40(%rbp), %edx
	movl	%ecx, %eax
	subl	%edx, %eax
	movl	-32(%rbp), %esi
	addl	%esi, %eax
	addl	$1, %eax
	movl	%eax, -32(%rbp)
	movq	-56(%rbp), %rdi
	movq	-80(%rbp), %rsi
	callq	fallbackQSort3
	movl	$-1, -60(%rbp)
	movl	-40(%rbp), %eax
	movl	%eax, -4(%rbp)
	jmp	.LBB1_62
	.p2align	4, 0x90
.LBB1_65:                               #   in Loop: Header=BB1_62 Depth=3
	addl	$1, -4(%rbp)
.LBB1_62:                               #   Parent Loop BB1_27 Depth=1
                                        #     Parent Loop BB1_37 Depth=2
                                        # =>    This Inner Loop Header: Depth=3
	movl	-4(%rbp), %eax
	cmpl	-28(%rbp), %eax
	jg	.LBB1_37
# %bb.63:                               #   in Loop: Header=BB1_62 Depth=3
	movq	-80(%rbp), %rax
	movq	-56(%rbp), %rcx
	movslq	-4(%rbp), %rdx
	movl	(%rcx,%rdx,4), %ecx
	movl	(%rax,%rcx,4), %eax
	movl	%eax, -88(%rbp)
	cmpl	%eax, -60(%rbp)
	je	.LBB1_65
# %bb.64:                               #   in Loop: Header=BB1_62 Depth=3
	movl	-4(%rbp), %ecx
	movl	$1, %eax
	shll	%cl, %eax
	movq	-24(%rbp), %rdx
	sarl	$5, %ecx
	movslq	%ecx, %rcx
	orl	%eax, (%rdx,%rcx,4)
	movl	-88(%rbp), %eax
	movl	%eax, -60(%rbp)
	jmp	.LBB1_65
	.p2align	4, 0x90
.LBB1_66:                               #   in Loop: Header=BB1_27 Depth=1
	cmpl	$4, -44(%rbp)
	jl	.LBB1_68
# %bb.67:                               #   in Loop: Header=BB1_27 Depth=1
	movq	stderr(%rip), %rdi
	movl	-32(%rbp), %edx
	movl	$.L.str.4, %esi
	xorl	%eax, %eax
	callq	fprintf
.LBB1_68:                               #   in Loop: Header=BB1_27 Depth=1
	movl	-36(%rbp), %eax
	addl	%eax, %eax
	movl	%eax, -36(%rbp)
	cmpl	-12(%rbp), %eax
	jg	.LBB1_70
# %bb.69:                               #   in Loop: Header=BB1_27 Depth=1
	cmpl	$0, -32(%rbp)
	jne	.LBB1_27
.LBB1_70:
	cmpl	$4, -44(%rbp)
	jl	.LBB1_72
# %bb.71:
	movq	stderr(%rip), %rdi
	movl	$.L.str.5, %esi
	xorl	%eax, %eax
	callq	fprintf
.LBB1_72:
	movl	$0, -16(%rbp)
	movl	$0, -4(%rbp)
	jmp	.LBB1_73
	.p2align	4, 0x90
.LBB1_76:                               #   in Loop: Header=BB1_73 Depth=1
	movslq	-16(%rbp), %rax
	addl	$-1, -2144(%rbp,%rax,4)
	movb	-16(%rbp), %al
	movq	-72(%rbp), %rcx
	movq	-56(%rbp), %rdx
	movslq	-4(%rbp), %rsi
	movl	(%rdx,%rsi,4), %edx
	movb	%al, (%rcx,%rdx)
	addl	$1, -4(%rbp)
.LBB1_73:                               # =>This Loop Header: Depth=1
                                        #     Child Loop BB1_74 Depth 2
	movl	-4(%rbp), %eax
	cmpl	-12(%rbp), %eax
	jge	.LBB1_77
	.p2align	4, 0x90
.LBB1_74:                               #   Parent Loop BB1_73 Depth=1
                                        # =>  This Inner Loop Header: Depth=2
	movslq	-16(%rbp), %rax
	cmpl	$0, -2144(%rbp,%rax,4)
	jne	.LBB1_76
# %bb.75:                               #   in Loop: Header=BB1_74 Depth=2
	addl	$1, -16(%rbp)
	jmp	.LBB1_74
.LBB1_77:
	cmpl	$256, -16(%rbp)                 # imm = 0x100
	jl	.LBB1_79
# %bb.78:
	movl	$1005, %edi                     # imm = 0x3ED
	callq	BZ2_bz__AssertH__fail
.LBB1_79:
	addq	$2144, %rsp                     # imm = 0x860
	popq	%rbp
	.cfi_def_cfa %rsp, 8
	retq
.Lfunc_end1:
	.size	fallbackSort, .Lfunc_end1-fallbackSort
	.cfi_endproc
                                        # -- End function
	.p2align	4, 0x90                         # -- Begin function mainSort
	.type	mainSort,@function
mainSort:                               # @mainSort
	.cfi_startproc
# %bb.0:
	pushq	%rbp
	.cfi_def_cfa_offset 16
	.cfi_offset %rbp, -16
	movq	%rsp, %rbp
	.cfi_def_cfa_register %rbp
	pushq	%rbx
	subq	$3448, %rsp                     # imm = 0xD78
	.cfi_offset %rbx, -24
	movq	%rdi, -72(%rbp)
	movq	%rsi, -56(%rbp)
	movq	%rdx, -80(%rbp)
	movq	%rcx, -40(%rbp)
	movl	%r8d, -44(%rbp)
	movl	%r9d, -104(%rbp)
	cmpl	$4, %r9d
	jl	.LBB2_2
# %bb.1:
	movq	stderr(%rip), %rdi
	movl	$.L.str.6, %esi
	xorl	%eax, %eax
	callq	fprintf
.LBB2_2:
	movl	$65536, -12(%rbp)               # imm = 0x10000
	cmpl	$0, -12(%rbp)
	js	.LBB2_5
	.p2align	4, 0x90
.LBB2_4:                                # =>This Inner Loop Header: Depth=1
	movq	-40(%rbp), %rax
	movslq	-12(%rbp), %rcx
	movl	$0, (%rax,%rcx,4)
	addl	$-1, -12(%rbp)
	cmpl	$0, -12(%rbp)
	jns	.LBB2_4
.LBB2_5:
	movq	-56(%rbp), %rax
	movzbl	(%rax), %eax
	shll	$8, %eax
	movl	%eax, -16(%rbp)
	movl	-44(%rbp), %eax
	addl	$-1, %eax
	movl	%eax, -12(%rbp)
	cmpl	$3, -12(%rbp)
	jl	.LBB2_8
	.p2align	4, 0x90
.LBB2_7:                                # =>This Inner Loop Header: Depth=1
	movq	-80(%rbp), %rax
	movslq	-12(%rbp), %rcx
	movw	$0, (%rax,%rcx,2)
	movl	-16(%rbp), %eax
	sarl	$8, %eax
	movq	-56(%rbp), %rcx
	movslq	-12(%rbp), %rdx
	movzbl	(%rcx,%rdx), %ecx
	shll	$8, %ecx
	orl	%eax, %ecx
	movl	%ecx, -16(%rbp)
	movq	-40(%rbp), %rax
	movslq	%ecx, %rcx
	addl	$1, (%rax,%rcx,4)
	movq	-80(%rbp), %rax
	movslq	-12(%rbp), %rcx
	movw	$0, -2(%rax,%rcx,2)
	movl	-16(%rbp), %eax
	sarl	$8, %eax
	movq	-56(%rbp), %rcx
	movslq	-12(%rbp), %rdx
	movzbl	-1(%rdx,%rcx), %ecx
	shll	$8, %ecx
	orl	%eax, %ecx
	movl	%ecx, -16(%rbp)
	movq	-40(%rbp), %rax
	movslq	%ecx, %rcx
	addl	$1, (%rax,%rcx,4)
	movq	-80(%rbp), %rax
	movslq	-12(%rbp), %rcx
	movw	$0, -4(%rax,%rcx,2)
	movl	-16(%rbp), %eax
	sarl	$8, %eax
	movq	-56(%rbp), %rcx
	movslq	-12(%rbp), %rdx
	movzbl	-2(%rdx,%rcx), %ecx
	shll	$8, %ecx
	orl	%eax, %ecx
	movl	%ecx, -16(%rbp)
	movq	-40(%rbp), %rax
	movslq	%ecx, %rcx
	addl	$1, (%rax,%rcx,4)
	movq	-80(%rbp), %rax
	movslq	-12(%rbp), %rcx
	movw	$0, -6(%rax,%rcx,2)
	movl	-16(%rbp), %eax
	sarl	$8, %eax
	movq	-56(%rbp), %rcx
	movslq	-12(%rbp), %rdx
	movzbl	-3(%rdx,%rcx), %ecx
	shll	$8, %ecx
	orl	%eax, %ecx
	movl	%ecx, -16(%rbp)
	movq	-40(%rbp), %rax
	movslq	%ecx, %rcx
	addl	$1, (%rax,%rcx,4)
	addl	$-4, -12(%rbp)
	cmpl	$3, -12(%rbp)
	jge	.LBB2_7
	jmp	.LBB2_8
	.p2align	4, 0x90
.LBB2_9:                                #   in Loop: Header=BB2_8 Depth=1
	movq	-80(%rbp), %rax
	movslq	-12(%rbp), %rcx
	movw	$0, (%rax,%rcx,2)
	movl	-16(%rbp), %eax
	sarl	$8, %eax
	movq	-56(%rbp), %rcx
	movslq	-12(%rbp), %rdx
	movzbl	(%rcx,%rdx), %ecx
	shll	$8, %ecx
	orl	%eax, %ecx
	movl	%ecx, -16(%rbp)
	movq	-40(%rbp), %rax
	movslq	%ecx, %rcx
	addl	$1, (%rax,%rcx,4)
	addl	$-1, -12(%rbp)
.LBB2_8:                                # =>This Inner Loop Header: Depth=1
	cmpl	$0, -12(%rbp)
	jns	.LBB2_9
# %bb.10:
	movl	$0, -12(%rbp)
	cmpl	$33, -12(%rbp)
	jg	.LBB2_13
	.p2align	4, 0x90
.LBB2_12:                               # =>This Inner Loop Header: Depth=1
	movq	-56(%rbp), %rax
	movslq	-12(%rbp), %rcx
	movzbl	(%rax,%rcx), %edx
	movslq	-44(%rbp), %rsi
	addq	%rcx, %rsi
	movb	%dl, (%rax,%rsi)
	movq	-80(%rbp), %rax
	movslq	-44(%rbp), %rcx
	movslq	-12(%rbp), %rdx
	addq	%rcx, %rdx
	movw	$0, (%rax,%rdx,2)
	addl	$1, -12(%rbp)
	cmpl	$33, -12(%rbp)
	jle	.LBB2_12
.LBB2_13:
	cmpl	$4, -104(%rbp)
	jl	.LBB2_15
# %bb.14:
	movq	stderr(%rip), %rdi
	movl	$.L.str.2, %esi
	xorl	%eax, %eax
	callq	fprintf
.LBB2_15:
	movl	$1, -12(%rbp)
	cmpl	$65536, -12(%rbp)               # imm = 0x10000
	jg	.LBB2_18
	.p2align	4, 0x90
.LBB2_17:                               # =>This Inner Loop Header: Depth=1
	movq	-40(%rbp), %rax
	movslq	-12(%rbp), %rcx
	movl	-4(%rax,%rcx,4), %edx
	addl	%edx, (%rax,%rcx,4)
	addl	$1, -12(%rbp)
	cmpl	$65536, -12(%rbp)               # imm = 0x10000
	jle	.LBB2_17
.LBB2_18:
	movq	-56(%rbp), %rax
	movzbl	(%rax), %eax
	shll	$8, %eax
	movw	%ax, -18(%rbp)
	movl	-44(%rbp), %eax
	addl	$-1, %eax
	movl	%eax, -12(%rbp)
	cmpl	$3, -12(%rbp)
	jl	.LBB2_21
	.p2align	4, 0x90
.LBB2_20:                               # =>This Inner Loop Header: Depth=1
	movzbl	-17(%rbp), %eax
	movq	-56(%rbp), %rcx
	movslq	-12(%rbp), %rdx
	movzbl	(%rcx,%rdx), %ecx
	shll	$8, %ecx
	orl	%eax, %ecx
	movw	%cx, -18(%rbp)
	movq	-40(%rbp), %rax
	movl	(%rax,%rcx,4), %edx
	addl	$-1, %edx
	movl	%edx, -16(%rbp)
	movl	%edx, (%rax,%rcx,4)
	movl	-12(%rbp), %eax
	movq	-72(%rbp), %rcx
	movslq	-16(%rbp), %rdx
	movl	%eax, (%rcx,%rdx,4)
	movzbl	-17(%rbp), %eax
	movq	-56(%rbp), %rcx
	movslq	-12(%rbp), %rdx
	movzbl	-1(%rdx,%rcx), %ecx
	shll	$8, %ecx
	orl	%eax, %ecx
	movw	%cx, -18(%rbp)
	movq	-40(%rbp), %rax
	movl	(%rax,%rcx,4), %edx
	addl	$-1, %edx
	movl	%edx, -16(%rbp)
	movl	%edx, (%rax,%rcx,4)
	movl	-12(%rbp), %eax
	addl	$-1, %eax
	movq	-72(%rbp), %rcx
	movslq	-16(%rbp), %rdx
	movl	%eax, (%rcx,%rdx,4)
	movzbl	-17(%rbp), %eax
	movq	-56(%rbp), %rcx
	movslq	-12(%rbp), %rdx
	movzbl	-2(%rdx,%rcx), %ecx
	shll	$8, %ecx
	orl	%eax, %ecx
	movw	%cx, -18(%rbp)
	movq	-40(%rbp), %rax
	movl	(%rax,%rcx,4), %edx
	addl	$-1, %edx
	movl	%edx, -16(%rbp)
	movl	%edx, (%rax,%rcx,4)
	movl	-12(%rbp), %eax
	addl	$-2, %eax
	movq	-72(%rbp), %rcx
	movslq	-16(%rbp), %rdx
	movl	%eax, (%rcx,%rdx,4)
	movzbl	-17(%rbp), %eax
	movq	-56(%rbp), %rcx
	movslq	-12(%rbp), %rdx
	movzbl	-3(%rdx,%rcx), %ecx
	shll	$8, %ecx
	orl	%eax, %ecx
	movw	%cx, -18(%rbp)
	movq	-40(%rbp), %rax
	movl	(%rax,%rcx,4), %edx
	addl	$-1, %edx
	movl	%edx, -16(%rbp)
	movl	%edx, (%rax,%rcx,4)
	movl	-12(%rbp), %eax
	addl	$-3, %eax
	movq	-72(%rbp), %rcx
	movslq	-16(%rbp), %rdx
	movl	%eax, (%rcx,%rdx,4)
	addl	$-4, -12(%rbp)
	cmpl	$3, -12(%rbp)
	jge	.LBB2_20
	jmp	.LBB2_21
	.p2align	4, 0x90
.LBB2_22:                               #   in Loop: Header=BB2_21 Depth=1
	movzbl	-17(%rbp), %eax
	movq	-56(%rbp), %rcx
	movslq	-12(%rbp), %rdx
	movzbl	(%rcx,%rdx), %ecx
	shll	$8, %ecx
	orl	%eax, %ecx
	movw	%cx, -18(%rbp)
	movq	-40(%rbp), %rax
	movl	(%rax,%rcx,4), %edx
	addl	$-1, %edx
	movl	%edx, -16(%rbp)
	movl	%edx, (%rax,%rcx,4)
	movl	-12(%rbp), %eax
	movq	-72(%rbp), %rcx
	movslq	-16(%rbp), %rdx
	movl	%eax, (%rcx,%rdx,4)
	addl	$-1, -12(%rbp)
.LBB2_21:                               # =>This Inner Loop Header: Depth=1
	cmpl	$0, -12(%rbp)
	jns	.LBB2_22
# %bb.23:
	movl	$0, -12(%rbp)
	cmpl	$255, -12(%rbp)
	jg	.LBB2_26
	.p2align	4, 0x90
.LBB2_25:                               # =>This Inner Loop Header: Depth=1
	movslq	-12(%rbp), %rax
	movb	$0, -384(%rbp,%rax)
	movl	%eax, -1408(%rbp,%rax,4)
	addl	$1, %eax
	movl	%eax, -12(%rbp)
	cmpl	$255, -12(%rbp)
	jle	.LBB2_25
.LBB2_26:
	movl	$1, -60(%rbp)
	.p2align	4, 0x90
.LBB2_27:                               # =>This Inner Loop Header: Depth=1
	movl	-60(%rbp), %eax
	leal	(%rax,%rax,2), %eax
	addl	$1, %eax
	movl	%eax, -60(%rbp)
	cmpl	$257, %eax                      # imm = 0x101
	jl	.LBB2_27
	jmp	.LBB2_28
	.p2align	4, 0x90
.LBB2_34:                               #   in Loop: Header=BB2_28 Depth=1
	cmpl	$1, -60(%rbp)
	je	.LBB2_35
.LBB2_28:                               # =>This Loop Header: Depth=1
                                        #     Child Loop BB2_29 Depth 2
                                        #       Child Loop BB2_31 Depth 3
	movslq	-60(%rbp), %rax
	imulq	$1431655766, %rax, %rax         # imm = 0x55555556
	movq	%rax, %rcx
	shrq	$63, %rcx
	shrq	$32, %rax
	addl	%ecx, %eax
	movl	%eax, -60(%rbp)
	movl	%eax, -12(%rbp)
	jmp	.LBB2_29
	.p2align	4, 0x90
.LBB2_33:                               #   in Loop: Header=BB2_29 Depth=2
	movl	-116(%rbp), %eax
	movslq	-16(%rbp), %rcx
	movl	%eax, -1408(%rbp,%rcx,4)
	addl	$1, -12(%rbp)
.LBB2_29:                               #   Parent Loop BB2_28 Depth=1
                                        # =>  This Loop Header: Depth=2
                                        #       Child Loop BB2_31 Depth 3
	cmpl	$255, -12(%rbp)
	jg	.LBB2_34
# %bb.30:                               #   in Loop: Header=BB2_29 Depth=2
	movslq	-12(%rbp), %rax
	movl	-1408(%rbp,%rax,4), %ecx
	movl	%ecx, -116(%rbp)
	movl	%eax, -16(%rbp)
	.p2align	4, 0x90
.LBB2_31:                               #   Parent Loop BB2_28 Depth=1
                                        #     Parent Loop BB2_29 Depth=2
                                        # =>    This Inner Loop Header: Depth=3
	movq	-40(%rbp), %rax
	movslq	-16(%rbp), %rcx
	movslq	-60(%rbp), %rdx
	subq	%rdx, %rcx
	movl	-1408(%rbp,%rcx,4), %ecx
	shll	$8, %ecx
	leal	256(%rcx), %edx
	movslq	%edx, %rdx
	movl	(%rax,%rdx,4), %edx
	movslq	%ecx, %rcx
	subl	(%rax,%rcx,4), %edx
	movl	-116(%rbp), %ecx
	shll	$8, %ecx
	leal	256(%rcx), %esi
	movslq	%esi, %rsi
	movl	(%rax,%rsi,4), %esi
	movslq	%ecx, %rcx
	subl	(%rax,%rcx,4), %esi
	cmpl	%esi, %edx
	jbe	.LBB2_33
# %bb.32:                               #   in Loop: Header=BB2_31 Depth=3
	movslq	-16(%rbp), %rax
	movslq	-60(%rbp), %rcx
	movq	%rax, %rdx
	subq	%rcx, %rdx
	movl	-1408(%rbp,%rdx,4), %edx
	movl	%edx, -1408(%rbp,%rax,4)
	subl	%ecx, %eax
	movl	%eax, -16(%rbp)
	addl	$-1, %ecx
	cmpl	%ecx, %eax
	jg	.LBB2_31
	jmp	.LBB2_33
.LBB2_35:
	movl	$0, -88(%rbp)
	movl	$0, -12(%rbp)
	movl	$-2097153, %ebx                 # imm = 0xFFDFFFFF
	jmp	.LBB2_36
	.p2align	4, 0x90
.LBB2_84:                               #   in Loop: Header=BB2_36 Depth=1
	addl	$1, -12(%rbp)
.LBB2_36:                               # =>This Loop Header: Depth=1
                                        #     Child Loop BB2_38 Depth 2
                                        #     Child Loop BB2_51 Depth 2
                                        #     Child Loop BB2_53 Depth 2
                                        #     Child Loop BB2_60 Depth 2
                                        #     Child Loop BB2_72 Depth 2
                                        #     Child Loop BB2_75 Depth 2
                                        #     Child Loop BB2_78 Depth 2
	cmpl	$255, -12(%rbp)
	jg	.LBB2_85
# %bb.37:                               #   in Loop: Header=BB2_36 Depth=1
	movslq	-12(%rbp), %rax
	movl	-1408(%rbp,%rax,4), %eax
	movl	%eax, -24(%rbp)
	movl	$0, -16(%rbp)
	jmp	.LBB2_38
.LBB2_44:                               #   in Loop: Header=BB2_38 Depth=2
	movq	-72(%rbp), %rdi
	movq	-56(%rbp), %rsi
	movq	-80(%rbp), %rdx
	movl	-44(%rbp), %ecx
	movl	-100(%rbp), %r8d
	movl	-96(%rbp), %r9d
	pushq	16(%rbp)
	pushq	$2
	callq	mainQSort3
	addq	$16, %rsp
	movl	-96(%rbp), %eax
	subl	-100(%rbp), %eax
	movl	-88(%rbp), %ecx
	addl	%ecx, %eax
	addl	$1, %eax
	movl	%eax, -88(%rbp)
	movq	16(%rbp), %rax
	cmpl	$0, (%rax)
	js	.LBB2_87
.LBB2_45:                               #   in Loop: Header=BB2_38 Depth=2
	movq	-40(%rbp), %rax
	movslq	-120(%rbp), %rcx
	orl	$2097152, (%rax,%rcx,4)         # imm = 0x200000
.LBB2_46:                               #   in Loop: Header=BB2_38 Depth=2
	addl	$1, -16(%rbp)
.LBB2_38:                               #   Parent Loop BB2_36 Depth=1
                                        # =>  This Inner Loop Header: Depth=2
	cmpl	$255, -16(%rbp)
	jg	.LBB2_47
# %bb.39:                               #   in Loop: Header=BB2_38 Depth=2
	movl	-16(%rbp), %eax
	cmpl	-24(%rbp), %eax
	je	.LBB2_46
# %bb.40:                               #   in Loop: Header=BB2_38 Depth=2
	movl	-24(%rbp), %eax
	shll	$8, %eax
	addl	-16(%rbp), %eax
	movl	%eax, -120(%rbp)
	movq	-40(%rbp), %rcx
	cltq
	testb	$32, 2(%rcx,%rax,4)
	jne	.LBB2_45
# %bb.41:                               #   in Loop: Header=BB2_38 Depth=2
	movq	-40(%rbp), %rax
	movslq	-120(%rbp), %rcx
	movl	(%rax,%rcx,4), %edx
	andl	%ebx, %edx
	movl	%edx, -100(%rbp)
	movl	4(%rax,%rcx,4), %eax
	andl	%ebx, %eax
	addl	$-1, %eax
	movl	%eax, -96(%rbp)
	cmpl	%edx, %eax
	jle	.LBB2_45
# %bb.42:                               #   in Loop: Header=BB2_38 Depth=2
	cmpl	$4, -104(%rbp)
	jl	.LBB2_44
# %bb.43:                               #   in Loop: Header=BB2_38 Depth=2
	movq	stderr(%rip), %rdi
	movl	-24(%rbp), %edx
	movl	-16(%rbp), %ecx
	movl	-88(%rbp), %r8d
	movl	-96(%rbp), %r9d
	subl	-100(%rbp), %r9d
	addl	$1, %r9d
	movl	$.L.str.7, %esi
	xorl	%eax, %eax
	callq	fprintf
	jmp	.LBB2_44
	.p2align	4, 0x90
.LBB2_47:                               #   in Loop: Header=BB2_36 Depth=1
	movslq	-24(%rbp), %rax
	cmpb	$0, -384(%rbp,%rax)
	je	.LBB2_49
# %bb.48:                               #   in Loop: Header=BB2_36 Depth=1
	movl	$1006, %edi                     # imm = 0x3EE
	callq	BZ2_bz__AssertH__fail
.LBB2_49:                               #   in Loop: Header=BB2_36 Depth=1
	movl	$0, -16(%rbp)
	cmpl	$255, -16(%rbp)
	jg	.LBB2_52
	.p2align	4, 0x90
.LBB2_51:                               #   Parent Loop BB2_36 Depth=1
                                        # =>  This Inner Loop Header: Depth=2
	movq	-40(%rbp), %rax
	movslq	-16(%rbp), %rcx
	movl	%ecx, %edx
	shll	$8, %edx
	movslq	-24(%rbp), %rsi
	movslq	%edx, %rdx
	addq	%rsi, %rdx
	movl	(%rax,%rdx,4), %esi
	andl	%ebx, %esi
	movl	%esi, -3456(%rbp,%rcx,4)
	movl	4(%rax,%rdx,4), %eax
	andl	%ebx, %eax
	addl	$-1, %eax
	movl	%eax, -2432(%rbp,%rcx,4)
	leal	1(%rcx), %eax
	movl	%eax, -16(%rbp)
	cmpl	$255, -16(%rbp)
	jle	.LBB2_51
.LBB2_52:                               #   in Loop: Header=BB2_36 Depth=1
	movq	-40(%rbp), %rax
	movl	-24(%rbp), %ecx
	shll	$8, %ecx
	movslq	%ecx, %rcx
	movl	(%rax,%rcx,4), %eax
	andl	%ebx, %eax
	movl	%eax, -16(%rbp)
	jmp	.LBB2_53
	.p2align	4, 0x90
.LBB2_58:                               #   in Loop: Header=BB2_53 Depth=2
	addl	$1, -16(%rbp)
.LBB2_53:                               #   Parent Loop BB2_36 Depth=1
                                        # =>  This Inner Loop Header: Depth=2
	movl	-16(%rbp), %eax
	movslq	-24(%rbp), %rcx
	cmpl	-3456(%rbp,%rcx,4), %eax
	jge	.LBB2_59
# %bb.54:                               #   in Loop: Header=BB2_53 Depth=2
	movq	-72(%rbp), %rax
	movslq	-16(%rbp), %rcx
	movl	(%rax,%rcx,4), %eax
	addl	$-1, %eax
	movl	%eax, -64(%rbp)
	jns	.LBB2_56
# %bb.55:                               #   in Loop: Header=BB2_53 Depth=2
	movl	-44(%rbp), %eax
	addl	%eax, -64(%rbp)
.LBB2_56:                               #   in Loop: Header=BB2_53 Depth=2
	movq	-56(%rbp), %rax
	movslq	-64(%rbp), %rcx
	movzbl	(%rax,%rcx), %eax
	movb	%al, -25(%rbp)
	cmpb	$0, -384(%rbp,%rax)
	jne	.LBB2_58
# %bb.57:                               #   in Loop: Header=BB2_53 Depth=2
	movl	-64(%rbp), %eax
	movq	-72(%rbp), %rcx
	movzbl	-25(%rbp), %edx
	movslq	-3456(%rbp,%rdx,4), %rsi
	leal	1(%rsi), %edi
	movl	%edi, -3456(%rbp,%rdx,4)
	movl	%eax, (%rcx,%rsi,4)
	jmp	.LBB2_58
	.p2align	4, 0x90
.LBB2_59:                               #   in Loop: Header=BB2_36 Depth=1
	movq	-40(%rbp), %rax
	movl	-24(%rbp), %ecx
	shll	$8, %ecx
	addl	$256, %ecx                      # imm = 0x100
	movslq	%ecx, %rcx
	movl	(%rax,%rcx,4), %eax
	andl	%ebx, %eax
	addl	$-1, %eax
	movl	%eax, -16(%rbp)
	jmp	.LBB2_60
	.p2align	4, 0x90
.LBB2_65:                               #   in Loop: Header=BB2_60 Depth=2
	addl	$-1, -16(%rbp)
.LBB2_60:                               #   Parent Loop BB2_36 Depth=1
                                        # =>  This Inner Loop Header: Depth=2
	movl	-16(%rbp), %eax
	movslq	-24(%rbp), %rcx
	cmpl	-2432(%rbp,%rcx,4), %eax
	jle	.LBB2_66
# %bb.61:                               #   in Loop: Header=BB2_60 Depth=2
	movq	-72(%rbp), %rax
	movslq	-16(%rbp), %rcx
	movl	(%rax,%rcx,4), %eax
	addl	$-1, %eax
	movl	%eax, -64(%rbp)
	jns	.LBB2_63
# %bb.62:                               #   in Loop: Header=BB2_60 Depth=2
	movl	-44(%rbp), %eax
	addl	%eax, -64(%rbp)
.LBB2_63:                               #   in Loop: Header=BB2_60 Depth=2
	movq	-56(%rbp), %rax
	movslq	-64(%rbp), %rcx
	movzbl	(%rax,%rcx), %eax
	movb	%al, -25(%rbp)
	cmpb	$0, -384(%rbp,%rax)
	jne	.LBB2_65
# %bb.64:                               #   in Loop: Header=BB2_60 Depth=2
	movl	-64(%rbp), %eax
	movq	-72(%rbp), %rcx
	movzbl	-25(%rbp), %edx
	movslq	-2432(%rbp,%rdx,4), %rsi
	leal	-1(%rsi), %edi
	movl	%edi, -2432(%rbp,%rdx,4)
	movl	%eax, (%rcx,%rsi,4)
	jmp	.LBB2_65
	.p2align	4, 0x90
.LBB2_66:                               #   in Loop: Header=BB2_36 Depth=1
	movslq	-24(%rbp), %rax
	movl	-3456(%rbp,%rax,4), %ecx
	addl	$-1, %ecx
	cmpl	-2432(%rbp,%rax,4), %ecx
	je	.LBB2_70
# %bb.67:                               #   in Loop: Header=BB2_36 Depth=1
	movslq	-24(%rbp), %rax
	cmpl	$0, -3456(%rbp,%rax,4)
	jne	.LBB2_69
# %bb.68:                               #   in Loop: Header=BB2_36 Depth=1
	movslq	-24(%rbp), %rax
	movl	-44(%rbp), %ecx
	addl	$-1, %ecx
	cmpl	%ecx, -2432(%rbp,%rax,4)
	je	.LBB2_70
.LBB2_69:                               #   in Loop: Header=BB2_36 Depth=1
	movl	$1007, %edi                     # imm = 0x3EF
	callq	BZ2_bz__AssertH__fail
.LBB2_70:                               #   in Loop: Header=BB2_36 Depth=1
	movl	$0, -16(%rbp)
	cmpl	$255, -16(%rbp)
	jg	.LBB2_73
	.p2align	4, 0x90
.LBB2_72:                               #   Parent Loop BB2_36 Depth=1
                                        # =>  This Inner Loop Header: Depth=2
	movq	-40(%rbp), %rax
	movl	-16(%rbp), %ecx
	shll	$8, %ecx
	movslq	-24(%rbp), %rdx
	movslq	%ecx, %rcx
	addq	%rdx, %rcx
	orl	$2097152, (%rax,%rcx,4)         # imm = 0x200000
	addl	$1, -16(%rbp)
	cmpl	$255, -16(%rbp)
	jle	.LBB2_72
.LBB2_73:                               #   in Loop: Header=BB2_36 Depth=1
	movslq	-24(%rbp), %rax
	movb	$1, -384(%rbp,%rax)
	cmpl	$254, -12(%rbp)
	jg	.LBB2_84
# %bb.74:                               #   in Loop: Header=BB2_36 Depth=1
	movq	-40(%rbp), %rax
	movl	-24(%rbp), %ecx
	shll	$8, %ecx
	movslq	%ecx, %rcx
	movl	(%rax,%rcx,4), %edx
	andl	%ebx, %edx
	movl	%edx, -124(%rbp)
	addl	$256, %ecx                      # imm = 0x100
	movslq	%ecx, %rcx
	movl	(%rax,%rcx,4), %eax
	andl	%ebx, %eax
	subl	%edx, %eax
	movl	%eax, -92(%rbp)
	movl	$0, -84(%rbp)
	.p2align	4, 0x90
.LBB2_75:                               #   Parent Loop BB2_36 Depth=1
                                        # =>  This Inner Loop Header: Depth=2
	movl	-92(%rbp), %eax
	movzbl	-84(%rbp), %ecx
	sarl	%cl, %eax
	cmpl	$65535, %eax                    # imm = 0xFFFF
	jl	.LBB2_77
# %bb.76:                               #   in Loop: Header=BB2_75 Depth=2
	addl	$1, -84(%rbp)
	jmp	.LBB2_75
	.p2align	4, 0x90
.LBB2_77:                               #   in Loop: Header=BB2_36 Depth=1
	movl	-92(%rbp), %eax
	addl	$-1, %eax
	movl	%eax, -16(%rbp)
	jmp	.LBB2_78
	.p2align	4, 0x90
.LBB2_81:                               #   in Loop: Header=BB2_78 Depth=2
	addl	$-1, -16(%rbp)
.LBB2_78:                               #   Parent Loop BB2_36 Depth=1
                                        # =>  This Inner Loop Header: Depth=2
	cmpl	$0, -16(%rbp)
	js	.LBB2_82
# %bb.79:                               #   in Loop: Header=BB2_78 Depth=2
	movq	-72(%rbp), %rax
	movslq	-124(%rbp), %rcx
	movslq	-16(%rbp), %rdx
	addq	%rdx, %rcx
	movslq	(%rax,%rcx,4), %rax
	movl	%eax, -112(%rbp)
	movzbl	-84(%rbp), %ecx
	sarl	%cl, %edx
	movw	%dx, -106(%rbp)
	movq	-80(%rbp), %rcx
	movw	%dx, (%rcx,%rax,2)
	cmpl	$33, -112(%rbp)
	jg	.LBB2_81
# %bb.80:                               #   in Loop: Header=BB2_78 Depth=2
	movzwl	-106(%rbp), %eax
	movq	-80(%rbp), %rcx
	movslq	-112(%rbp), %rdx
	movslq	-44(%rbp), %rsi
	addq	%rdx, %rsi
	movw	%ax, (%rcx,%rsi,2)
	jmp	.LBB2_81
	.p2align	4, 0x90
.LBB2_82:                               #   in Loop: Header=BB2_36 Depth=1
	movl	-92(%rbp), %eax
	addl	$-1, %eax
	movb	-84(%rbp), %cl
	sarl	%cl, %eax
	cmpl	$65536, %eax                    # imm = 0x10000
	jl	.LBB2_84
# %bb.83:                               #   in Loop: Header=BB2_36 Depth=1
	movl	$1002, %edi                     # imm = 0x3EA
	callq	BZ2_bz__AssertH__fail
	jmp	.LBB2_84
.LBB2_85:
	cmpl	$4, -104(%rbp)
	jl	.LBB2_87
# %bb.86:
	movq	stderr(%rip), %rdi
	movl	-44(%rbp), %edx
	movl	-88(%rbp), %ecx
	movl	%edx, %r8d
	subl	%ecx, %r8d
	movl	$.L.str.8, %esi
	xorl	%eax, %eax
	callq	fprintf
.LBB2_87:
	addq	$3448, %rsp                     # imm = 0xD78
	popq	%rbx
	popq	%rbp
	.cfi_def_cfa %rsp, 8
	retq
.Lfunc_end2:
	.size	mainSort, .Lfunc_end2-mainSort
	.cfi_endproc
                                        # -- End function
	.p2align	4, 0x90                         # -- Begin function mainQSort3
	.type	mainQSort3,@function
mainQSort3:                             # @mainQSort3
	.cfi_startproc
# %bb.0:
	pushq	%rbp
	.cfi_def_cfa_offset 16
	.cfi_offset %rbp, -16
	movq	%rsp, %rbp
	.cfi_def_cfa_register %rbp
	subq	$1392, %rsp                     # imm = 0x570
	movq	%rdi, -40(%rbp)
	movq	%rsi, -120(%rbp)
	movq	%rdx, -160(%rbp)
	movl	%ecx, -148(%rbp)
	movl	%r8d, -180(%rbp)
	movl	%r9d, -176(%rbp)
	movl	%r8d, -1392(%rbp)
	movl	%r9d, -992(%rbp)
	movl	16(%rbp), %eax
	movl	%eax, -592(%rbp)
	movl	$1, -12(%rbp)
	jmp	.LBB3_1
	.p2align	4, 0x90
.LBB3_6:                                #   in Loop: Header=BB3_1 Depth=1
	movq	-40(%rbp), %rdi
	movq	-120(%rbp), %rsi
	movq	-160(%rbp), %rdx
	movl	-148(%rbp), %ecx
	movl	-24(%rbp), %r8d
	movl	-20(%rbp), %r9d
	movl	-16(%rbp), %eax
	pushq	24(%rbp)
	pushq	%rax
	callq	mainSimpleSort
	addq	$16, %rsp
	movq	24(%rbp), %rax
	cmpl	$0, (%rax)
	js	.LBB3_7
.LBB3_1:                                # =>This Loop Header: Depth=1
                                        #     Child Loop BB3_9 Depth 2
                                        #       Child Loop BB3_14 Depth 3
                                        #     Child Loop BB3_27 Depth 2
                                        #     Child Loop BB3_33 Depth 2
	cmpl	$0, -12(%rbp)
	jle	.LBB3_7
# %bb.2:                                #   in Loop: Header=BB3_1 Depth=1
	cmpl	$98, -12(%rbp)
	jl	.LBB3_4
# %bb.3:                                #   in Loop: Header=BB3_1 Depth=1
	movl	$1001, %edi                     # imm = 0x3E9
	callq	BZ2_bz__AssertH__fail
.LBB3_4:                                #   in Loop: Header=BB3_1 Depth=1
	movslq	-12(%rbp), %rax
	leal	-1(%rax), %ecx
	movl	%ecx, -12(%rbp)
	movl	-1396(%rbp,%rax,4), %ecx
	movl	%ecx, -24(%rbp)
	movl	-996(%rbp,%rax,4), %edx
	movl	%edx, -20(%rbp)
	movl	-596(%rbp,%rax,4), %eax
	movl	%eax, -16(%rbp)
	subl	%ecx, %edx
	cmpl	$20, %edx
	jl	.LBB3_6
# %bb.5:                                #   in Loop: Header=BB3_1 Depth=1
	cmpl	$15, -16(%rbp)
	jge	.LBB3_6
# %bb.8:                                #   in Loop: Header=BB3_1 Depth=1
	movq	-120(%rbp), %r9
	movq	-40(%rbp), %rcx
	movslq	-24(%rbp), %r8
	movl	-16(%rbp), %edx
	movl	(%rcx,%r8,4), %esi
	addl	%edx, %esi
	movzbl	(%r9,%rsi), %edi
	movslq	-20(%rbp), %rax
	movl	(%rcx,%rax,4), %esi
	addl	%edx, %esi
	movzbl	(%r9,%rsi), %esi
	addl	%r8d, %eax
	sarl	%eax
	cltq
	addl	(%rcx,%rax,4), %edx
	movzbl	(%r9,%rdx), %edx
	callq	mmed3
	movzbl	%al, %eax
	movl	%eax, -108(%rbp)
	movl	-24(%rbp), %eax
	movl	%eax, -32(%rbp)
	movl	%eax, -4(%rbp)
	movl	-20(%rbp), %eax
	movl	%eax, -28(%rbp)
	movl	%eax, -8(%rbp)
	jmp	.LBB3_9
	.p2align	4, 0x90
.LBB3_11:                               #   in Loop: Header=BB3_9 Depth=2
	movq	-40(%rbp), %rax
	movslq	-4(%rbp), %rcx
	movl	(%rax,%rcx,4), %edx
	movl	%edx, -140(%rbp)
	movslq	-32(%rbp), %rdx
	movl	(%rax,%rdx,4), %edx
	movl	%edx, (%rax,%rcx,4)
	movl	-140(%rbp), %eax
	movq	-40(%rbp), %rcx
	movslq	-32(%rbp), %rdx
	movl	%eax, (%rcx,%rdx,4)
	addl	$1, -32(%rbp)
	addl	$1, -4(%rbp)
.LBB3_9:                                #   Parent Loop BB3_1 Depth=1
                                        # =>  This Loop Header: Depth=2
                                        #       Child Loop BB3_14 Depth 3
	movl	-4(%rbp), %eax
	cmpl	-8(%rbp), %eax
	jg	.LBB3_14
# %bb.10:                               #   in Loop: Header=BB3_9 Depth=2
	movq	-120(%rbp), %rax
	movq	-40(%rbp), %rcx
	movslq	-4(%rbp), %rdx
	movl	(%rcx,%rdx,4), %ecx
	addl	-16(%rbp), %ecx
	movzbl	(%rax,%rcx), %eax
	subl	-108(%rbp), %eax
	movl	%eax, -56(%rbp)
	je	.LBB3_11
# %bb.12:                               #   in Loop: Header=BB3_9 Depth=2
	cmpl	$0, -56(%rbp)
	jg	.LBB3_14
# %bb.13:                               #   in Loop: Header=BB3_9 Depth=2
	addl	$1, -4(%rbp)
	jmp	.LBB3_9
	.p2align	4, 0x90
.LBB3_16:                               #   in Loop: Header=BB3_14 Depth=3
	movq	-40(%rbp), %rax
	movslq	-8(%rbp), %rcx
	movl	(%rax,%rcx,4), %edx
	movl	%edx, -136(%rbp)
	movslq	-28(%rbp), %rdx
	movl	(%rax,%rdx,4), %edx
	movl	%edx, (%rax,%rcx,4)
	movl	-136(%rbp), %eax
	movq	-40(%rbp), %rcx
	movslq	-28(%rbp), %rdx
	movl	%eax, (%rcx,%rdx,4)
	addl	$-1, -28(%rbp)
	addl	$-1, -8(%rbp)
.LBB3_14:                               #   Parent Loop BB3_1 Depth=1
                                        #     Parent Loop BB3_9 Depth=2
                                        # =>    This Inner Loop Header: Depth=3
	movl	-4(%rbp), %eax
	cmpl	-8(%rbp), %eax
	jg	.LBB3_19
# %bb.15:                               #   in Loop: Header=BB3_14 Depth=3
	movq	-120(%rbp), %rax
	movq	-40(%rbp), %rcx
	movslq	-8(%rbp), %rdx
	movl	(%rcx,%rdx,4), %ecx
	addl	-16(%rbp), %ecx
	movzbl	(%rax,%rcx), %eax
	subl	-108(%rbp), %eax
	movl	%eax, -56(%rbp)
	je	.LBB3_16
# %bb.17:                               #   in Loop: Header=BB3_14 Depth=3
	cmpl	$0, -56(%rbp)
	js	.LBB3_19
# %bb.18:                               #   in Loop: Header=BB3_14 Depth=3
	addl	$-1, -8(%rbp)
	jmp	.LBB3_14
.LBB3_19:                               #   in Loop: Header=BB3_9 Depth=2
	movl	-4(%rbp), %eax
	cmpl	-8(%rbp), %eax
	jg	.LBB3_20
# %bb.41:                               #   in Loop: Header=BB3_9 Depth=2
	movq	-40(%rbp), %rax
	movslq	-4(%rbp), %rcx
	movl	(%rax,%rcx,4), %edx
	movl	%edx, -132(%rbp)
	movslq	-8(%rbp), %rdx
	movl	(%rax,%rdx,4), %edx
	movl	%edx, (%rax,%rcx,4)
	movl	-132(%rbp), %eax
	movq	-40(%rbp), %rcx
	movslq	-8(%rbp), %rdx
	movl	%eax, (%rcx,%rdx,4)
	addl	$1, -4(%rbp)
	addl	$-1, -8(%rbp)
	jmp	.LBB3_9
	.p2align	4, 0x90
.LBB3_20:                               #   in Loop: Header=BB3_1 Depth=1
	movl	-28(%rbp), %eax
	cmpl	-32(%rbp), %eax
	jge	.LBB3_22
# %bb.21:                               #   in Loop: Header=BB3_1 Depth=1
	movl	-24(%rbp), %eax
	movslq	-12(%rbp), %rcx
	movl	%eax, -1392(%rbp,%rcx,4)
	movl	-20(%rbp), %eax
	movl	%eax, -992(%rbp,%rcx,4)
	movl	-16(%rbp), %eax
	addl	$1, %eax
	movl	%eax, -592(%rbp,%rcx,4)
	leal	1(%rcx), %eax
	movl	%eax, -12(%rbp)
	jmp	.LBB3_1
.LBB3_22:                               #   in Loop: Header=BB3_1 Depth=1
	movl	-32(%rbp), %eax
	movl	-4(%rbp), %ecx
	subl	%eax, %ecx
	subl	-24(%rbp), %eax
	cmpl	%ecx, %eax
	jge	.LBB3_24
# %bb.23:                               #   in Loop: Header=BB3_1 Depth=1
	movl	-32(%rbp), %eax
	subl	-24(%rbp), %eax
	jmp	.LBB3_25
.LBB3_24:                               #   in Loop: Header=BB3_1 Depth=1
	movl	-4(%rbp), %eax
	subl	-32(%rbp), %eax
.LBB3_25:                               #   in Loop: Header=BB3_1 Depth=1
	movl	%eax, -56(%rbp)
	movl	-24(%rbp), %ecx
	movl	%ecx, -104(%rbp)
	movl	-4(%rbp), %ecx
	subl	%eax, %ecx
	movl	%ecx, -88(%rbp)
	movl	%eax, -100(%rbp)
	cmpl	$0, -100(%rbp)
	jle	.LBB3_28
	.p2align	4, 0x90
.LBB3_27:                               #   Parent Loop BB3_1 Depth=1
                                        # =>  This Inner Loop Header: Depth=2
	movq	-40(%rbp), %rax
	movslq	-104(%rbp), %rcx
	movl	(%rax,%rcx,4), %edx
	movl	%edx, -128(%rbp)
	movslq	-88(%rbp), %rdx
	movl	(%rax,%rdx,4), %edx
	movl	%edx, (%rax,%rcx,4)
	movl	-128(%rbp), %eax
	movq	-40(%rbp), %rcx
	movslq	-88(%rbp), %rdx
	movl	%eax, (%rcx,%rdx,4)
	addl	$1, -104(%rbp)
	addl	$1, -88(%rbp)
	addl	$-1, -100(%rbp)
	cmpl	$0, -100(%rbp)
	jg	.LBB3_27
.LBB3_28:                               #   in Loop: Header=BB3_1 Depth=1
	movl	-20(%rbp), %eax
	movl	-28(%rbp), %ecx
	subl	%ecx, %eax
	subl	-8(%rbp), %ecx
	cmpl	%ecx, %eax
	jge	.LBB3_30
# %bb.29:                               #   in Loop: Header=BB3_1 Depth=1
	movl	-20(%rbp), %eax
	subl	-28(%rbp), %eax
	jmp	.LBB3_31
.LBB3_30:                               #   in Loop: Header=BB3_1 Depth=1
	movl	-28(%rbp), %eax
	subl	-8(%rbp), %eax
.LBB3_31:                               #   in Loop: Header=BB3_1 Depth=1
	movl	%eax, -144(%rbp)
	movl	-4(%rbp), %ecx
	movl	%ecx, -96(%rbp)
	movl	-20(%rbp), %ecx
	subl	%eax, %ecx
	addl	$1, %ecx
	movl	%ecx, -84(%rbp)
	movl	%eax, -92(%rbp)
	cmpl	$0, -92(%rbp)
	jle	.LBB3_34
	.p2align	4, 0x90
.LBB3_33:                               #   Parent Loop BB3_1 Depth=1
                                        # =>  This Inner Loop Header: Depth=2
	movq	-40(%rbp), %rax
	movslq	-96(%rbp), %rcx
	movl	(%rax,%rcx,4), %edx
	movl	%edx, -124(%rbp)
	movslq	-84(%rbp), %rdx
	movl	(%rax,%rdx,4), %edx
	movl	%edx, (%rax,%rcx,4)
	movl	-124(%rbp), %eax
	movq	-40(%rbp), %rcx
	movslq	-84(%rbp), %rdx
	movl	%eax, (%rcx,%rdx,4)
	addl	$1, -96(%rbp)
	addl	$1, -84(%rbp)
	addl	$-1, -92(%rbp)
	cmpl	$0, -92(%rbp)
	jg	.LBB3_33
.LBB3_34:                               #   in Loop: Header=BB3_1 Depth=1
	movl	-24(%rbp), %r9d
	movl	-4(%rbp), %ecx
	addl	%r9d, %ecx
	subl	-32(%rbp), %ecx
	leal	-1(%rcx), %edx
	movl	-8(%rbp), %esi
	subl	-28(%rbp), %esi
	movl	%edx, -56(%rbp)
	movl	-20(%rbp), %edi
	leal	(%rdi,%rsi), %r8d
	addl	%edi, %esi
	addl	$1, %esi
	movl	%esi, -144(%rbp)
	movl	%r9d, -80(%rbp)
	movl	%edx, -68(%rbp)
	movl	-16(%rbp), %eax
	movl	%eax, -52(%rbp)
	movl	%esi, -76(%rbp)
	movl	%edi, -64(%rbp)
	movl	%eax, -48(%rbp)
	movl	%ecx, -72(%rbp)
	movl	%r8d, -60(%rbp)
	movl	-16(%rbp), %eax
	addl	$1, %eax
	movl	%eax, -44(%rbp)
	subl	%r9d, %edx
	subl	%esi, %edi
	cmpl	%edi, %edx
	jge	.LBB3_36
# %bb.35:                               #   in Loop: Header=BB3_1 Depth=1
	rolq	$32, -80(%rbp)
	rolq	$32, -68(%rbp)
	movl	-52(%rbp), %eax
	movl	-48(%rbp), %ecx
	movl	%eax, -172(%rbp)
	movl	%ecx, -52(%rbp)
	movl	%eax, -48(%rbp)
.LBB3_36:                               #   in Loop: Header=BB3_1 Depth=1
	movl	-64(%rbp), %eax
	subl	-76(%rbp), %eax
	movl	-60(%rbp), %ecx
	subl	-72(%rbp), %ecx
	cmpl	%ecx, %eax
	jge	.LBB3_38
# %bb.37:                               #   in Loop: Header=BB3_1 Depth=1
	rolq	$32, -76(%rbp)
	rolq	$32, -64(%rbp)
	movl	-48(%rbp), %eax
	movl	-44(%rbp), %ecx
	movl	%eax, -168(%rbp)
	movl	%ecx, -48(%rbp)
	movl	%eax, -44(%rbp)
.LBB3_38:                               #   in Loop: Header=BB3_1 Depth=1
	movl	-68(%rbp), %eax
	subl	-80(%rbp), %eax
	movl	-64(%rbp), %ecx
	subl	-76(%rbp), %ecx
	cmpl	%ecx, %eax
	jge	.LBB3_40
# %bb.39:                               #   in Loop: Header=BB3_1 Depth=1
	rolq	$32, -80(%rbp)
	rolq	$32, -68(%rbp)
	movl	-52(%rbp), %eax
	movl	-48(%rbp), %ecx
	movl	%eax, -164(%rbp)
	movl	%ecx, -52(%rbp)
	movl	%eax, -48(%rbp)
.LBB3_40:                               #   in Loop: Header=BB3_1 Depth=1
	movslq	-12(%rbp), %rax
	movl	-80(%rbp), %ecx
	movl	-76(%rbp), %edx
	movl	%ecx, -1392(%rbp,%rax,4)
	movl	-68(%rbp), %ecx
	movl	-64(%rbp), %esi
	movl	%ecx, -992(%rbp,%rax,4)
	movl	-52(%rbp), %ecx
	movl	%ecx, -592(%rbp,%rax,4)
	leal	1(%rax), %ecx
	movl	%ecx, -12(%rbp)
	movl	%edx, -1388(%rbp,%rax,4)
	movl	%esi, -988(%rbp,%rax,4)
	movl	-48(%rbp), %ecx
	movl	%ecx, -588(%rbp,%rax,4)
	leal	2(%rax), %ecx
	movl	%ecx, -12(%rbp)
	movl	-72(%rbp), %ecx
	movl	%ecx, -1384(%rbp,%rax,4)
	movl	-60(%rbp), %ecx
	movl	%ecx, -984(%rbp,%rax,4)
	movl	-44(%rbp), %ecx
	movl	%ecx, -584(%rbp,%rax,4)
	addl	$3, %eax
	movl	%eax, -12(%rbp)
	jmp	.LBB3_1
.LBB3_7:
	addq	$1392, %rsp                     # imm = 0x570
	popq	%rbp
	.cfi_def_cfa %rsp, 8
	retq
.Lfunc_end3:
	.size	mainQSort3, .Lfunc_end3-mainQSort3
	.cfi_endproc
                                        # -- End function
	.p2align	4, 0x90                         # -- Begin function mainSimpleSort
	.type	mainSimpleSort,@function
mainSimpleSort:                         # @mainSimpleSort
	.cfi_startproc
# %bb.0:
	pushq	%rbp
	.cfi_def_cfa_offset 16
	.cfi_offset %rbp, -16
	movq	%rsp, %rbp
	.cfi_def_cfa_register %rbp
	subq	$80, %rsp
	movq	%rdi, -32(%rbp)
	movq	%rsi, -64(%rbp)
	movq	%rdx, -56(%rbp)
	movl	%ecx, -44(%rbp)
	movl	%r8d, -36(%rbp)
	movl	%r9d, -40(%rbp)
	subl	%r8d, %r9d
	addl	$1, %r9d
	movl	%r9d, -68(%rbp)
	cmpl	$2, %r9d
	jge	.LBB4_1
.LBB4_19:
	addq	$80, %rsp
	popq	%rbp
	.cfi_def_cfa %rsp, 8
	retq
.LBB4_1:
	.cfi_def_cfa %rbp, 16
	movl	$0, -20(%rbp)
	.p2align	4, 0x90
.LBB4_2:                                # =>This Inner Loop Header: Depth=1
	movslq	-20(%rbp), %rax
	movl	incs(,%rax,4), %eax
	cmpl	-68(%rbp), %eax
	jge	.LBB4_4
# %bb.3:                                #   in Loop: Header=BB4_2 Depth=1
	addl	$1, -20(%rbp)
	jmp	.LBB4_2
	.p2align	4, 0x90
.LBB4_5:                                #   in Loop: Header=BB4_4 Depth=1
	movslq	-20(%rbp), %rax
	movl	incs(,%rax,4), %eax
	movl	%eax, -8(%rbp)
	addl	-36(%rbp), %eax
	movl	%eax, -12(%rbp)
	jmp	.LBB4_6
	.p2align	4, 0x90
.LBB4_18:                               #   in Loop: Header=BB4_6 Depth=2
	movl	-16(%rbp), %eax
	movq	-32(%rbp), %rcx
	movslq	-4(%rbp), %rdx
	movl	%eax, (%rcx,%rdx,4)
	addl	$1, -12(%rbp)
	movq	24(%rbp), %rax
	cmpl	$0, (%rax)
	js	.LBB4_19
.LBB4_6:                                #   Parent Loop BB4_4 Depth=1
                                        # =>  This Loop Header: Depth=2
                                        #       Child Loop BB4_8 Depth 3
                                        #       Child Loop BB4_12 Depth 3
                                        #       Child Loop BB4_16 Depth 3
	movl	-12(%rbp), %eax
	cmpl	-40(%rbp), %eax
	jg	.LBB4_4
# %bb.7:                                #   in Loop: Header=BB4_6 Depth=2
	movq	-32(%rbp), %rax
	movslq	-12(%rbp), %rcx
	movl	(%rax,%rcx,4), %eax
	movl	%eax, -16(%rbp)
	movl	%ecx, -4(%rbp)
	.p2align	4, 0x90
.LBB4_8:                                #   Parent Loop BB4_4 Depth=1
                                        #     Parent Loop BB4_6 Depth=2
                                        # =>    This Inner Loop Header: Depth=3
	movq	-32(%rbp), %rax
	movslq	-4(%rbp), %rcx
	movslq	-8(%rbp), %rdx
	subq	%rdx, %rcx
	movl	16(%rbp), %esi
	movl	(%rax,%rcx,4), %edi
	addl	%esi, %edi
	addl	-16(%rbp), %esi
	movq	-64(%rbp), %rdx
	movq	-56(%rbp), %rcx
	movl	-44(%rbp), %r8d
	movq	24(%rbp), %r9
	callq	mainGtU
	testb	%al, %al
	je	.LBB4_10
# %bb.9:                                #   in Loop: Header=BB4_8 Depth=3
	movq	-32(%rbp), %rax
	movslq	-4(%rbp), %rcx
	movslq	-8(%rbp), %rdx
	movq	%rcx, %rsi
	subq	%rdx, %rsi
	movl	(%rax,%rsi,4), %edx
	movl	%edx, (%rax,%rcx,4)
	movl	-4(%rbp), %eax
	movl	-8(%rbp), %ecx
	subl	%ecx, %eax
	movl	%eax, -4(%rbp)
	movl	-36(%rbp), %edx
	addl	%edx, %ecx
	addl	$-1, %ecx
	cmpl	%ecx, %eax
	jg	.LBB4_8
.LBB4_10:                               #   in Loop: Header=BB4_6 Depth=2
	movl	-16(%rbp), %eax
	movq	-32(%rbp), %rcx
	movslq	-4(%rbp), %rdx
	movl	%eax, (%rcx,%rdx,4)
	movl	-12(%rbp), %eax
	addl	$1, %eax
	movl	%eax, -12(%rbp)
	cmpl	-40(%rbp), %eax
	jg	.LBB4_4
# %bb.11:                               #   in Loop: Header=BB4_6 Depth=2
	movq	-32(%rbp), %rax
	movslq	-12(%rbp), %rcx
	movl	(%rax,%rcx,4), %eax
	movl	%eax, -16(%rbp)
	movl	%ecx, -4(%rbp)
	.p2align	4, 0x90
.LBB4_12:                               #   Parent Loop BB4_4 Depth=1
                                        #     Parent Loop BB4_6 Depth=2
                                        # =>    This Inner Loop Header: Depth=3
	movq	-32(%rbp), %rax
	movslq	-4(%rbp), %rcx
	movslq	-8(%rbp), %rdx
	subq	%rdx, %rcx
	movl	16(%rbp), %esi
	movl	(%rax,%rcx,4), %edi
	addl	%esi, %edi
	addl	-16(%rbp), %esi
	movq	-64(%rbp), %rdx
	movq	-56(%rbp), %rcx
	movl	-44(%rbp), %r8d
	movq	24(%rbp), %r9
	callq	mainGtU
	testb	%al, %al
	je	.LBB4_14
# %bb.13:                               #   in Loop: Header=BB4_12 Depth=3
	movq	-32(%rbp), %rax
	movslq	-4(%rbp), %rcx
	movslq	-8(%rbp), %rdx
	movq	%rcx, %rsi
	subq	%rdx, %rsi
	movl	(%rax,%rsi,4), %edx
	movl	%edx, (%rax,%rcx,4)
	movl	-4(%rbp), %eax
	movl	-8(%rbp), %ecx
	subl	%ecx, %eax
	movl	%eax, -4(%rbp)
	movl	-36(%rbp), %edx
	addl	%edx, %ecx
	addl	$-1, %ecx
	cmpl	%ecx, %eax
	jg	.LBB4_12
.LBB4_14:                               #   in Loop: Header=BB4_6 Depth=2
	movl	-16(%rbp), %eax
	movq	-32(%rbp), %rcx
	movslq	-4(%rbp), %rdx
	movl	%eax, (%rcx,%rdx,4)
	movl	-12(%rbp), %eax
	addl	$1, %eax
	movl	%eax, -12(%rbp)
	cmpl	-40(%rbp), %eax
	jg	.LBB4_4
# %bb.15:                               #   in Loop: Header=BB4_6 Depth=2
	movq	-32(%rbp), %rax
	movslq	-12(%rbp), %rcx
	movl	(%rax,%rcx,4), %eax
	movl	%eax, -16(%rbp)
	movl	%ecx, -4(%rbp)
	.p2align	4, 0x90
.LBB4_16:                               #   Parent Loop BB4_4 Depth=1
                                        #     Parent Loop BB4_6 Depth=2
                                        # =>    This Inner Loop Header: Depth=3
	movq	-32(%rbp), %rax
	movslq	-4(%rbp), %rcx
	movslq	-8(%rbp), %rdx
	subq	%rdx, %rcx
	movl	16(%rbp), %esi
	movl	(%rax,%rcx,4), %edi
	addl	%esi, %edi
	addl	-16(%rbp), %esi
	movq	-64(%rbp), %rdx
	movq	-56(%rbp), %rcx
	movl	-44(%rbp), %r8d
	movq	24(%rbp), %r9
	callq	mainGtU
	testb	%al, %al
	je	.LBB4_18
# %bb.17:                               #   in Loop: Header=BB4_16 Depth=3
	movq	-32(%rbp), %rax
	movslq	-4(%rbp), %rcx
	movslq	-8(%rbp), %rdx
	movq	%rcx, %rsi
	subq	%rdx, %rsi
	movl	(%rax,%rsi,4), %edx
	movl	%edx, (%rax,%rcx,4)
	movl	-4(%rbp), %eax
	movl	-8(%rbp), %ecx
	subl	%ecx, %eax
	movl	%eax, -4(%rbp)
	movl	-36(%rbp), %edx
	addl	%edx, %ecx
	addl	$-1, %ecx
	cmpl	%ecx, %eax
	jg	.LBB4_16
	jmp	.LBB4_18
	.p2align	4, 0x90
.LBB4_4:                                # =>This Loop Header: Depth=1
                                        #     Child Loop BB4_6 Depth 2
                                        #       Child Loop BB4_8 Depth 3
                                        #       Child Loop BB4_12 Depth 3
                                        #       Child Loop BB4_16 Depth 3
	addl	$-1, -20(%rbp)
	cmpl	$0, -20(%rbp)
	jns	.LBB4_5
	jmp	.LBB4_19
.Lfunc_end4:
	.size	mainSimpleSort, .Lfunc_end4-mainSimpleSort
	.cfi_endproc
                                        # -- End function
	.p2align	4, 0x90                         # -- Begin function mmed3
	.type	mmed3,@function
mmed3:                                  # @mmed3
	.cfi_startproc
# %bb.0:
	pushq	%rbp
	.cfi_def_cfa_offset 16
	.cfi_offset %rbp, -16
	movq	%rsp, %rbp
	.cfi_def_cfa_register %rbp
	movb	%dil, -2(%rbp)
	movb	%sil, -1(%rbp)
	movb	%dl, -3(%rbp)
	cmpl	%esi, %edi
	jle	.LBB5_2
# %bb.1:
	movb	-2(%rbp), %al
	movb	%al, -4(%rbp)
	movb	-1(%rbp), %cl
	movb	%cl, -2(%rbp)
	movb	%al, -1(%rbp)
.LBB5_2:
	movzbl	-1(%rbp), %eax
	movzbl	-3(%rbp), %ecx
	cmpl	%ecx, %eax
	jle	.LBB5_5
# %bb.3:
	movzbl	-3(%rbp), %eax
	movb	%al, -1(%rbp)
	movzbl	-2(%rbp), %ecx
	cmpl	%eax, %ecx
	jle	.LBB5_5
# %bb.4:
	movb	-2(%rbp), %al
	movb	%al, -1(%rbp)
.LBB5_5:
	movb	-1(%rbp), %al
	popq	%rbp
	.cfi_def_cfa %rsp, 8
	retq
.Lfunc_end5:
	.size	mmed3, .Lfunc_end5-mmed3
	.cfi_endproc
                                        # -- End function
	.p2align	4, 0x90                         # -- Begin function mainGtU
	.type	mainGtU,@function
mainGtU:                                # @mainGtU
	.cfi_startproc
# %bb.0:
	pushq	%rbp
	.cfi_def_cfa_offset 16
	.cfi_offset %rbp, -16
	movq	%rsp, %rbp
	.cfi_def_cfa_register %rbp
	movl	%edi, -12(%rbp)
	movl	%esi, -8(%rbp)
	movq	%rdx, -24(%rbp)
	movq	%rcx, -40(%rbp)
	movl	%r8d, -28(%rbp)
	movq	%r9, -56(%rbp)
	movl	%edi, %eax
	movzbl	(%rdx,%rax), %eax
	movb	%al, -2(%rbp)
	movl	%esi, %ecx
	movzbl	(%rdx,%rcx), %ecx
	movb	%cl, -1(%rbp)
	cmpl	%ecx, %eax
	jne	.LBB6_1
# %bb.3:
	movl	-12(%rbp), %eax
	addl	$1, %eax
	movl	%eax, -12(%rbp)
	movl	-8(%rbp), %ecx
	addl	$1, %ecx
	movl	%ecx, -8(%rbp)
	movq	-24(%rbp), %rdx
	movzbl	(%rdx,%rax), %eax
	movb	%al, -2(%rbp)
	movzbl	(%rdx,%rcx), %ecx
	movb	%cl, -1(%rbp)
	cmpl	%ecx, %eax
	jne	.LBB6_1
# %bb.4:
	movl	-12(%rbp), %eax
	addl	$1, %eax
	movl	%eax, -12(%rbp)
	movl	-8(%rbp), %ecx
	addl	$1, %ecx
	movl	%ecx, -8(%rbp)
	movq	-24(%rbp), %rdx
	movzbl	(%rdx,%rax), %eax
	movb	%al, -2(%rbp)
	movzbl	(%rdx,%rcx), %ecx
	movb	%cl, -1(%rbp)
	cmpl	%ecx, %eax
	jne	.LBB6_1
# %bb.5:
	movl	-12(%rbp), %eax
	addl	$1, %eax
	movl	%eax, -12(%rbp)
	movl	-8(%rbp), %ecx
	addl	$1, %ecx
	movl	%ecx, -8(%rbp)
	movq	-24(%rbp), %rdx
	movzbl	(%rdx,%rax), %eax
	movb	%al, -2(%rbp)
	movzbl	(%rdx,%rcx), %ecx
	movb	%cl, -1(%rbp)
	cmpl	%ecx, %eax
	jne	.LBB6_1
# %bb.6:
	movl	-12(%rbp), %eax
	addl	$1, %eax
	movl	%eax, -12(%rbp)
	movl	-8(%rbp), %ecx
	addl	$1, %ecx
	movl	%ecx, -8(%rbp)
	movq	-24(%rbp), %rdx
	movzbl	(%rdx,%rax), %eax
	movb	%al, -2(%rbp)
	movzbl	(%rdx,%rcx), %ecx
	movb	%cl, -1(%rbp)
	cmpl	%ecx, %eax
	jne	.LBB6_1
# %bb.7:
	movl	-12(%rbp), %eax
	addl	$1, %eax
	movl	%eax, -12(%rbp)
	movl	-8(%rbp), %ecx
	addl	$1, %ecx
	movl	%ecx, -8(%rbp)
	movq	-24(%rbp), %rdx
	movzbl	(%rdx,%rax), %eax
	movb	%al, -2(%rbp)
	movzbl	(%rdx,%rcx), %ecx
	movb	%cl, -1(%rbp)
	cmpl	%ecx, %eax
	jne	.LBB6_1
# %bb.8:
	movl	-12(%rbp), %eax
	addl	$1, %eax
	movl	%eax, -12(%rbp)
	movl	-8(%rbp), %ecx
	addl	$1, %ecx
	movl	%ecx, -8(%rbp)
	movq	-24(%rbp), %rdx
	movzbl	(%rdx,%rax), %eax
	movb	%al, -2(%rbp)
	movzbl	(%rdx,%rcx), %ecx
	movb	%cl, -1(%rbp)
	cmpl	%ecx, %eax
	jne	.LBB6_1
# %bb.9:
	movl	-12(%rbp), %eax
	addl	$1, %eax
	movl	%eax, -12(%rbp)
	movl	-8(%rbp), %ecx
	addl	$1, %ecx
	movl	%ecx, -8(%rbp)
	movq	-24(%rbp), %rdx
	movzbl	(%rdx,%rax), %eax
	movb	%al, -2(%rbp)
	movzbl	(%rdx,%rcx), %ecx
	movb	%cl, -1(%rbp)
	cmpl	%ecx, %eax
	jne	.LBB6_1
# %bb.10:
	movl	-12(%rbp), %eax
	addl	$1, %eax
	movl	%eax, -12(%rbp)
	movl	-8(%rbp), %ecx
	addl	$1, %ecx
	movl	%ecx, -8(%rbp)
	movq	-24(%rbp), %rdx
	movzbl	(%rdx,%rax), %eax
	movb	%al, -2(%rbp)
	movzbl	(%rdx,%rcx), %ecx
	movb	%cl, -1(%rbp)
	cmpl	%ecx, %eax
	jne	.LBB6_1
# %bb.11:
	movl	-12(%rbp), %eax
	addl	$1, %eax
	movl	%eax, -12(%rbp)
	movl	-8(%rbp), %ecx
	addl	$1, %ecx
	movl	%ecx, -8(%rbp)
	movq	-24(%rbp), %rdx
	movzbl	(%rdx,%rax), %eax
	movb	%al, -2(%rbp)
	movzbl	(%rdx,%rcx), %ecx
	movb	%cl, -1(%rbp)
	cmpl	%ecx, %eax
	jne	.LBB6_1
# %bb.12:
	movl	-12(%rbp), %eax
	addl	$1, %eax
	movl	%eax, -12(%rbp)
	movl	-8(%rbp), %ecx
	addl	$1, %ecx
	movl	%ecx, -8(%rbp)
	movq	-24(%rbp), %rdx
	movzbl	(%rdx,%rax), %eax
	movb	%al, -2(%rbp)
	movzbl	(%rdx,%rcx), %ecx
	movb	%cl, -1(%rbp)
	cmpl	%ecx, %eax
	jne	.LBB6_1
# %bb.13:
	movl	-12(%rbp), %eax
	addl	$1, %eax
	movl	%eax, -12(%rbp)
	movl	-8(%rbp), %ecx
	addl	$1, %ecx
	movl	%ecx, -8(%rbp)
	movq	-24(%rbp), %rdx
	movzbl	(%rdx,%rax), %eax
	movb	%al, -2(%rbp)
	movzbl	(%rdx,%rcx), %ecx
	movb	%cl, -1(%rbp)
	cmpl	%ecx, %eax
	je	.LBB6_14
.LBB6_1:
	movzbl	-2(%rbp), %eax
	movzbl	-1(%rbp), %ecx
.LBB6_2:
	cmpl	%ecx, %eax
	setg	-3(%rbp)
.LBB6_38:
	movb	-3(%rbp), %al
	popq	%rbp
	.cfi_def_cfa %rsp, 8
	retq
.LBB6_14:
	.cfi_def_cfa %rbp, 16
	addl	$1, -12(%rbp)
	addl	$1, -8(%rbp)
	movl	-28(%rbp), %eax
	addl	$8, %eax
	movl	%eax, -44(%rbp)
	jmp	.LBB6_15
.LBB6_36:                               #   in Loop: Header=BB6_15 Depth=1
	addl	$-8, -44(%rbp)
	movq	-56(%rbp), %rax
	addl	$-1, (%rax)
	cmpl	$0, -44(%rbp)
	js	.LBB6_37
.LBB6_15:                               # =>This Inner Loop Header: Depth=1
	movq	-24(%rbp), %rax
	movl	-12(%rbp), %ecx
	movzbl	(%rax,%rcx), %ecx
	movb	%cl, -2(%rbp)
	movl	-8(%rbp), %edx
	movzbl	(%rax,%rdx), %eax
	movb	%al, -1(%rbp)
	cmpl	%eax, %ecx
	jne	.LBB6_1
# %bb.16:                               #   in Loop: Header=BB6_15 Depth=1
	movq	-40(%rbp), %rax
	movl	-12(%rbp), %ecx
	movzwl	(%rax,%rcx,2), %ecx
	movw	%cx, -16(%rbp)
	movl	-8(%rbp), %edx
	movzwl	(%rax,%rdx,2), %eax
	movw	%ax, -14(%rbp)
	cmpl	%eax, %ecx
	jne	.LBB6_17
# %bb.18:                               #   in Loop: Header=BB6_15 Depth=1
	movl	-12(%rbp), %eax
	addl	$1, %eax
	movl	%eax, -12(%rbp)
	movl	-8(%rbp), %ecx
	addl	$1, %ecx
	movl	%ecx, -8(%rbp)
	movq	-24(%rbp), %rdx
	movzbl	(%rdx,%rax), %eax
	movb	%al, -2(%rbp)
	movzbl	(%rdx,%rcx), %ecx
	movb	%cl, -1(%rbp)
	cmpl	%ecx, %eax
	jne	.LBB6_1
# %bb.19:                               #   in Loop: Header=BB6_15 Depth=1
	movq	-40(%rbp), %rax
	movl	-12(%rbp), %ecx
	movzwl	(%rax,%rcx,2), %ecx
	movw	%cx, -16(%rbp)
	movl	-8(%rbp), %edx
	movzwl	(%rax,%rdx,2), %eax
	movw	%ax, -14(%rbp)
	cmpl	%eax, %ecx
	jne	.LBB6_17
# %bb.20:                               #   in Loop: Header=BB6_15 Depth=1
	movl	-12(%rbp), %eax
	addl	$1, %eax
	movl	%eax, -12(%rbp)
	movl	-8(%rbp), %ecx
	addl	$1, %ecx
	movl	%ecx, -8(%rbp)
	movq	-24(%rbp), %rdx
	movzbl	(%rdx,%rax), %eax
	movb	%al, -2(%rbp)
	movzbl	(%rdx,%rcx), %ecx
	movb	%cl, -1(%rbp)
	cmpl	%ecx, %eax
	jne	.LBB6_1
# %bb.21:                               #   in Loop: Header=BB6_15 Depth=1
	movq	-40(%rbp), %rax
	movl	-12(%rbp), %ecx
	movzwl	(%rax,%rcx,2), %ecx
	movw	%cx, -16(%rbp)
	movl	-8(%rbp), %edx
	movzwl	(%rax,%rdx,2), %eax
	movw	%ax, -14(%rbp)
	cmpl	%eax, %ecx
	jne	.LBB6_17
# %bb.22:                               #   in Loop: Header=BB6_15 Depth=1
	movl	-12(%rbp), %eax
	addl	$1, %eax
	movl	%eax, -12(%rbp)
	movl	-8(%rbp), %ecx
	addl	$1, %ecx
	movl	%ecx, -8(%rbp)
	movq	-24(%rbp), %rdx
	movzbl	(%rdx,%rax), %eax
	movb	%al, -2(%rbp)
	movzbl	(%rdx,%rcx), %ecx
	movb	%cl, -1(%rbp)
	cmpl	%ecx, %eax
	jne	.LBB6_1
# %bb.23:                               #   in Loop: Header=BB6_15 Depth=1
	movq	-40(%rbp), %rax
	movl	-12(%rbp), %ecx
	movzwl	(%rax,%rcx,2), %ecx
	movw	%cx, -16(%rbp)
	movl	-8(%rbp), %edx
	movzwl	(%rax,%rdx,2), %eax
	movw	%ax, -14(%rbp)
	cmpl	%eax, %ecx
	jne	.LBB6_17
# %bb.24:                               #   in Loop: Header=BB6_15 Depth=1
	movl	-12(%rbp), %eax
	addl	$1, %eax
	movl	%eax, -12(%rbp)
	movl	-8(%rbp), %ecx
	addl	$1, %ecx
	movl	%ecx, -8(%rbp)
	movq	-24(%rbp), %rdx
	movzbl	(%rdx,%rax), %eax
	movb	%al, -2(%rbp)
	movzbl	(%rdx,%rcx), %ecx
	movb	%cl, -1(%rbp)
	cmpl	%ecx, %eax
	jne	.LBB6_1
# %bb.25:                               #   in Loop: Header=BB6_15 Depth=1
	movq	-40(%rbp), %rax
	movl	-12(%rbp), %ecx
	movzwl	(%rax,%rcx,2), %ecx
	movw	%cx, -16(%rbp)
	movl	-8(%rbp), %edx
	movzwl	(%rax,%rdx,2), %eax
	movw	%ax, -14(%rbp)
	cmpl	%eax, %ecx
	jne	.LBB6_17
# %bb.26:                               #   in Loop: Header=BB6_15 Depth=1
	movl	-12(%rbp), %eax
	addl	$1, %eax
	movl	%eax, -12(%rbp)
	movl	-8(%rbp), %ecx
	addl	$1, %ecx
	movl	%ecx, -8(%rbp)
	movq	-24(%rbp), %rdx
	movzbl	(%rdx,%rax), %eax
	movb	%al, -2(%rbp)
	movzbl	(%rdx,%rcx), %ecx
	movb	%cl, -1(%rbp)
	cmpl	%ecx, %eax
	jne	.LBB6_1
# %bb.27:                               #   in Loop: Header=BB6_15 Depth=1
	movq	-40(%rbp), %rax
	movl	-12(%rbp), %ecx
	movzwl	(%rax,%rcx,2), %ecx
	movw	%cx, -16(%rbp)
	movl	-8(%rbp), %edx
	movzwl	(%rax,%rdx,2), %eax
	movw	%ax, -14(%rbp)
	cmpl	%eax, %ecx
	jne	.LBB6_17
# %bb.28:                               #   in Loop: Header=BB6_15 Depth=1
	movl	-12(%rbp), %eax
	addl	$1, %eax
	movl	%eax, -12(%rbp)
	movl	-8(%rbp), %ecx
	addl	$1, %ecx
	movl	%ecx, -8(%rbp)
	movq	-24(%rbp), %rdx
	movzbl	(%rdx,%rax), %eax
	movb	%al, -2(%rbp)
	movzbl	(%rdx,%rcx), %ecx
	movb	%cl, -1(%rbp)
	cmpl	%ecx, %eax
	jne	.LBB6_1
# %bb.29:                               #   in Loop: Header=BB6_15 Depth=1
	movq	-40(%rbp), %rax
	movl	-12(%rbp), %ecx
	movzwl	(%rax,%rcx,2), %ecx
	movw	%cx, -16(%rbp)
	movl	-8(%rbp), %edx
	movzwl	(%rax,%rdx,2), %eax
	movw	%ax, -14(%rbp)
	cmpl	%eax, %ecx
	jne	.LBB6_17
# %bb.30:                               #   in Loop: Header=BB6_15 Depth=1
	movl	-12(%rbp), %eax
	addl	$1, %eax
	movl	%eax, -12(%rbp)
	movl	-8(%rbp), %ecx
	addl	$1, %ecx
	movl	%ecx, -8(%rbp)
	movq	-24(%rbp), %rdx
	movzbl	(%rdx,%rax), %eax
	movb	%al, -2(%rbp)
	movzbl	(%rdx,%rcx), %ecx
	movb	%cl, -1(%rbp)
	cmpl	%ecx, %eax
	jne	.LBB6_1
# %bb.31:                               #   in Loop: Header=BB6_15 Depth=1
	movq	-40(%rbp), %rax
	movl	-12(%rbp), %ecx
	movzwl	(%rax,%rcx,2), %ecx
	movw	%cx, -16(%rbp)
	movl	-8(%rbp), %edx
	movzwl	(%rax,%rdx,2), %eax
	movw	%ax, -14(%rbp)
	cmpl	%eax, %ecx
	jne	.LBB6_17
# %bb.32:                               #   in Loop: Header=BB6_15 Depth=1
	movl	-12(%rbp), %eax
	addl	$1, -8(%rbp)
	addl	$1, %eax
	movl	%eax, -12(%rbp)
	cmpl	-28(%rbp), %eax
	jb	.LBB6_34
# %bb.33:                               #   in Loop: Header=BB6_15 Depth=1
	movl	-28(%rbp), %eax
	subl	%eax, -12(%rbp)
.LBB6_34:                               #   in Loop: Header=BB6_15 Depth=1
	movl	-8(%rbp), %eax
	cmpl	-28(%rbp), %eax
	jb	.LBB6_36
# %bb.35:                               #   in Loop: Header=BB6_15 Depth=1
	movl	-28(%rbp), %eax
	subl	%eax, -8(%rbp)
	jmp	.LBB6_36
.LBB6_17:
	movzwl	-16(%rbp), %eax
	movzwl	-14(%rbp), %ecx
	jmp	.LBB6_2
.LBB6_37:
	movb	$0, -3(%rbp)
	jmp	.LBB6_38
.Lfunc_end6:
	.size	mainGtU, .Lfunc_end6-mainGtU
	.cfi_endproc
                                        # -- End function
	.p2align	4, 0x90                         # -- Begin function fallbackQSort3
	.type	fallbackQSort3,@function
fallbackQSort3:                         # @fallbackQSort3
	.cfi_startproc
# %bb.0:
	pushq	%rbp
	.cfi_def_cfa_offset 16
	.cfi_offset %rbp, -16
	movq	%rsp, %rbp
	.cfi_def_cfa_register %rbp
	pushq	%rbx
	subq	$936, %rsp                      # imm = 0x3A8
	.cfi_offset %rbx, -24
	movq	%rdi, -48(%rbp)
	movq	%rsi, -80(%rbp)
	movl	%edx, -132(%rbp)
	movl	%ecx, -128(%rbp)
	movl	$0, -100(%rbp)
	movl	%edx, -944(%rbp)
	movl	%ecx, -544(%rbp)
	movl	$1, -28(%rbp)
	movl	$2863311531, %ebx               # imm = 0xAAAAAAAB
	jmp	.LBB7_1
	.p2align	4, 0x90
.LBB7_5:                                #   in Loop: Header=BB7_1 Depth=1
	movq	-48(%rbp), %rdi
	movq	-80(%rbp), %rsi
	movl	-24(%rbp), %edx
	movl	-20(%rbp), %ecx
	callq	fallbackSimpleSort
.LBB7_1:                                # =>This Loop Header: Depth=1
                                        #     Child Loop BB7_12 Depth 2
                                        #       Child Loop BB7_17 Depth 3
                                        #     Child Loop BB7_29 Depth 2
                                        #     Child Loop BB7_35 Depth 2
	cmpl	$0, -28(%rbp)
	jle	.LBB7_40
# %bb.2:                                #   in Loop: Header=BB7_1 Depth=1
	cmpl	$99, -28(%rbp)
	jl	.LBB7_4
# %bb.3:                                #   in Loop: Header=BB7_1 Depth=1
	movl	$1004, %edi                     # imm = 0x3EC
	callq	BZ2_bz__AssertH__fail
.LBB7_4:                                #   in Loop: Header=BB7_1 Depth=1
	movslq	-28(%rbp), %rax
	leal	-1(%rax), %ecx
	movl	%ecx, -28(%rbp)
	movl	-948(%rbp,%rax,4), %ecx
	movl	%ecx, -24(%rbp)
	movl	-548(%rbp,%rax,4), %eax
	movl	%eax, -20(%rbp)
	subl	%ecx, %eax
	cmpl	$9, %eax
	jle	.LBB7_5
# %bb.6:                                #   in Loop: Header=BB7_1 Depth=1
	imull	$7621, -100(%rbp), %eax         # imm = 0x1DC5
	addl	$1, %eax
	andl	$32767, %eax                    # imm = 0x7FFF
	movl	%eax, -100(%rbp)
	movq	%rax, %rcx
	imulq	%rbx, %rcx
	shrq	$33, %rcx
	leal	(%rcx,%rcx,2), %ecx
	subl	%ecx, %eax
	movl	%eax, -124(%rbp)
	je	.LBB7_7
# %bb.8:                                #   in Loop: Header=BB7_1 Depth=1
	cmpl	$1, -124(%rbp)
	jne	.LBB7_10
# %bb.9:                                #   in Loop: Header=BB7_1 Depth=1
	movq	-80(%rbp), %rax
	movq	-48(%rbp), %rcx
	movl	-24(%rbp), %edx
	addl	-20(%rbp), %edx
	sarl	%edx
	movslq	%edx, %rdx
	jmp	.LBB7_11
.LBB7_7:                                #   in Loop: Header=BB7_1 Depth=1
	movq	-80(%rbp), %rax
	movq	-48(%rbp), %rcx
	movslq	-24(%rbp), %rdx
	jmp	.LBB7_11
.LBB7_10:                               #   in Loop: Header=BB7_1 Depth=1
	movq	-80(%rbp), %rax
	movq	-48(%rbp), %rcx
	movslq	-20(%rbp), %rdx
.LBB7_11:                               #   in Loop: Header=BB7_1 Depth=1
	movl	(%rcx,%rdx,4), %ecx
	movl	(%rax,%rcx,4), %eax
	movl	%eax, -56(%rbp)
	movl	-24(%rbp), %eax
	movl	%eax, -36(%rbp)
	movl	%eax, -12(%rbp)
	movl	-20(%rbp), %eax
	movl	%eax, -32(%rbp)
	movl	%eax, -16(%rbp)
	jmp	.LBB7_12
	.p2align	4, 0x90
.LBB7_14:                               #   in Loop: Header=BB7_12 Depth=2
	movq	-48(%rbp), %rax
	movslq	-12(%rbp), %rcx
	movl	(%rax,%rcx,4), %edx
	movl	%edx, -120(%rbp)
	movslq	-36(%rbp), %rdx
	movl	(%rax,%rdx,4), %edx
	movl	%edx, (%rax,%rcx,4)
	movl	-120(%rbp), %eax
	movq	-48(%rbp), %rcx
	movslq	-36(%rbp), %rdx
	movl	%eax, (%rcx,%rdx,4)
	addl	$1, -36(%rbp)
	addl	$1, -12(%rbp)
.LBB7_12:                               #   Parent Loop BB7_1 Depth=1
                                        # =>  This Loop Header: Depth=2
                                        #       Child Loop BB7_17 Depth 3
	movl	-12(%rbp), %eax
	cmpl	-16(%rbp), %eax
	jg	.LBB7_17
# %bb.13:                               #   in Loop: Header=BB7_12 Depth=2
	movq	-80(%rbp), %rax
	movq	-48(%rbp), %rcx
	movslq	-12(%rbp), %rdx
	movl	(%rcx,%rdx,4), %ecx
	movl	(%rax,%rcx,4), %eax
	subl	-56(%rbp), %eax
	movl	%eax, -52(%rbp)
	je	.LBB7_14
# %bb.15:                               #   in Loop: Header=BB7_12 Depth=2
	cmpl	$0, -52(%rbp)
	jg	.LBB7_17
# %bb.16:                               #   in Loop: Header=BB7_12 Depth=2
	addl	$1, -12(%rbp)
	jmp	.LBB7_12
	.p2align	4, 0x90
.LBB7_19:                               #   in Loop: Header=BB7_17 Depth=3
	movq	-48(%rbp), %rax
	movslq	-16(%rbp), %rcx
	movl	(%rax,%rcx,4), %edx
	movl	%edx, -116(%rbp)
	movslq	-32(%rbp), %rdx
	movl	(%rax,%rdx,4), %edx
	movl	%edx, (%rax,%rcx,4)
	movl	-116(%rbp), %eax
	movq	-48(%rbp), %rcx
	movslq	-32(%rbp), %rdx
	movl	%eax, (%rcx,%rdx,4)
	addl	$-1, -32(%rbp)
	addl	$-1, -16(%rbp)
.LBB7_17:                               #   Parent Loop BB7_1 Depth=1
                                        #     Parent Loop BB7_12 Depth=2
                                        # =>    This Inner Loop Header: Depth=3
	movl	-12(%rbp), %eax
	cmpl	-16(%rbp), %eax
	jg	.LBB7_22
# %bb.18:                               #   in Loop: Header=BB7_17 Depth=3
	movq	-80(%rbp), %rax
	movq	-48(%rbp), %rcx
	movslq	-16(%rbp), %rdx
	movl	(%rcx,%rdx,4), %ecx
	movl	(%rax,%rcx,4), %eax
	subl	-56(%rbp), %eax
	movl	%eax, -52(%rbp)
	je	.LBB7_19
# %bb.20:                               #   in Loop: Header=BB7_17 Depth=3
	cmpl	$0, -52(%rbp)
	js	.LBB7_22
# %bb.21:                               #   in Loop: Header=BB7_17 Depth=3
	addl	$-1, -16(%rbp)
	jmp	.LBB7_17
.LBB7_22:                               #   in Loop: Header=BB7_12 Depth=2
	movl	-12(%rbp), %eax
	cmpl	-16(%rbp), %eax
	jg	.LBB7_23
# %bb.41:                               #   in Loop: Header=BB7_12 Depth=2
	movq	-48(%rbp), %rax
	movslq	-12(%rbp), %rcx
	movl	(%rax,%rcx,4), %edx
	movl	%edx, -112(%rbp)
	movslq	-16(%rbp), %rdx
	movl	(%rax,%rdx,4), %edx
	movl	%edx, (%rax,%rcx,4)
	movl	-112(%rbp), %eax
	movq	-48(%rbp), %rcx
	movslq	-16(%rbp), %rdx
	movl	%eax, (%rcx,%rdx,4)
	addl	$1, -12(%rbp)
	addl	$-1, -16(%rbp)
	jmp	.LBB7_12
	.p2align	4, 0x90
.LBB7_23:                               #   in Loop: Header=BB7_1 Depth=1
	movl	-32(%rbp), %eax
	cmpl	-36(%rbp), %eax
	jl	.LBB7_1
# %bb.24:                               #   in Loop: Header=BB7_1 Depth=1
	movl	-36(%rbp), %eax
	movl	-12(%rbp), %ecx
	subl	%eax, %ecx
	subl	-24(%rbp), %eax
	cmpl	%ecx, %eax
	jge	.LBB7_26
# %bb.25:                               #   in Loop: Header=BB7_1 Depth=1
	movl	-36(%rbp), %eax
	subl	-24(%rbp), %eax
	jmp	.LBB7_27
.LBB7_26:                               #   in Loop: Header=BB7_1 Depth=1
	movl	-12(%rbp), %eax
	subl	-36(%rbp), %eax
.LBB7_27:                               #   in Loop: Header=BB7_1 Depth=1
	movl	%eax, -52(%rbp)
	movl	-24(%rbp), %ecx
	movl	%ecx, -96(%rbp)
	movl	-12(%rbp), %ecx
	subl	%eax, %ecx
	movl	%ecx, -64(%rbp)
	movl	%eax, -92(%rbp)
	cmpl	$0, -92(%rbp)
	jle	.LBB7_30
	.p2align	4, 0x90
.LBB7_29:                               #   Parent Loop BB7_1 Depth=1
                                        # =>  This Inner Loop Header: Depth=2
	movq	-48(%rbp), %rax
	movslq	-96(%rbp), %rcx
	movl	(%rax,%rcx,4), %edx
	movl	%edx, -108(%rbp)
	movslq	-64(%rbp), %rdx
	movl	(%rax,%rdx,4), %edx
	movl	%edx, (%rax,%rcx,4)
	movl	-108(%rbp), %eax
	movq	-48(%rbp), %rcx
	movslq	-64(%rbp), %rdx
	movl	%eax, (%rcx,%rdx,4)
	addl	$1, -96(%rbp)
	addl	$1, -64(%rbp)
	addl	$-1, -92(%rbp)
	cmpl	$0, -92(%rbp)
	jg	.LBB7_29
.LBB7_30:                               #   in Loop: Header=BB7_1 Depth=1
	movl	-20(%rbp), %eax
	movl	-32(%rbp), %ecx
	subl	%ecx, %eax
	subl	-16(%rbp), %ecx
	cmpl	%ecx, %eax
	jge	.LBB7_32
# %bb.31:                               #   in Loop: Header=BB7_1 Depth=1
	movl	-20(%rbp), %eax
	subl	-32(%rbp), %eax
	jmp	.LBB7_33
.LBB7_32:                               #   in Loop: Header=BB7_1 Depth=1
	movl	-32(%rbp), %eax
	subl	-16(%rbp), %eax
.LBB7_33:                               #   in Loop: Header=BB7_1 Depth=1
	movl	%eax, -68(%rbp)
	movl	-12(%rbp), %ecx
	movl	%ecx, -88(%rbp)
	movl	-20(%rbp), %ecx
	subl	%eax, %ecx
	addl	$1, %ecx
	movl	%ecx, -60(%rbp)
	movl	%eax, -84(%rbp)
	cmpl	$0, -84(%rbp)
	jle	.LBB7_36
	.p2align	4, 0x90
.LBB7_35:                               #   Parent Loop BB7_1 Depth=1
                                        # =>  This Inner Loop Header: Depth=2
	movq	-48(%rbp), %rax
	movslq	-88(%rbp), %rcx
	movl	(%rax,%rcx,4), %edx
	movl	%edx, -104(%rbp)
	movslq	-60(%rbp), %rdx
	movl	(%rax,%rdx,4), %edx
	movl	%edx, (%rax,%rcx,4)
	movl	-104(%rbp), %eax
	movq	-48(%rbp), %rcx
	movslq	-60(%rbp), %rdx
	movl	%eax, (%rcx,%rdx,4)
	addl	$1, -88(%rbp)
	addl	$1, -60(%rbp)
	addl	$-1, -84(%rbp)
	cmpl	$0, -84(%rbp)
	jg	.LBB7_35
.LBB7_36:                               #   in Loop: Header=BB7_1 Depth=1
	movl	-12(%rbp), %eax
	movl	-24(%rbp), %ecx
	addl	%eax, %ecx
	movl	-36(%rbp), %edx
	notl	%edx
	addl	%edx, %ecx
	movl	%ecx, -52(%rbp)
	movl	-16(%rbp), %ecx
	subl	-32(%rbp), %ecx
	movl	-20(%rbp), %esi
	addl	%esi, %ecx
	addl	$1, %ecx
	movl	%ecx, -68(%rbp)
	addl	%eax, %edx
	subl	%ecx, %esi
	cmpl	%esi, %edx
	jle	.LBB7_39
# %bb.37:                               #   in Loop: Header=BB7_1 Depth=1
	movl	-24(%rbp), %eax
	movslq	-28(%rbp), %rcx
	movl	%eax, -944(%rbp,%rcx,4)
	movl	-52(%rbp), %eax
	movl	%eax, -544(%rbp,%rcx,4)
	movl	-68(%rbp), %eax
	movl	%eax, -940(%rbp,%rcx,4)
	movl	-20(%rbp), %eax
	jmp	.LBB7_38
.LBB7_39:                               #   in Loop: Header=BB7_1 Depth=1
	movl	-68(%rbp), %eax
	movslq	-28(%rbp), %rcx
	movl	%eax, -944(%rbp,%rcx,4)
	movl	-20(%rbp), %eax
	movl	%eax, -544(%rbp,%rcx,4)
	movl	-24(%rbp), %eax
	movl	%eax, -940(%rbp,%rcx,4)
	movl	-52(%rbp), %eax
.LBB7_38:                               #   in Loop: Header=BB7_1 Depth=1
	movl	%eax, -540(%rbp,%rcx,4)
	leal	2(%rcx), %eax
	movl	%eax, -28(%rbp)
	jmp	.LBB7_1
.LBB7_40:
	addq	$936, %rsp                      # imm = 0x3A8
	popq	%rbx
	popq	%rbp
	.cfi_def_cfa %rsp, 8
	retq
.Lfunc_end7:
	.size	fallbackQSort3, .Lfunc_end7-fallbackQSort3
	.cfi_endproc
                                        # -- End function
	.p2align	4, 0x90                         # -- Begin function fallbackSimpleSort
	.type	fallbackSimpleSort,@function
fallbackSimpleSort:                     # @fallbackSimpleSort
	.cfi_startproc
# %bb.0:
	pushq	%rbp
	.cfi_def_cfa_offset 16
	.cfi_offset %rbp, -16
	movq	%rsp, %rbp
	.cfi_def_cfa_register %rbp
	movq	%rdi, -24(%rbp)
	movq	%rsi, -48(%rbp)
	movl	%edx, -36(%rbp)
	movl	%ecx, -12(%rbp)
	cmpl	%ecx, %edx
	jne	.LBB8_1
.LBB8_20:
	popq	%rbp
	.cfi_def_cfa %rsp, 8
	retq
.LBB8_1:
	.cfi_def_cfa %rbp, 16
	movl	-12(%rbp), %eax
	subl	-36(%rbp), %eax
	cmpl	$4, %eax
	jl	.LBB8_11
# %bb.2:
	movl	-12(%rbp), %eax
	addl	$-4, %eax
	movl	%eax, -8(%rbp)
	jmp	.LBB8_3
	.p2align	4, 0x90
.LBB8_10:                               #   in Loop: Header=BB8_3 Depth=1
	movl	-32(%rbp), %eax
	movq	-24(%rbp), %rcx
	movslq	-4(%rbp), %rdx
	movl	%eax, -16(%rcx,%rdx,4)
	addl	$-1, -8(%rbp)
.LBB8_3:                                # =>This Loop Header: Depth=1
                                        #     Child Loop BB8_5 Depth 2
	movl	-8(%rbp), %eax
	cmpl	-36(%rbp), %eax
	jl	.LBB8_11
# %bb.4:                                #   in Loop: Header=BB8_3 Depth=1
	movq	-24(%rbp), %rax
	movslq	-8(%rbp), %rcx
	movslq	(%rax,%rcx,4), %rax
	movl	%eax, -32(%rbp)
	movq	-48(%rbp), %rdx
	movl	(%rdx,%rax,4), %eax
	movl	%eax, -28(%rbp)
	leal	4(%rcx), %eax
	movl	%eax, -4(%rbp)
	.p2align	4, 0x90
.LBB8_5:                                #   Parent Loop BB8_3 Depth=1
                                        # =>  This Inner Loop Header: Depth=2
	movl	-4(%rbp), %eax
	cmpl	-12(%rbp), %eax
	jg	.LBB8_6
# %bb.7:                                #   in Loop: Header=BB8_5 Depth=2
	movl	-28(%rbp), %eax
	movq	-48(%rbp), %rcx
	movq	-24(%rbp), %rdx
	movslq	-4(%rbp), %rsi
	movl	(%rdx,%rsi,4), %edx
	cmpl	(%rcx,%rdx,4), %eax
	seta	%al
	testb	%al, %al
	jne	.LBB8_9
	jmp	.LBB8_10
	.p2align	4, 0x90
.LBB8_6:                                #   in Loop: Header=BB8_5 Depth=2
	xorl	%eax, %eax
	testb	%al, %al
	je	.LBB8_10
.LBB8_9:                                #   in Loop: Header=BB8_5 Depth=2
	movq	-24(%rbp), %rax
	movslq	-4(%rbp), %rcx
	movl	(%rax,%rcx,4), %edx
	movl	%edx, -16(%rax,%rcx,4)
	addl	$4, -4(%rbp)
	jmp	.LBB8_5
.LBB8_11:
	movl	-12(%rbp), %eax
	addl	$-1, %eax
	movl	%eax, -8(%rbp)
	jmp	.LBB8_12
	.p2align	4, 0x90
.LBB8_19:                               #   in Loop: Header=BB8_12 Depth=1
	movl	-32(%rbp), %eax
	movq	-24(%rbp), %rcx
	movslq	-4(%rbp), %rdx
	movl	%eax, -4(%rcx,%rdx,4)
	addl	$-1, -8(%rbp)
.LBB8_12:                               # =>This Loop Header: Depth=1
                                        #     Child Loop BB8_14 Depth 2
	movl	-8(%rbp), %eax
	cmpl	-36(%rbp), %eax
	jl	.LBB8_20
# %bb.13:                               #   in Loop: Header=BB8_12 Depth=1
	movq	-24(%rbp), %rax
	movslq	-8(%rbp), %rcx
	movslq	(%rax,%rcx,4), %rax
	movl	%eax, -32(%rbp)
	movq	-48(%rbp), %rdx
	movl	(%rdx,%rax,4), %eax
	movl	%eax, -28(%rbp)
	leal	1(%rcx), %eax
	movl	%eax, -4(%rbp)
	.p2align	4, 0x90
.LBB8_14:                               #   Parent Loop BB8_12 Depth=1
                                        # =>  This Inner Loop Header: Depth=2
	movl	-4(%rbp), %eax
	cmpl	-12(%rbp), %eax
	jg	.LBB8_15
# %bb.16:                               #   in Loop: Header=BB8_14 Depth=2
	movl	-28(%rbp), %eax
	movq	-48(%rbp), %rcx
	movq	-24(%rbp), %rdx
	movslq	-4(%rbp), %rsi
	movl	(%rdx,%rsi,4), %edx
	cmpl	(%rcx,%rdx,4), %eax
	seta	%al
	testb	%al, %al
	jne	.LBB8_18
	jmp	.LBB8_19
	.p2align	4, 0x90
.LBB8_15:                               #   in Loop: Header=BB8_14 Depth=2
	xorl	%eax, %eax
	testb	%al, %al
	je	.LBB8_19
.LBB8_18:                               #   in Loop: Header=BB8_14 Depth=2
	movq	-24(%rbp), %rax
	movslq	-4(%rbp), %rcx
	movl	(%rax,%rcx,4), %edx
	movl	%edx, -4(%rax,%rcx,4)
	addl	$1, -4(%rbp)
	jmp	.LBB8_14
.Lfunc_end8:
	.size	fallbackSimpleSort, .Lfunc_end8-fallbackSimpleSort
	.cfi_endproc
                                        # -- End function
	.globl	main1                           # -- Begin function main1
	.p2align	4, 0x90
	.type	main1,@function
main1:                                  # @main1
	.cfi_startproc
# %bb.0:
	pushq	%rbp
	.cfi_def_cfa_offset 16
	.cfi_offset %rbp, -16
	movq	%rsp, %rbp
	.cfi_def_cfa_register %rbp
	pushq	%rbx
	subq	$72, %rsp
	.cfi_offset %rbx, -24
	movl	%edi, -60(%rbp)
	movq	%rsi, -72(%rbp)
	movq	$0, outputHandleJustInCase(%rip)
	movb	$0, smallMode(%rip)
	movb	$0, keepInputFiles(%rip)
	movb	$0, forceOverwrite(%rip)
	movb	$1, noisy(%rip)
	movl	$0, verbosity(%rip)
	movl	$9, blockSize100k(%rip)
	movb	$0, testFailsExist(%rip)
	movb	$0, unzFailsExist(%rip)
	movl	$0, numFileNames(%rip)
	movl	$0, numFilesProcessed(%rip)
	movl	$30, workFactor(%rip)
	movb	$0, deleteOutputOnInterrupt(%rip)
	movl	$0, exitValue(%rip)
	movl	$0, -28(%rbp)
	movl	$0, -44(%rbp)
	movl	$mySIGSEGVorSIGBUScatcher, %esi
	movl	$11, %edi
	callq	signal
	movl	$mySIGSEGVorSIGBUScatcher, %esi
	movl	$7, %edi
	callq	signal
	movl	$inName, %edi
	movl	$.L.str.6.15, %esi
	callq	copyFileName
	movl	$outName, %edi
	movl	$.L.str.6.15, %esi
	callq	copyFileName
	movq	-72(%rbp), %rax
	movq	(%rax), %rsi
	movl	$progNameReally, %edi
	callq	copyFileName
	movq	$progNameReally, progName(%rip)
	movq	$progNameReally, -56(%rbp)
	jmp	.LBB9_2
	.p2align	4, 0x90
.LBB9_1:                                #   in Loop: Header=BB9_2 Depth=1
	addq	$1, -56(%rbp)
.LBB9_2:                                # =>This Inner Loop Header: Depth=1
	movq	-56(%rbp), %rax
	cmpb	$0, (%rax)
	je	.LBB9_5
# %bb.3:                                #   in Loop: Header=BB9_2 Depth=1
	movq	-56(%rbp), %rax
	cmpb	$47, (%rax)
	jne	.LBB9_1
# %bb.4:                                #   in Loop: Header=BB9_2 Depth=1
	movq	-56(%rbp), %rax
	addq	$1, %rax
	movq	%rax, progName(%rip)
	jmp	.LBB9_1
.LBB9_5:
	movq	$0, -40(%rbp)
	leaq	-40(%rbp), %rbx
	movl	$.L.str.7.16, %esi
	movq	%rbx, %rdi
	callq	addFlagsFromEnvVar
	movl	$.L.str.8.17, %esi
	movq	%rbx, %rdi
	callq	addFlagsFromEnvVar
	movl	$1, -44(%rbp)
	.p2align	4, 0x90
.LBB9_6:                                # =>This Inner Loop Header: Depth=1
	movl	-60(%rbp), %eax
	addl	$-1, %eax
	cmpl	%eax, -44(%rbp)
	jg	.LBB9_8
# %bb.7:                                #   in Loop: Header=BB9_6 Depth=1
	movq	-40(%rbp), %rdi
	movq	-72(%rbp), %rax
	movslq	-44(%rbp), %rcx
	movq	(%rax,%rcx,8), %rsi
	callq	snocString
	movq	%rax, -40(%rbp)
	addl	$1, -44(%rbp)
	jmp	.LBB9_6
.LBB9_8:
	movl	$7, longestFileName(%rip)
	movl	$0, numFileNames(%rip)
	movb	$1, -9(%rbp)
	movq	-40(%rbp), %rax
	jmp	.LBB9_11
	.p2align	4, 0x90
.LBB9_9:                                #   in Loop: Header=BB9_11 Depth=1
	movb	$0, -9(%rbp)
.LBB9_10:                               #   in Loop: Header=BB9_11 Depth=1
	movq	-24(%rbp), %rax
	movq	8(%rax), %rax
.LBB9_11:                               # =>This Inner Loop Header: Depth=1
	movq	%rax, -24(%rbp)
	cmpq	$0, -24(%rbp)
	je	.LBB9_17
# %bb.12:                               #   in Loop: Header=BB9_11 Depth=1
	movq	-24(%rbp), %rax
	movq	(%rax), %rdi
	movl	$.L.str.9.18, %esi
	callq	strcmp
	testl	%eax, %eax
	je	.LBB9_9
# %bb.13:                               #   in Loop: Header=BB9_11 Depth=1
	movq	-24(%rbp), %rax
	movq	(%rax), %rax
	cmpb	$45, (%rax)
	jne	.LBB9_15
# %bb.14:                               #   in Loop: Header=BB9_11 Depth=1
	cmpb	$0, -9(%rbp)
	jne	.LBB9_10
.LBB9_15:                               #   in Loop: Header=BB9_11 Depth=1
	addl	$1, numFileNames(%rip)
	movl	longestFileName(%rip), %ebx
	movq	-24(%rbp), %rax
	movq	(%rax), %rdi
	callq	strlen
	cmpl	%eax, %ebx
	jge	.LBB9_10
# %bb.16:                               #   in Loop: Header=BB9_11 Depth=1
	movq	-24(%rbp), %rax
	movq	(%rax), %rdi
	callq	strlen
	movl	%eax, longestFileName(%rip)
	jmp	.LBB9_10
.LBB9_17:
	cmpl	$0, numFileNames(%rip)
	je	.LBB9_19
# %bb.18:
	movl	$3, srcMode(%rip)
	jmp	.LBB9_20
.LBB9_19:
	movl	$1, srcMode(%rip)
.LBB9_20:
	movl	$1, opMode(%rip)
	movq	progName(%rip), %rdi
	movl	$.L.str.10, %esi
	callq	strstr
	testq	%rax, %rax
	jne	.LBB9_22
# %bb.21:
	movq	progName(%rip), %rdi
	movl	$.L.str.11, %esi
	callq	strstr
	testq	%rax, %rax
	je	.LBB9_23
.LBB9_22:
	movl	$2, opMode(%rip)
.LBB9_23:
	movq	progName(%rip), %rdi
	movl	$.L.str.12, %esi
	callq	strstr
	testq	%rax, %rax
	jne	.LBB9_27
# %bb.24:
	movq	progName(%rip), %rdi
	movl	$.L.str.13, %esi
	callq	strstr
	testq	%rax, %rax
	jne	.LBB9_27
# %bb.25:
	movq	progName(%rip), %rdi
	movl	$.L.str.14, %esi
	callq	strstr
	testq	%rax, %rax
	jne	.LBB9_27
# %bb.26:
	movq	progName(%rip), %rdi
	movl	$.L.str.15, %esi
	callq	strstr
	testq	%rax, %rax
	je	.LBB9_28
.LBB9_27:
	movl	$2, opMode(%rip)
	cmpl	$1, numFileNames(%rip)
	movl	$2, %eax
	sbbl	$0, %eax
	movl	%eax, srcMode(%rip)
.LBB9_28:
	movq	-40(%rbp), %rax
	jmp	.LBB9_30
	.p2align	4, 0x90
.LBB9_29:                               #   in Loop: Header=BB9_30 Depth=1
	movq	-24(%rbp), %rax
	movq	8(%rax), %rax
.LBB9_30:                               # =>This Loop Header: Depth=1
                                        #     Child Loop BB9_36 Depth 2
	movq	%rax, -24(%rbp)
	cmpq	$0, -24(%rbp)
	je	.LBB9_57
# %bb.31:                               #   in Loop: Header=BB9_30 Depth=1
	movq	-24(%rbp), %rax
	movq	(%rax), %rdi
	movl	$.L.str.9.18, %esi
	callq	strcmp
	testl	%eax, %eax
	je	.LBB9_57
# %bb.32:                               #   in Loop: Header=BB9_30 Depth=1
	movq	-24(%rbp), %rax
	movq	(%rax), %rax
	cmpb	$45, (%rax)
	jne	.LBB9_29
# %bb.33:                               #   in Loop: Header=BB9_30 Depth=1
	movq	-24(%rbp), %rax
	movq	(%rax), %rax
	cmpb	$45, 1(%rax)
	je	.LBB9_29
# %bb.34:                               #   in Loop: Header=BB9_30 Depth=1
	movl	$1, -28(%rbp)
	jmp	.LBB9_36
.LBB9_35:                               #   in Loop: Header=BB9_36 Depth=2
	addl	$1, verbosity(%rip)
	addl	$1, -28(%rbp)
	.p2align	4, 0x90
.LBB9_36:                               #   Parent Loop BB9_30 Depth=1
                                        # =>  This Inner Loop Header: Depth=2
	movq	-24(%rbp), %rax
	movq	(%rax), %rax
	movslq	-28(%rbp), %rcx
	cmpb	$0, (%rax,%rcx)
	je	.LBB9_29
# %bb.37:                               #   in Loop: Header=BB9_36 Depth=2
	movq	-24(%rbp), %rax
	movq	(%rax), %rax
	movslq	-28(%rbp), %rcx
	movsbl	(%rax,%rcx), %eax
	addl	$-49, %eax
	cmpl	$73, %eax
	ja	.LBB9_151
# %bb.38:                               #   in Loop: Header=BB9_36 Depth=2
	jmpq	*.LJTI9_0(,%rax,8)
.LBB9_39:                               #   in Loop: Header=BB9_36 Depth=2
	callq	license
	addl	$1, -28(%rbp)
	jmp	.LBB9_36
.LBB9_40:                               #   in Loop: Header=BB9_36 Depth=2
	movl	$3, blockSize100k(%rip)
	addl	$1, -28(%rbp)
	jmp	.LBB9_36
.LBB9_41:                               #   in Loop: Header=BB9_36 Depth=2
	movl	$4, blockSize100k(%rip)
	addl	$1, -28(%rbp)
	jmp	.LBB9_36
.LBB9_42:                               #   in Loop: Header=BB9_36 Depth=2
	movl	$7, blockSize100k(%rip)
	addl	$1, -28(%rbp)
	jmp	.LBB9_36
.LBB9_43:                               #   in Loop: Header=BB9_36 Depth=2
	movl	$2, srcMode(%rip)
	addl	$1, -28(%rbp)
	jmp	.LBB9_36
.LBB9_44:                               #   in Loop: Header=BB9_36 Depth=2
	movl	$2, opMode(%rip)
	addl	$1, -28(%rbp)
	jmp	.LBB9_36
.LBB9_45:                               #   in Loop: Header=BB9_36 Depth=2
	movb	$1, forceOverwrite(%rip)
	addl	$1, -28(%rbp)
	jmp	.LBB9_36
.LBB9_46:                               #   in Loop: Header=BB9_36 Depth=2
	movl	$3, opMode(%rip)
	addl	$1, -28(%rbp)
	jmp	.LBB9_36
.LBB9_47:                               #   in Loop: Header=BB9_36 Depth=2
	movl	$1, opMode(%rip)
	addl	$1, -28(%rbp)
	jmp	.LBB9_36
.LBB9_48:                               #   in Loop: Header=BB9_36 Depth=2
	movl	$1, blockSize100k(%rip)
	addl	$1, -28(%rbp)
	jmp	.LBB9_36
.LBB9_49:                               #   in Loop: Header=BB9_36 Depth=2
	movl	$2, blockSize100k(%rip)
	addl	$1, -28(%rbp)
	jmp	.LBB9_36
.LBB9_50:                               #   in Loop: Header=BB9_36 Depth=2
	movl	$5, blockSize100k(%rip)
	addl	$1, -28(%rbp)
	jmp	.LBB9_36
.LBB9_51:                               #   in Loop: Header=BB9_36 Depth=2
	movl	$6, blockSize100k(%rip)
	addl	$1, -28(%rbp)
	jmp	.LBB9_36
.LBB9_52:                               #   in Loop: Header=BB9_36 Depth=2
	movl	$8, blockSize100k(%rip)
	addl	$1, -28(%rbp)
	jmp	.LBB9_36
.LBB9_53:                               #   in Loop: Header=BB9_36 Depth=2
	movl	$9, blockSize100k(%rip)
	addl	$1, -28(%rbp)
	jmp	.LBB9_36
.LBB9_54:                               #   in Loop: Header=BB9_36 Depth=2
	movb	$1, keepInputFiles(%rip)
	addl	$1, -28(%rbp)
	jmp	.LBB9_36
.LBB9_55:                               #   in Loop: Header=BB9_36 Depth=2
	movb	$0, noisy(%rip)
	addl	$1, -28(%rbp)
	jmp	.LBB9_36
.LBB9_56:                               #   in Loop: Header=BB9_36 Depth=2
	movb	$1, smallMode(%rip)
	addl	$1, -28(%rbp)
	jmp	.LBB9_36
.LBB9_57:
	movq	-40(%rbp), %rax
	jmp	.LBB9_60
	.p2align	4, 0x90
.LBB9_58:                               #   in Loop: Header=BB9_60 Depth=1
	movl	$2, srcMode(%rip)
.LBB9_59:                               #   in Loop: Header=BB9_60 Depth=1
	movq	-24(%rbp), %rax
	movq	8(%rax), %rax
.LBB9_60:                               # =>This Inner Loop Header: Depth=1
	movq	%rax, -24(%rbp)
	cmpq	$0, -24(%rbp)
	je	.LBB9_94
# %bb.61:                               #   in Loop: Header=BB9_60 Depth=1
	movq	-24(%rbp), %rax
	movq	(%rax), %rdi
	movl	$.L.str.9.18, %esi
	callq	strcmp
	testl	%eax, %eax
	je	.LBB9_94
# %bb.62:                               #   in Loop: Header=BB9_60 Depth=1
	movq	-24(%rbp), %rax
	movq	(%rax), %rdi
	movl	$.L.str.17, %esi
	callq	strcmp
	testl	%eax, %eax
	je	.LBB9_58
# %bb.63:                               #   in Loop: Header=BB9_60 Depth=1
	movq	-24(%rbp), %rax
	movq	(%rax), %rdi
	movl	$.L.str.18, %esi
	callq	strcmp
	testl	%eax, %eax
	je	.LBB9_80
# %bb.64:                               #   in Loop: Header=BB9_60 Depth=1
	movq	-24(%rbp), %rax
	movq	(%rax), %rdi
	movl	$.L.str.19, %esi
	callq	strcmp
	testl	%eax, %eax
	je	.LBB9_81
# %bb.65:                               #   in Loop: Header=BB9_60 Depth=1
	movq	-24(%rbp), %rax
	movq	(%rax), %rdi
	movl	$.L.str.20, %esi
	callq	strcmp
	testl	%eax, %eax
	je	.LBB9_82
# %bb.66:                               #   in Loop: Header=BB9_60 Depth=1
	movq	-24(%rbp), %rax
	movq	(%rax), %rdi
	movl	$.L.str.21, %esi
	callq	strcmp
	testl	%eax, %eax
	je	.LBB9_83
# %bb.67:                               #   in Loop: Header=BB9_60 Depth=1
	movq	-24(%rbp), %rax
	movq	(%rax), %rdi
	movl	$.L.str.22, %esi
	callq	strcmp
	testl	%eax, %eax
	je	.LBB9_84
# %bb.68:                               #   in Loop: Header=BB9_60 Depth=1
	movq	-24(%rbp), %rax
	movq	(%rax), %rdi
	movl	$.L.str.23, %esi
	callq	strcmp
	testl	%eax, %eax
	je	.LBB9_85
# %bb.69:                               #   in Loop: Header=BB9_60 Depth=1
	movq	-24(%rbp), %rax
	movq	(%rax), %rdi
	movl	$.L.str.24, %esi
	callq	strcmp
	testl	%eax, %eax
	je	.LBB9_86
# %bb.70:                               #   in Loop: Header=BB9_60 Depth=1
	movq	-24(%rbp), %rax
	movq	(%rax), %rdi
	movl	$.L.str.25, %esi
	callq	strcmp
	testl	%eax, %eax
	je	.LBB9_88
# %bb.71:                               #   in Loop: Header=BB9_60 Depth=1
	movq	-24(%rbp), %rax
	movq	(%rax), %rdi
	movl	$.L.str.26, %esi
	callq	strcmp
	testl	%eax, %eax
	je	.LBB9_88
# %bb.72:                               #   in Loop: Header=BB9_60 Depth=1
	movq	-24(%rbp), %rax
	movq	(%rax), %rdi
	movl	$.L.str.27, %esi
	callq	strcmp
	testl	%eax, %eax
	je	.LBB9_90
# %bb.73:                               #   in Loop: Header=BB9_60 Depth=1
	movq	-24(%rbp), %rax
	movq	(%rax), %rdi
	movl	$.L.str.28, %esi
	callq	strcmp
	testl	%eax, %eax
	je	.LBB9_89
# %bb.74:                               #   in Loop: Header=BB9_60 Depth=1
	movq	-24(%rbp), %rax
	movq	(%rax), %rdi
	movl	$.L.str.29, %esi
	callq	strcmp
	testl	%eax, %eax
	je	.LBB9_89
# %bb.75:                               #   in Loop: Header=BB9_60 Depth=1
	movq	-24(%rbp), %rax
	movq	(%rax), %rdi
	movl	$.L.str.30, %esi
	callq	strcmp
	testl	%eax, %eax
	je	.LBB9_91
# %bb.76:                               #   in Loop: Header=BB9_60 Depth=1
	movq	-24(%rbp), %rax
	movq	(%rax), %rdi
	movl	$.L.str.31, %esi
	callq	strcmp
	testl	%eax, %eax
	je	.LBB9_92
# %bb.77:                               #   in Loop: Header=BB9_60 Depth=1
	movq	-24(%rbp), %rax
	movq	(%rax), %rdi
	movl	$.L.str.32, %esi
	callq	strcmp
	testl	%eax, %eax
	je	.LBB9_93
# %bb.78:                               #   in Loop: Header=BB9_60 Depth=1
	movq	-24(%rbp), %rax
	movq	(%rax), %rdi
	movl	$.L.str.33, %esi
	callq	strcmp
	testl	%eax, %eax
	je	.LBB9_150
# %bb.79:                               #   in Loop: Header=BB9_60 Depth=1
	movq	-24(%rbp), %rax
	movq	(%rax), %rdi
	movl	$.L.str.9.18, %esi
	movl	$2, %edx
	callq	strncmp
	testl	%eax, %eax
	jne	.LBB9_59
	jmp	.LBB9_151
	.p2align	4, 0x90
.LBB9_80:                               #   in Loop: Header=BB9_60 Depth=1
	movl	$2, opMode(%rip)
	jmp	.LBB9_59
.LBB9_81:                               #   in Loop: Header=BB9_60 Depth=1
	movl	$1, opMode(%rip)
	jmp	.LBB9_59
.LBB9_82:                               #   in Loop: Header=BB9_60 Depth=1
	movb	$1, forceOverwrite(%rip)
	jmp	.LBB9_59
.LBB9_83:                               #   in Loop: Header=BB9_60 Depth=1
	movl	$3, opMode(%rip)
	jmp	.LBB9_59
.LBB9_84:                               #   in Loop: Header=BB9_60 Depth=1
	movb	$1, keepInputFiles(%rip)
	jmp	.LBB9_59
.LBB9_85:                               #   in Loop: Header=BB9_60 Depth=1
	movb	$1, smallMode(%rip)
	jmp	.LBB9_59
.LBB9_88:                               #   in Loop: Header=BB9_60 Depth=1
	callq	license
	jmp	.LBB9_59
.LBB9_86:                               #   in Loop: Header=BB9_60 Depth=1
	movb	$0, noisy(%rip)
	jmp	.LBB9_59
.LBB9_89:                               #   in Loop: Header=BB9_60 Depth=1
	movq	-24(%rbp), %rax
	movq	(%rax), %rdi
	callq	redundant
	jmp	.LBB9_59
.LBB9_90:                               #   in Loop: Header=BB9_60 Depth=1
	movl	$1, workFactor(%rip)
	jmp	.LBB9_59
.LBB9_91:                               #   in Loop: Header=BB9_60 Depth=1
	movl	$1, blockSize100k(%rip)
	jmp	.LBB9_59
.LBB9_92:                               #   in Loop: Header=BB9_60 Depth=1
	movl	$9, blockSize100k(%rip)
	jmp	.LBB9_59
.LBB9_93:                               #   in Loop: Header=BB9_60 Depth=1
	addl	$1, verbosity(%rip)
	jmp	.LBB9_59
.LBB9_94:
	cmpl	$5, verbosity(%rip)
	jl	.LBB9_96
# %bb.95:
	movl	$4, verbosity(%rip)
.LBB9_96:
	cmpl	$1, opMode(%rip)
	jne	.LBB9_100
# %bb.97:
	cmpb	$0, smallMode(%rip)
	je	.LBB9_100
# %bb.98:
	cmpl	$3, blockSize100k(%rip)
	jl	.LBB9_100
# %bb.99:
	movl	$2, blockSize100k(%rip)
.LBB9_100:
	cmpl	$3, opMode(%rip)
	jne	.LBB9_102
# %bb.101:
	cmpl	$2, srcMode(%rip)
	je	.LBB9_152
.LBB9_102:
	cmpl	$2, srcMode(%rip)
	jne	.LBB9_104
# %bb.103:
	cmpl	$0, numFileNames(%rip)
	je	.LBB9_117
.LBB9_104:
	cmpl	$1, opMode(%rip)
	je	.LBB9_105
.LBB9_118:
	movl	$0, blockSize100k(%rip)
	cmpl	$3, srcMode(%rip)
	je	.LBB9_119
.LBB9_106:
	cmpl	$1, opMode(%rip)
	jne	.LBB9_120
.LBB9_107:
	cmpl	$1, srcMode(%rip)
	jne	.LBB9_109
# %bb.108:
	xorl	%edi, %edi
	callq	compress
	jmp	.LBB9_128
.LBB9_109:
	movb	$1, -9(%rbp)
	movq	-40(%rbp), %rax
	jmp	.LBB9_112
	.p2align	4, 0x90
.LBB9_110:                              #   in Loop: Header=BB9_112 Depth=1
	addl	$1, numFilesProcessed(%rip)
	movq	-24(%rbp), %rax
	movq	(%rax), %rdi
	callq	compress
.LBB9_111:                              #   in Loop: Header=BB9_112 Depth=1
	movq	-24(%rbp), %rax
	movq	8(%rax), %rax
.LBB9_112:                              # =>This Inner Loop Header: Depth=1
	movq	%rax, -24(%rbp)
	cmpq	$0, -24(%rbp)
	je	.LBB9_128
# %bb.113:                              #   in Loop: Header=BB9_112 Depth=1
	movq	-24(%rbp), %rax
	movq	(%rax), %rdi
	movl	$.L.str.9.18, %esi
	callq	strcmp
	testl	%eax, %eax
	je	.LBB9_116
# %bb.114:                              #   in Loop: Header=BB9_112 Depth=1
	movq	-24(%rbp), %rax
	movq	(%rax), %rax
	cmpb	$45, (%rax)
	jne	.LBB9_110
# %bb.115:                              #   in Loop: Header=BB9_112 Depth=1
	cmpb	$0, -9(%rbp)
	jne	.LBB9_111
	jmp	.LBB9_110
	.p2align	4, 0x90
.LBB9_116:                              #   in Loop: Header=BB9_112 Depth=1
	movb	$0, -9(%rbp)
	jmp	.LBB9_111
.LBB9_117:
	movl	$1, srcMode(%rip)
	cmpl	$1, opMode(%rip)
	jne	.LBB9_118
.LBB9_105:
	cmpl	$3, srcMode(%rip)
	jne	.LBB9_106
.LBB9_119:
	movl	$mySignalCatcher, %esi
	movl	$2, %edi
	callq	signal
	movl	$mySignalCatcher, %esi
	movl	$15, %edi
	callq	signal
	movl	$mySignalCatcher, %esi
	movl	$1, %edi
	callq	signal
	cmpl	$1, opMode(%rip)
	je	.LBB9_107
.LBB9_120:
	cmpl	$2, opMode(%rip)
	jne	.LBB9_124
# %bb.121:
	movb	$0, unzFailsExist(%rip)
	cmpl	$1, srcMode(%rip)
	jne	.LBB9_134
# %bb.122:
	xorl	%edi, %edi
	callq	uncompress
.LBB9_123:
	cmpb	$0, unzFailsExist(%rip)
	je	.LBB9_128
	jmp	.LBB9_154
.LBB9_124:
	movb	$0, testFailsExist(%rip)
	cmpl	$1, srcMode(%rip)
	jne	.LBB9_142
# %bb.125:
	xorl	%edi, %edi
	callq	testf
.LBB9_126:
	cmpb	$0, testFailsExist(%rip)
	je	.LBB9_128
# %bb.127:
	cmpb	$0, noisy(%rip)
	jne	.LBB9_153
.LBB9_128:
	movq	-40(%rbp), %rax
	jmp	.LBB9_130
	.p2align	4, 0x90
.LBB9_129:                              #   in Loop: Header=BB9_130 Depth=1
	movq	-24(%rbp), %rdi
	callq	free
	movq	-80(%rbp), %rax
.LBB9_130:                              # =>This Inner Loop Header: Depth=1
	movq	%rax, -24(%rbp)
	cmpq	$0, -24(%rbp)
	je	.LBB9_133
# %bb.131:                              #   in Loop: Header=BB9_130 Depth=1
	movq	-24(%rbp), %rax
	movq	8(%rax), %rcx
	movq	%rcx, -80(%rbp)
	cmpq	$0, (%rax)
	je	.LBB9_129
# %bb.132:                              #   in Loop: Header=BB9_130 Depth=1
	movq	-24(%rbp), %rax
	movq	(%rax), %rdi
	callq	free
	jmp	.LBB9_129
.LBB9_133:
	movl	exitValue(%rip), %eax
	addq	$72, %rsp
	popq	%rbx
	popq	%rbp
	.cfi_def_cfa %rsp, 8
	retq
.LBB9_134:
	.cfi_def_cfa %rbp, 16
	movb	$1, -9(%rbp)
	movq	-40(%rbp), %rax
	jmp	.LBB9_137
	.p2align	4, 0x90
.LBB9_135:                              #   in Loop: Header=BB9_137 Depth=1
	addl	$1, numFilesProcessed(%rip)
	movq	-24(%rbp), %rax
	movq	(%rax), %rdi
	callq	uncompress
.LBB9_136:                              #   in Loop: Header=BB9_137 Depth=1
	movq	-24(%rbp), %rax
	movq	8(%rax), %rax
.LBB9_137:                              # =>This Inner Loop Header: Depth=1
	movq	%rax, -24(%rbp)
	cmpq	$0, -24(%rbp)
	je	.LBB9_123
# %bb.138:                              #   in Loop: Header=BB9_137 Depth=1
	movq	-24(%rbp), %rax
	movq	(%rax), %rdi
	movl	$.L.str.9.18, %esi
	callq	strcmp
	testl	%eax, %eax
	je	.LBB9_141
# %bb.139:                              #   in Loop: Header=BB9_137 Depth=1
	movq	-24(%rbp), %rax
	movq	(%rax), %rax
	cmpb	$45, (%rax)
	jne	.LBB9_135
# %bb.140:                              #   in Loop: Header=BB9_137 Depth=1
	cmpb	$0, -9(%rbp)
	jne	.LBB9_136
	jmp	.LBB9_135
	.p2align	4, 0x90
.LBB9_141:                              #   in Loop: Header=BB9_137 Depth=1
	movb	$0, -9(%rbp)
	jmp	.LBB9_136
.LBB9_142:
	movb	$1, -9(%rbp)
	movq	-40(%rbp), %rax
	jmp	.LBB9_145
	.p2align	4, 0x90
.LBB9_143:                              #   in Loop: Header=BB9_145 Depth=1
	addl	$1, numFilesProcessed(%rip)
	movq	-24(%rbp), %rax
	movq	(%rax), %rdi
	callq	testf
.LBB9_144:                              #   in Loop: Header=BB9_145 Depth=1
	movq	-24(%rbp), %rax
	movq	8(%rax), %rax
.LBB9_145:                              # =>This Inner Loop Header: Depth=1
	movq	%rax, -24(%rbp)
	cmpq	$0, -24(%rbp)
	je	.LBB9_126
# %bb.146:                              #   in Loop: Header=BB9_145 Depth=1
	movq	-24(%rbp), %rax
	movq	(%rax), %rdi
	movl	$.L.str.9.18, %esi
	callq	strcmp
	testl	%eax, %eax
	je	.LBB9_149
# %bb.147:                              #   in Loop: Header=BB9_145 Depth=1
	movq	-24(%rbp), %rax
	movq	(%rax), %rax
	cmpb	$45, (%rax)
	jne	.LBB9_143
# %bb.148:                              #   in Loop: Header=BB9_145 Depth=1
	cmpb	$0, -9(%rbp)
	jne	.LBB9_144
	jmp	.LBB9_143
	.p2align	4, 0x90
.LBB9_149:                              #   in Loop: Header=BB9_145 Depth=1
	movb	$0, -9(%rbp)
	jmp	.LBB9_144
.LBB9_150:
	movq	progName(%rip), %rdi
	callq	usage
	xorl	%edi, %edi
	callq	exit
.LBB9_151:
	movq	stderr(%rip), %rdi
	movq	progName(%rip), %rdx
	movq	-24(%rbp), %rax
	movq	(%rax), %rcx
	movl	$.L.str.16, %esi
	xorl	%eax, %eax
	callq	fprintf
	movq	progName(%rip), %rdi
	callq	usage
	movl	$1, %edi
	callq	exit
.LBB9_152:
	movq	stderr(%rip), %rdi
	movq	progName(%rip), %rdx
	movl	$.L.str.34, %esi
	xorl	%eax, %eax
	callq	fprintf
	movl	$1, %edi
	callq	exit
.LBB9_153:
	movq	stderr(%rip), %rdi
	movl	$.L.str.35, %esi
	xorl	%eax, %eax
	callq	fprintf
.LBB9_154:
	movl	$2, %edi
	callq	setExit
	movl	exitValue(%rip), %edi
	callq	exit
.Lfunc_end9:
	.size	main1, .Lfunc_end9-main1
	.cfi_endproc
	.section	.rodata,"a",@progbits
	.p2align	3
.LJTI9_0:
	.quad	.LBB9_48
	.quad	.LBB9_49
	.quad	.LBB9_40
	.quad	.LBB9_41
	.quad	.LBB9_50
	.quad	.LBB9_51
	.quad	.LBB9_42
	.quad	.LBB9_52
	.quad	.LBB9_53
	.quad	.LBB9_151
	.quad	.LBB9_151
	.quad	.LBB9_151
	.quad	.LBB9_151
	.quad	.LBB9_151
	.quad	.LBB9_151
	.quad	.LBB9_151
	.quad	.LBB9_151
	.quad	.LBB9_151
	.quad	.LBB9_151
	.quad	.LBB9_151
	.quad	.LBB9_151
	.quad	.LBB9_151
	.quad	.LBB9_151
	.quad	.LBB9_151
	.quad	.LBB9_151
	.quad	.LBB9_151
	.quad	.LBB9_151
	.quad	.LBB9_39
	.quad	.LBB9_151
	.quad	.LBB9_151
	.quad	.LBB9_151
	.quad	.LBB9_151
	.quad	.LBB9_151
	.quad	.LBB9_151
	.quad	.LBB9_151
	.quad	.LBB9_151
	.quad	.LBB9_151
	.quad	.LBB9_39
	.quad	.LBB9_151
	.quad	.LBB9_151
	.quad	.LBB9_151
	.quad	.LBB9_151
	.quad	.LBB9_151
	.quad	.LBB9_151
	.quad	.LBB9_151
	.quad	.LBB9_151
	.quad	.LBB9_151
	.quad	.LBB9_151
	.quad	.LBB9_151
	.quad	.LBB9_151
	.quad	.LBB9_43
	.quad	.LBB9_44
	.quad	.LBB9_151
	.quad	.LBB9_45
	.quad	.LBB9_151
	.quad	.LBB9_150
	.quad	.LBB9_151
	.quad	.LBB9_151
	.quad	.LBB9_54
	.quad	.LBB9_151
	.quad	.LBB9_151
	.quad	.LBB9_151
	.quad	.LBB9_151
	.quad	.LBB9_151
	.quad	.LBB9_55
	.quad	.LBB9_151
	.quad	.LBB9_56
	.quad	.LBB9_46
	.quad	.LBB9_151
	.quad	.LBB9_35
	.quad	.LBB9_151
	.quad	.LBB9_151
	.quad	.LBB9_151
	.quad	.LBB9_47
                                        # -- End function
	.text
	.p2align	4, 0x90                         # -- Begin function mySIGSEGVorSIGBUScatcher
	.type	mySIGSEGVorSIGBUScatcher,@function
mySIGSEGVorSIGBUScatcher:               # @mySIGSEGVorSIGBUScatcher
	.cfi_startproc
# %bb.0:
	pushq	%rbp
	.cfi_def_cfa_offset 16
	.cfi_offset %rbp, -16
	movq	%rsp, %rbp
	.cfi_def_cfa_register %rbp
	subq	$16, %rsp
	movl	%edi, -4(%rbp)
	cmpl	$1, opMode(%rip)
	jne	.LBB10_2
# %bb.1:
	movq	stderr(%rip), %rdi
	movq	progName(%rip), %rdx
	movl	$.L.str.36, %esi
	jmp	.LBB10_3
.LBB10_2:
	movq	stderr(%rip), %rdi
	movq	progName(%rip), %rdx
	movl	$.L.str.37, %esi
.LBB10_3:
	xorl	%eax, %eax
	callq	fprintf
	callq	showFileNames
	cmpl	$1, opMode(%rip)
	jne	.LBB10_5
# %bb.4:
	movl	$3, %edi
	callq	cleanUpAndFail
.LBB10_5:
	callq	cadvise
	movl	$2, %edi
	callq	cleanUpAndFail
.Lfunc_end10:
	.size	mySIGSEGVorSIGBUScatcher, .Lfunc_end10-mySIGSEGVorSIGBUScatcher
	.cfi_endproc
                                        # -- End function
	.p2align	4, 0x90                         # -- Begin function copyFileName
	.type	copyFileName,@function
copyFileName:                           # @copyFileName
	.cfi_startproc
# %bb.0:
	pushq	%rbp
	.cfi_def_cfa_offset 16
	.cfi_offset %rbp, -16
	movq	%rsp, %rbp
	.cfi_def_cfa_register %rbp
	subq	$16, %rsp
	movq	%rdi, -16(%rbp)
	movq	%rsi, -8(%rbp)
	movq	%rsi, %rdi
	callq	strlen
	cmpq	$1025, %rax                     # imm = 0x401
	jae	.LBB11_2
# %bb.1:
	movq	-16(%rbp), %rdi
	movq	-8(%rbp), %rsi
	movl	$1024, %edx                     # imm = 0x400
	callq	strncpy
	movq	-16(%rbp), %rax
	movb	$0, 1024(%rax)
	addq	$16, %rsp
	popq	%rbp
	.cfi_def_cfa %rsp, 8
	retq
.LBB11_2:
	.cfi_def_cfa %rbp, 16
	movq	stderr(%rip), %rdi
	movq	-8(%rbp), %rdx
	movl	$.L.str.47, %esi
	movl	$1024, %ecx                     # imm = 0x400
	xorl	%eax, %eax
	callq	fprintf
	movl	$1, %edi
	callq	setExit
	movl	exitValue(%rip), %edi
	callq	exit
.Lfunc_end11:
	.size	copyFileName, .Lfunc_end11-copyFileName
	.cfi_endproc
                                        # -- End function
	.p2align	4, 0x90                         # -- Begin function addFlagsFromEnvVar
	.type	addFlagsFromEnvVar,@function
addFlagsFromEnvVar:                     # @addFlagsFromEnvVar
	.cfi_startproc
# %bb.0:
	pushq	%rbp
	.cfi_def_cfa_offset 16
	.cfi_offset %rbp, -16
	movq	%rsp, %rbp
	.cfi_def_cfa_register %rbp
	subq	$48, %rsp
	movq	%rdi, -32(%rbp)
	movq	%rsi, -48(%rbp)
	movq	%rsi, %rdi
	callq	getenv
	movq	%rax, -40(%rbp)
	testq	%rax, %rax
	je	.LBB12_18
# %bb.1:
	movq	-40(%rbp), %rax
	movq	%rax, -16(%rbp)
	movl	$0, -4(%rbp)
	jmp	.LBB12_2
	.p2align	4, 0x90
.LBB12_17:                              #   in Loop: Header=BB12_2 Depth=1
	movslq	-20(%rbp), %rax
	movb	$0, tmpName(%rax)
	movq	-32(%rbp), %rax
	movq	(%rax), %rdi
	movl	$tmpName, %esi
	callq	snocString
	movq	-32(%rbp), %rcx
	movq	%rax, (%rcx)
.LBB12_2:                               # =>This Loop Header: Depth=1
                                        #     Child Loop BB12_4 Depth 2
                                        #     Child Loop BB12_6 Depth 2
                                        #     Child Loop BB12_15 Depth 2
	movq	-16(%rbp), %rax
	movslq	-4(%rbp), %rcx
	cmpb	$0, (%rax,%rcx)
	je	.LBB12_18
# %bb.3:                                #   in Loop: Header=BB12_2 Depth=1
	movslq	-4(%rbp), %rax
	addq	%rax, -16(%rbp)
	movl	$0, -4(%rbp)
	.p2align	4, 0x90
.LBB12_4:                               #   Parent Loop BB12_2 Depth=1
                                        # =>  This Inner Loop Header: Depth=2
	callq	__ctype_b_loc
	movq	(%rax), %rax
	movq	-16(%rbp), %rcx
	movsbq	(%rcx), %rcx
	movzwl	(%rax,%rcx,2), %eax
	testl	$8192, %eax                     # imm = 0x2000
	je	.LBB12_6
# %bb.5:                                #   in Loop: Header=BB12_4 Depth=2
	addq	$1, -16(%rbp)
	jmp	.LBB12_4
	.p2align	4, 0x90
.LBB12_6:                               #   Parent Loop BB12_2 Depth=1
                                        # =>  This Inner Loop Header: Depth=2
	movq	-16(%rbp), %rax
	movslq	-4(%rbp), %rcx
	cmpb	$0, (%rax,%rcx)
	je	.LBB12_7
# %bb.8:                                #   in Loop: Header=BB12_6 Depth=2
	callq	__ctype_b_loc
	movq	(%rax), %rax
	movq	-16(%rbp), %rcx
	movslq	-4(%rbp), %rdx
	movsbq	(%rcx,%rdx), %rcx
	movzwl	(%rax,%rcx,2), %eax
	testl	$8192, %eax                     # imm = 0x2000
	sete	%al
	testb	%al, %al
	jne	.LBB12_10
	jmp	.LBB12_11
	.p2align	4, 0x90
.LBB12_7:                               #   in Loop: Header=BB12_6 Depth=2
	xorl	%eax, %eax
	testb	%al, %al
	je	.LBB12_11
.LBB12_10:                              #   in Loop: Header=BB12_6 Depth=2
	addl	$1, -4(%rbp)
	jmp	.LBB12_6
	.p2align	4, 0x90
.LBB12_11:                              #   in Loop: Header=BB12_2 Depth=1
	cmpl	$0, -4(%rbp)
	jle	.LBB12_2
# %bb.12:                               #   in Loop: Header=BB12_2 Depth=1
	movl	-4(%rbp), %eax
	movl	%eax, -20(%rbp)
	cmpl	$1025, %eax                     # imm = 0x401
	jl	.LBB12_14
# %bb.13:                               #   in Loop: Header=BB12_2 Depth=1
	movl	$1024, -20(%rbp)                # imm = 0x400
.LBB12_14:                              #   in Loop: Header=BB12_2 Depth=1
	movl	$0, -24(%rbp)
	.p2align	4, 0x90
.LBB12_15:                              #   Parent Loop BB12_2 Depth=1
                                        # =>  This Inner Loop Header: Depth=2
	movl	-24(%rbp), %eax
	cmpl	-20(%rbp), %eax
	jge	.LBB12_17
# %bb.16:                               #   in Loop: Header=BB12_15 Depth=2
	movq	-16(%rbp), %rax
	movslq	-24(%rbp), %rcx
	movzbl	(%rax,%rcx), %eax
	movb	%al, tmpName(%rcx)
	leal	1(%rcx), %eax
	movl	%eax, -24(%rbp)
	jmp	.LBB12_15
.LBB12_18:
	addq	$48, %rsp
	popq	%rbp
	.cfi_def_cfa %rsp, 8
	retq
.Lfunc_end12:
	.size	addFlagsFromEnvVar, .Lfunc_end12-addFlagsFromEnvVar
	.cfi_endproc
                                        # -- End function
	.p2align	4, 0x90                         # -- Begin function snocString
	.type	snocString,@function
snocString:                             # @snocString
	.cfi_startproc
# %bb.0:
	pushq	%rbp
	.cfi_def_cfa_offset 16
	.cfi_offset %rbp, -16
	movq	%rsp, %rbp
	.cfi_def_cfa_register %rbp
	subq	$48, %rsp
	movq	%rdi, -32(%rbp)
	movq	%rsi, -24(%rbp)
	testq	%rdi, %rdi
	je	.LBB13_1
# %bb.2:
	movq	-32(%rbp), %rax
	.p2align	4, 0x90
.LBB13_3:                               # =>This Inner Loop Header: Depth=1
	movq	%rax, -8(%rbp)
	movq	-8(%rbp), %rax
	cmpq	$0, 8(%rax)
	je	.LBB13_5
# %bb.4:                                #   in Loop: Header=BB13_3 Depth=1
	movq	-8(%rbp), %rax
	movq	8(%rax), %rax
	jmp	.LBB13_3
.LBB13_5:
	movq	-8(%rbp), %rax
	movq	8(%rax), %rdi
	movq	-24(%rbp), %rsi
	callq	snocString
	movq	-8(%rbp), %rcx
	movq	%rax, 8(%rcx)
	movq	-32(%rbp), %rax
	jmp	.LBB13_6
.LBB13_1:
	callq	mkCell
	movq	%rax, -16(%rbp)
	movq	-24(%rbp), %rdi
	callq	strlen
	leal	5(%rax), %edi
	callq	myMalloc
	movq	-16(%rbp), %rcx
	movq	%rax, (%rcx)
	movq	-16(%rbp), %rax
	movq	(%rax), %rdi
	movq	-24(%rbp), %rsi
	callq	strcpy
	movq	-16(%rbp), %rax
.LBB13_6:
	movq	%rax, -40(%rbp)
	movq	-40(%rbp), %rax
	addq	$48, %rsp
	popq	%rbp
	.cfi_def_cfa %rsp, 8
	retq
.Lfunc_end13:
	.size	snocString, .Lfunc_end13-snocString
	.cfi_endproc
                                        # -- End function
	.p2align	4, 0x90                         # -- Begin function license
	.type	license,@function
license:                                # @license
	.cfi_startproc
# %bb.0:
	pushq	%rbp
	.cfi_def_cfa_offset 16
	.cfi_offset %rbp, -16
	movq	%rsp, %rbp
	.cfi_def_cfa_register %rbp
	pushq	%rbx
	pushq	%rax
	.cfi_offset %rbx, -24
	movq	stderr(%rip), %rbx
	callq	BZ2_bzlibVersion
	movl	$.L.str.49, %esi
	movq	%rbx, %rdi
	movq	%rax, %rdx
	xorl	%eax, %eax
	callq	fprintf
	addq	$8, %rsp
	popq	%rbx
	popq	%rbp
	.cfi_def_cfa %rsp, 8
	retq
.Lfunc_end14:
	.size	license, .Lfunc_end14-license
	.cfi_endproc
                                        # -- End function
	.p2align	4, 0x90                         # -- Begin function usage
	.type	usage,@function
usage:                                  # @usage
	.cfi_startproc
# %bb.0:
	pushq	%rbp
	.cfi_def_cfa_offset 16
	.cfi_offset %rbp, -16
	movq	%rsp, %rbp
	.cfi_def_cfa_register %rbp
	pushq	%rbx
	pushq	%rax
	.cfi_offset %rbx, -24
	movq	%rdi, -16(%rbp)
	movq	stderr(%rip), %rbx
	callq	BZ2_bzlibVersion
	movq	-16(%rbp), %rcx
	movl	$.L.str.50, %esi
	movq	%rbx, %rdi
	movq	%rax, %rdx
	xorl	%eax, %eax
	callq	fprintf
	addq	$8, %rsp
	popq	%rbx
	popq	%rbp
	.cfi_def_cfa %rsp, 8
	retq
.Lfunc_end15:
	.size	usage, .Lfunc_end15-usage
	.cfi_endproc
                                        # -- End function
	.p2align	4, 0x90                         # -- Begin function redundant
	.type	redundant,@function
redundant:                              # @redundant
	.cfi_startproc
# %bb.0:
	pushq	%rbp
	.cfi_def_cfa_offset 16
	.cfi_offset %rbp, -16
	movq	%rsp, %rbp
	.cfi_def_cfa_register %rbp
	subq	$16, %rsp
	movq	%rdi, %rcx
	movq	%rdi, -8(%rbp)
	movq	stderr(%rip), %rdi
	movq	progName(%rip), %rdx
	movl	$.L.str.51, %esi
	xorl	%eax, %eax
	callq	fprintf
	addq	$16, %rsp
	popq	%rbp
	.cfi_def_cfa %rsp, 8
	retq
.Lfunc_end16:
	.size	redundant, .Lfunc_end16-redundant
	.cfi_endproc
                                        # -- End function
	.p2align	4, 0x90                         # -- Begin function mySignalCatcher
	.type	mySignalCatcher,@function
mySignalCatcher:                        # @mySignalCatcher
	.cfi_startproc
# %bb.0:
	pushq	%rbp
	.cfi_def_cfa_offset 16
	.cfi_offset %rbp, -16
	movq	%rsp, %rbp
	.cfi_def_cfa_register %rbp
	subq	$16, %rsp
	movl	%edi, -4(%rbp)
	movq	stderr(%rip), %rdi
	movq	progName(%rip), %rdx
	movl	$.L.str.52, %esi
	xorl	%eax, %eax
	callq	fprintf
	movl	$1, %edi
	callq	cleanUpAndFail
.Lfunc_end17:
	.size	mySignalCatcher, .Lfunc_end17-mySignalCatcher
	.cfi_endproc
                                        # -- End function
	.p2align	4, 0x90                         # -- Begin function compress
	.type	compress,@function
compress:                               # @compress
	.cfi_startproc
# %bb.0:
	pushq	%rbp
	.cfi_def_cfa_offset 16
	.cfi_offset %rbp, -16
	movq	%rsp, %rbp
	.cfi_def_cfa_register %rbp
	pushq	%r14
	pushq	%rbx
	subq	$192, %rsp
	.cfi_offset %rbx, -32
	.cfi_offset %r14, -24
	movq	%rdi, -48(%rbp)
	movb	$0, deleteOutputOnInterrupt(%rip)
	testq	%rdi, %rdi
	jne	.LBB18_2
# %bb.1:
	cmpl	$1, srcMode(%rip)
	jne	.LBB18_69
.LBB18_2:
	movl	srcMode(%rip), %eax
	cmpl	$3, %eax
	je	.LBB18_6
# %bb.3:
	cmpl	$2, %eax
	je	.LBB18_7
# %bb.4:
	cmpl	$1, %eax
	jne	.LBB18_9
# %bb.5:
	movl	$inName, %edi
	movl	$.L.str.54, %esi
	jmp	.LBB18_8
.LBB18_6:
	movq	-48(%rbp), %rsi
	movl	$inName, %edi
	callq	copyFileName
	movq	-48(%rbp), %rsi
	movl	$outName, %edi
	callq	copyFileName
	movl	$outName, %edi
	movl	$.L.str.9, %esi
	callq	strcat
.LBB18_9:
	cmpl	$1, srcMode(%rip)
	jne	.LBB18_10
	jmp	.LBB18_16
.LBB18_7:
	movq	-48(%rbp), %rsi
	movl	$inName, %edi
.LBB18_8:
	callq	copyFileName
	movl	$outName, %edi
	movl	$.L.str.55, %esi
	callq	copyFileName
	cmpl	$1, srcMode(%rip)
	je	.LBB18_16
.LBB18_10:
	movl	$inName, %edi
	callq	containsDubiousChars
	testb	%al, %al
	je	.LBB18_16
# %bb.11:
	cmpb	$0, noisy(%rip)
	je	.LBB18_15
# %bb.12:
	movq	stderr(%rip), %rdi
	movq	progName(%rip), %rdx
	movl	$.L.str.56, %esi
	jmp	.LBB18_13
.LBB18_16:
	cmpl	$1, srcMode(%rip)
	je	.LBB18_19
# %bb.17:
	movl	$inName, %edi
	callq	fileExists
	testb	%al, %al
	je	.LBB18_18
.LBB18_19:
	movl	$0, -28(%rbp)
	cmpl	$3, -28(%rbp)
	jg	.LBB18_26
	.p2align	4, 0x90
.LBB18_21:                              # =>This Inner Loop Header: Depth=1
	movslq	-28(%rbp), %rax
	movq	zSuffix(,%rax,8), %rsi
	movl	$inName, %edi
	callq	hasSuffix
	testb	%al, %al
	jne	.LBB18_22
# %bb.25:                               #   in Loop: Header=BB18_21 Depth=1
	addl	$1, -28(%rbp)
	cmpl	$3, -28(%rbp)
	jle	.LBB18_21
.LBB18_26:
	cmpl	$3, srcMode(%rip)
	je	.LBB18_28
# %bb.27:
	cmpl	$2, srcMode(%rip)
	jne	.LBB18_30
.LBB18_28:
	leaq	-200(%rbp), %rsi
	movl	$inName, %edi
	callq	stat
	movl	$61440, %eax                    # imm = 0xF000
	andl	-176(%rbp), %eax
	cmpl	$16384, %eax                    # imm = 0x4000
	jne	.LBB18_30
# %bb.29:
	movq	stderr(%rip), %rdi
	movq	progName(%rip), %rdx
	movl	$.L.str.59, %esi
.LBB18_13:
	movl	$inName, %ecx
.LBB18_14:
	xorl	%eax, %eax
	callq	fprintf
	jmp	.LBB18_15
.LBB18_22:
	cmpb	$0, noisy(%rip)
	je	.LBB18_15
# %bb.23:
	movq	stderr(%rip), %rdi
	movq	progName(%rip), %rdx
	movslq	-28(%rbp), %rax
	movq	zSuffix(,%rax,8), %r8
	movl	$.L.str.58, %esi
	movl	$inName, %ecx
	jmp	.LBB18_24
.LBB18_30:
	cmpl	$3, srcMode(%rip)
	jne	.LBB18_35
# %bb.31:
	cmpb	$0, forceOverwrite(%rip)
	je	.LBB18_32
.LBB18_35:
	cmpl	$3, srcMode(%rip)
	jne	.LBB18_39
# %bb.36:
	movl	$outName, %edi
	callq	fileExists
	testb	%al, %al
	je	.LBB18_39
# %bb.37:
	cmpb	$0, forceOverwrite(%rip)
	je	.LBB18_70
# %bb.38:
	movl	$outName, %edi
	callq	remove
.LBB18_39:
	cmpl	$3, srcMode(%rip)
	jne	.LBB18_43
# %bb.40:
	cmpb	$0, forceOverwrite(%rip)
	je	.LBB18_41
.LBB18_43:
	cmpl	$3, srcMode(%rip)
	jne	.LBB18_45
# %bb.44:
	movl	$inName, %edi
	callq	saveInputFileMetaInfo
.LBB18_45:
	movl	srcMode(%rip), %eax
	cmpl	$3, %eax
	je	.LBB18_61
# %bb.46:
	cmpl	$2, %eax
	je	.LBB18_50
# %bb.47:
	cmpl	$1, %eax
	jne	.LBB18_66
# %bb.48:
	movq	stdin(%rip), %rax
	movq	%rax, -24(%rbp)
	movq	stdout(%rip), %rdi
	movq	%rdi, -40(%rbp)
	callq	fileno
	movl	%eax, %edi
	callq	isatty
	testl	%eax, %eax
	je	.LBB18_55
# %bb.49:
	movq	stderr(%rip), %rdi
	movq	progName(%rip), %rdx
	movl	$.L.str.64, %esi
	xorl	%eax, %eax
	callq	fprintf
	movq	stderr(%rip), %rdi
	movq	progName(%rip), %rcx
	movl	$.L.str.65, %esi
	movq	%rcx, %rdx
	jmp	.LBB18_14
.LBB18_61:
	movl	$inName, %edi
	movl	$.L.str.66, %esi
	callq	fopen
	movq	%rax, -24(%rbp)
	movl	$outName, %edi
	movl	$.L.str.67, %esi
	callq	fopen_output_safely
	movq	%rax, -40(%rbp)
	testq	%rax, %rax
	je	.LBB18_62
# %bb.63:
	cmpq	$0, -24(%rbp)
	jne	.LBB18_55
# %bb.64:
	movq	stderr(%rip), %r14
	movq	progName(%rip), %rbx
	callq	__errno_location
	movl	(%rax), %edi
	callq	strerror
	movl	$.L.str.57, %esi
	movl	$inName, %ecx
	movq	%r14, %rdi
	movq	%rbx, %rdx
	movq	%rax, %r8
	xorl	%eax, %eax
	callq	fprintf
	cmpq	$0, -40(%rbp)
	je	.LBB18_15
# %bb.65:
	movq	-40(%rbp), %rdi
	callq	fclose
	jmp	.LBB18_15
.LBB18_50:
	movl	$inName, %edi
	movl	$.L.str.66, %esi
	callq	fopen
	movq	%rax, -24(%rbp)
	movq	stdout(%rip), %rdi
	movq	%rdi, -40(%rbp)
	callq	fileno
	movl	%eax, %edi
	callq	isatty
	testl	%eax, %eax
	je	.LBB18_54
# %bb.51:
	movq	stderr(%rip), %rdi
	movq	progName(%rip), %rdx
	movl	$.L.str.64, %esi
	xorl	%eax, %eax
	callq	fprintf
	movq	stderr(%rip), %rdi
	movq	progName(%rip), %rcx
	movl	$.L.str.65, %esi
	movq	%rcx, %rdx
	xorl	%eax, %eax
	callq	fprintf
	jmp	.LBB18_52
.LBB18_32:
	movl	$inName, %edi
	callq	notAStandardFile
	testb	%al, %al
	je	.LBB18_35
# %bb.33:
	cmpb	$0, noisy(%rip)
	je	.LBB18_15
# %bb.34:
	movq	stderr(%rip), %rdi
	movq	progName(%rip), %rdx
	movl	$.L.str.60, %esi
	jmp	.LBB18_13
.LBB18_41:
	movl	$inName, %edi
	callq	countHardLinks
	movl	%eax, -52(%rbp)
	testl	%eax, %eax
	jle	.LBB18_43
# %bb.42:
	movq	stderr(%rip), %rdi
	movq	progName(%rip), %rdx
	movl	-52(%rbp), %r8d
	cmpl	$1, %r8d
	movl	$.L.str.63, %eax
	movl	$.L.str.4.13, %r9d
	cmovgq	%rax, %r9
	movl	$.L.str.62, %esi
	movl	$inName, %ecx
	xorl	%eax, %eax
	callq	fprintf
	jmp	.LBB18_15
.LBB18_70:
	movq	stderr(%rip), %rdi
	movq	progName(%rip), %rdx
	movl	$.L.str.61, %esi
	movl	$outName, %ecx
	jmp	.LBB18_14
.LBB18_62:
	movq	stderr(%rip), %r14
	movq	progName(%rip), %rbx
	callq	__errno_location
	movl	(%rax), %edi
	callq	strerror
	movl	$.L.str.68, %esi
	movl	$outName, %ecx
	movq	%r14, %rdi
	movq	%rbx, %rdx
	movq	%rax, %r8
	xorl	%eax, %eax
	callq	fprintf
.LBB18_52:
	cmpq	$0, -24(%rbp)
	je	.LBB18_15
# %bb.53:
	movq	-24(%rbp), %rdi
	callq	fclose
	jmp	.LBB18_15
.LBB18_54:
	cmpq	$0, -24(%rbp)
	je	.LBB18_18
.LBB18_55:
	cmpl	$0, verbosity(%rip)
	jle	.LBB18_57
# %bb.56:
	movq	stderr(%rip), %rdi
	movl	$.L.str.70, %esi
	movl	$inName, %edx
	xorl	%eax, %eax
	callq	fprintf
	movl	$inName, %edi
	callq	pad
	movq	stderr(%rip), %rdi
	callq	fflush
.LBB18_57:
	movq	-40(%rbp), %rsi
	movq	%rsi, outputHandleJustInCase(%rip)
	movb	$1, deleteOutputOnInterrupt(%rip)
	movq	-24(%rbp), %rdi
	callq	compressStream
	movq	$0, outputHandleJustInCase(%rip)
	cmpl	$3, srcMode(%rip)
	jne	.LBB18_67
# %bb.58:
	movl	$outName, %edi
	callq	applySavedTimeInfoToOutputFile
	movb	$0, deleteOutputOnInterrupt(%rip)
	cmpb	$0, keepInputFiles(%rip)
	jne	.LBB18_67
# %bb.59:
	movl	$inName, %edi
	callq	remove
	movl	%eax, -56(%rbp)
	testl	%eax, %eax
	jne	.LBB18_60
.LBB18_67:
	movb	$0, deleteOutputOnInterrupt(%rip)
	jmp	.LBB18_68
.LBB18_18:
	movq	stderr(%rip), %r14
	movq	progName(%rip), %rbx
	callq	__errno_location
	movl	(%rax), %edi
	callq	strerror
	movl	$.L.str.57, %esi
	movl	$inName, %ecx
	movq	%r14, %rdi
	movq	%rbx, %rdx
	movq	%rax, %r8
.LBB18_24:
	xorl	%eax, %eax
	callq	fprintf
.LBB18_15:
	movl	$1, %edi
	callq	setExit
.LBB18_68:
	addq	$192, %rsp
	popq	%rbx
	popq	%r14
	popq	%rbp
	.cfi_def_cfa %rsp, 8
	retq
.LBB18_69:
	.cfi_def_cfa %rbp, 16
	movl	$.L.str.53, %edi
	callq	panic
.LBB18_66:
	movl	$.L.str.69, %edi
	callq	panic
.LBB18_60:
	callq	ioError
.Lfunc_end18:
	.size	compress, .Lfunc_end18-compress
	.cfi_endproc
                                        # -- End function
	.p2align	4, 0x90                         # -- Begin function uncompress
	.type	uncompress,@function
uncompress:                             # @uncompress
	.cfi_startproc
# %bb.0:
	pushq	%rbp
	.cfi_def_cfa_offset 16
	.cfi_offset %rbp, -16
	movq	%rsp, %rbp
	.cfi_def_cfa_register %rbp
	pushq	%r14
	pushq	%rbx
	subq	$208, %rsp
	.cfi_offset %rbx, -32
	.cfi_offset %r14, -24
	movq	%rdi, -56(%rbp)
	movb	$0, deleteOutputOnInterrupt(%rip)
	testq	%rdi, %rdi
	jne	.LBB19_2
# %bb.1:
	cmpl	$1, srcMode(%rip)
	jne	.LBB19_78
.LBB19_2:
	movb	$0, -17(%rbp)
	movl	srcMode(%rip), %eax
	cmpl	$3, %eax
	je	.LBB19_6
# %bb.3:
	cmpl	$2, %eax
	je	.LBB19_11
# %bb.4:
	cmpl	$1, %eax
	jne	.LBB19_13
# %bb.5:
	movl	$inName, %edi
	movl	$.L.str.54, %esi
	jmp	.LBB19_12
.LBB19_6:
	movq	-56(%rbp), %rsi
	movl	$inName, %edi
	callq	copyFileName
	movq	-56(%rbp), %rsi
	movl	$outName, %edi
	callq	copyFileName
	movl	$0, -36(%rbp)
	cmpl	$3, -36(%rbp)
	jg	.LBB19_10
	.p2align	4, 0x90
.LBB19_8:                               # =>This Inner Loop Header: Depth=1
	movslq	-36(%rbp), %rax
	movq	zSuffix(,%rax,8), %rsi
	movq	unzSuffix(,%rax,8), %rdx
	movl	$outName, %edi
	callq	mapSuffix
	testb	%al, %al
	jne	.LBB19_13
# %bb.9:                                #   in Loop: Header=BB19_8 Depth=1
	addl	$1, -36(%rbp)
	cmpl	$3, -36(%rbp)
	jle	.LBB19_8
.LBB19_10:
	movb	$1, -17(%rbp)
	movl	$outName, %edi
	movl	$.L.str.80, %esi
	callq	strcat
.LBB19_13:
	cmpl	$1, srcMode(%rip)
	jne	.LBB19_14
	jmp	.LBB19_20
.LBB19_11:
	movq	-56(%rbp), %rsi
	movl	$inName, %edi
.LBB19_12:
	callq	copyFileName
	movl	$outName, %edi
	movl	$.L.str.55, %esi
	callq	copyFileName
	cmpl	$1, srcMode(%rip)
	je	.LBB19_20
.LBB19_14:
	movl	$inName, %edi
	callq	containsDubiousChars
	testb	%al, %al
	je	.LBB19_20
# %bb.15:
	cmpb	$0, noisy(%rip)
	je	.LBB19_19
# %bb.16:
	movq	stderr(%rip), %rdi
	movq	progName(%rip), %rdx
	movl	$.L.str.56, %esi
	jmp	.LBB19_17
.LBB19_20:
	cmpl	$1, srcMode(%rip)
	je	.LBB19_23
# %bb.21:
	movl	$inName, %edi
	callq	fileExists
	testb	%al, %al
	je	.LBB19_22
.LBB19_23:
	cmpl	$3, srcMode(%rip)
	je	.LBB19_25
# %bb.24:
	cmpl	$2, srcMode(%rip)
	jne	.LBB19_27
.LBB19_25:
	leaq	-216(%rbp), %rsi
	movl	$inName, %edi
	callq	stat
	movl	$61440, %eax                    # imm = 0xF000
	andl	-192(%rbp), %eax
	cmpl	$16384, %eax                    # imm = 0x4000
	jne	.LBB19_27
# %bb.26:
	movq	stderr(%rip), %rdi
	movq	progName(%rip), %rdx
	movl	$.L.str.59, %esi
.LBB19_17:
	movl	$inName, %ecx
.LBB19_18:
	xorl	%eax, %eax
	callq	fprintf
.LBB19_19:
	movl	$1, %edi
	callq	setExit
.LBB19_77:
	addq	$208, %rsp
	popq	%rbx
	popq	%r14
	popq	%rbp
	.cfi_def_cfa %rsp, 8
	retq
.LBB19_27:
	.cfi_def_cfa %rbp, 16
	cmpl	$3, srcMode(%rip)
	jne	.LBB19_32
# %bb.28:
	cmpb	$0, forceOverwrite(%rip)
	je	.LBB19_29
.LBB19_32:
	cmpb	$0, -17(%rbp)
	je	.LBB19_35
# %bb.33:
	cmpb	$0, noisy(%rip)
	je	.LBB19_35
# %bb.34:
	movq	stderr(%rip), %rdi
	movq	progName(%rip), %rdx
	movl	$.L.str.81, %esi
	movl	$inName, %ecx
	movl	$outName, %r8d
	xorl	%eax, %eax
	callq	fprintf
.LBB19_35:
	cmpl	$3, srcMode(%rip)
	jne	.LBB19_39
# %bb.36:
	movl	$outName, %edi
	callq	fileExists
	testb	%al, %al
	je	.LBB19_39
# %bb.37:
	cmpb	$0, forceOverwrite(%rip)
	je	.LBB19_79
# %bb.38:
	movl	$outName, %edi
	callq	remove
.LBB19_39:
	cmpl	$3, srcMode(%rip)
	jne	.LBB19_43
# %bb.40:
	cmpb	$0, forceOverwrite(%rip)
	je	.LBB19_41
.LBB19_43:
	cmpl	$3, srcMode(%rip)
	jne	.LBB19_45
# %bb.44:
	movl	$inName, %edi
	callq	saveInputFileMetaInfo
.LBB19_45:
	movl	srcMode(%rip), %eax
	cmpl	$3, %eax
	je	.LBB19_54
# %bb.46:
	cmpl	$2, %eax
	je	.LBB19_50
# %bb.47:
	cmpl	$1, %eax
	jne	.LBB19_59
# %bb.48:
	movq	stdin(%rip), %rdi
	movq	%rdi, -32(%rbp)
	movq	stdout(%rip), %rax
	movq	%rax, -48(%rbp)
	callq	fileno
	movl	%eax, %edi
	callq	isatty
	testl	%eax, %eax
	je	.LBB19_60
# %bb.49:
	movq	stderr(%rip), %rdi
	movq	progName(%rip), %rdx
	movl	$.L.str.82, %esi
	xorl	%eax, %eax
	callq	fprintf
	movq	stderr(%rip), %rdi
	movq	progName(%rip), %rcx
	movl	$.L.str.65, %esi
	movq	%rcx, %rdx
	jmp	.LBB19_18
.LBB19_22:
	movq	stderr(%rip), %r14
	movq	progName(%rip), %rbx
	callq	__errno_location
	movl	(%rax), %edi
	callq	strerror
	movl	$.L.str.57, %esi
	movl	$inName, %ecx
	movq	%r14, %rdi
	movq	%rbx, %rdx
	movq	%rax, %r8
	xorl	%eax, %eax
	callq	fprintf
	jmp	.LBB19_19
.LBB19_54:
	movl	$inName, %edi
	movl	$.L.str.66, %esi
	callq	fopen
	movq	%rax, -32(%rbp)
	movl	$outName, %edi
	movl	$.L.str.67, %esi
	callq	fopen_output_safely
	movq	%rax, -48(%rbp)
	testq	%rax, %rax
	je	.LBB19_55
# %bb.56:
	cmpq	$0, -32(%rbp)
	jne	.LBB19_60
# %bb.57:
	movq	stderr(%rip), %r14
	movq	progName(%rip), %rbx
	callq	__errno_location
	movl	(%rax), %edi
	callq	strerror
	movl	$.L.str.57, %esi
	movl	$inName, %ecx
	movq	%r14, %rdi
	movq	%rbx, %rdx
	movq	%rax, %r8
	xorl	%eax, %eax
	callq	fprintf
	cmpq	$0, -48(%rbp)
	je	.LBB19_19
# %bb.58:
	movq	-48(%rbp), %rdi
	callq	fclose
	jmp	.LBB19_19
.LBB19_50:
	movl	$inName, %edi
	movl	$.L.str.66, %esi
	callq	fopen
	movq	%rax, -32(%rbp)
	movq	stdout(%rip), %rcx
	movq	%rcx, -48(%rbp)
	testq	%rax, %rax
	je	.LBB19_51
.LBB19_60:
	cmpl	$0, verbosity(%rip)
	jle	.LBB19_62
# %bb.61:
	movq	stderr(%rip), %rdi
	movl	$.L.str.70, %esi
	movl	$inName, %edx
	xorl	%eax, %eax
	callq	fprintf
	movl	$inName, %edi
	callq	pad
	movq	stderr(%rip), %rdi
	callq	fflush
.LBB19_62:
	movq	-48(%rbp), %rsi
	movq	%rsi, outputHandleJustInCase(%rip)
	movb	$1, deleteOutputOnInterrupt(%rip)
	movq	-32(%rbp), %rdi
	callq	uncompressStream
	movb	%al, -18(%rbp)
	movq	$0, outputHandleJustInCase(%rip)
	testb	%al, %al
	je	.LBB19_68
# %bb.63:
	cmpl	$3, srcMode(%rip)
	jne	.LBB19_70
# %bb.64:
	movl	$outName, %edi
	callq	applySavedTimeInfoToOutputFile
	movb	$0, deleteOutputOnInterrupt(%rip)
	cmpb	$0, keepInputFiles(%rip)
	jne	.LBB19_70
# %bb.65:
	movl	$inName, %edi
	callq	remove
	movl	%eax, -68(%rbp)
	jmp	.LBB19_66
.LBB19_29:
	movl	$inName, %edi
	callq	notAStandardFile
	testb	%al, %al
	je	.LBB19_32
# %bb.30:
	cmpb	$0, noisy(%rip)
	je	.LBB19_19
# %bb.31:
	movq	stderr(%rip), %rdi
	movq	progName(%rip), %rdx
	movl	$.L.str.60, %esi
	jmp	.LBB19_17
.LBB19_41:
	movl	$inName, %edi
	callq	countHardLinks
	movl	%eax, -60(%rbp)
	testl	%eax, %eax
	jle	.LBB19_43
# %bb.42:
	movq	stderr(%rip), %rdi
	movq	progName(%rip), %rdx
	movl	-60(%rbp), %r8d
	cmpl	$1, %r8d
	movl	$.L.str.63, %eax
	movl	$.L.str.4.13, %r9d
	cmovgq	%rax, %r9
	movl	$.L.str.62, %esi
	movl	$inName, %ecx
	xorl	%eax, %eax
	callq	fprintf
	jmp	.LBB19_19
.LBB19_68:
	movb	$1, unzFailsExist(%rip)
	movb	$0, deleteOutputOnInterrupt(%rip)
	cmpl	$3, srcMode(%rip)
	jne	.LBB19_70
# %bb.69:
	movl	$outName, %edi
	callq	remove
	movl	%eax, -64(%rbp)
.LBB19_66:
	testl	%eax, %eax
	jne	.LBB19_67
.LBB19_70:
	movb	$0, deleteOutputOnInterrupt(%rip)
	cmpb	$0, -18(%rbp)
	je	.LBB19_74
# %bb.71:
	cmpl	$0, verbosity(%rip)
	jle	.LBB19_77
# %bb.72:
	movq	stderr(%rip), %rdi
	movl	$.L.str.85, %esi
	jmp	.LBB19_73
.LBB19_74:
	movl	$2, %edi
	callq	setExit
	cmpl	$0, verbosity(%rip)
	jle	.LBB19_76
# %bb.75:
	movq	stderr(%rip), %rdi
	movl	$.L.str.86, %esi
.LBB19_73:
	xorl	%eax, %eax
	callq	fprintf
	jmp	.LBB19_77
.LBB19_79:
	movq	stderr(%rip), %rdi
	movq	progName(%rip), %rdx
	movl	$.L.str.61, %esi
	movl	$outName, %ecx
	jmp	.LBB19_18
.LBB19_55:
	movq	stderr(%rip), %r14
	movq	progName(%rip), %rbx
	callq	__errno_location
	movl	(%rax), %edi
	callq	strerror
	movl	$.L.str.68, %esi
	movl	$outName, %ecx
	jmp	.LBB19_52
.LBB19_51:
	movq	stderr(%rip), %r14
	movq	progName(%rip), %rbx
	callq	__errno_location
	movl	(%rax), %edi
	callq	strerror
	movl	$.L.str.83, %esi
	movl	$inName, %ecx
.LBB19_52:
	movq	%r14, %rdi
	movq	%rbx, %rdx
	movq	%rax, %r8
	xorl	%eax, %eax
	callq	fprintf
	cmpq	$0, -32(%rbp)
	je	.LBB19_19
# %bb.53:
	movq	-32(%rbp), %rdi
	callq	fclose
	jmp	.LBB19_19
.LBB19_76:
	movq	stderr(%rip), %rdi
	movq	progName(%rip), %rdx
	movl	$.L.str.87, %esi
	movl	$inName, %ecx
	xorl	%eax, %eax
	callq	fprintf
	jmp	.LBB19_77
.LBB19_78:
	movl	$.L.str.79, %edi
	callq	panic
.LBB19_59:
	movl	$.L.str.84, %edi
	callq	panic
.LBB19_67:
	callq	ioError
.Lfunc_end19:
	.size	uncompress, .Lfunc_end19-uncompress
	.cfi_endproc
                                        # -- End function
	.p2align	4, 0x90                         # -- Begin function setExit
	.type	setExit,@function
setExit:                                # @setExit
	.cfi_startproc
# %bb.0:
	pushq	%rbp
	.cfi_def_cfa_offset 16
	.cfi_offset %rbp, -16
	movq	%rsp, %rbp
	.cfi_def_cfa_register %rbp
	movl	%edi, -4(%rbp)
	cmpl	exitValue(%rip), %edi
	jle	.LBB20_2
# %bb.1:
	movl	-4(%rbp), %eax
	movl	%eax, exitValue(%rip)
.LBB20_2:
	popq	%rbp
	.cfi_def_cfa %rsp, 8
	retq
.Lfunc_end20:
	.size	setExit, .Lfunc_end20-setExit
	.cfi_endproc
                                        # -- End function
	.p2align	4, 0x90                         # -- Begin function testf
	.type	testf,@function
testf:                                  # @testf
	.cfi_startproc
# %bb.0:
	pushq	%rbp
	.cfi_def_cfa_offset 16
	.cfi_offset %rbp, -16
	movq	%rsp, %rbp
	.cfi_def_cfa_register %rbp
	pushq	%r14
	pushq	%rbx
	subq	$176, %rsp
	.cfi_offset %rbx, -32
	.cfi_offset %r14, -24
	movq	%rdi, -40(%rbp)
	movb	$0, deleteOutputOnInterrupt(%rip)
	testq	%rdi, %rdi
	jne	.LBB21_2
# %bb.1:
	cmpl	$1, srcMode(%rip)
	jne	.LBB21_38
.LBB21_2:
	movl	$outName, %edi
	movl	$.L.str.6.15, %esi
	callq	copyFileName
	movl	srcMode(%rip), %eax
	cmpl	$3, %eax
	je	.LBB21_6
# %bb.3:
	cmpl	$2, %eax
	je	.LBB21_6
# %bb.4:
	cmpl	$1, %eax
	jne	.LBB21_8
# %bb.5:
	movl	$inName, %edi
	movl	$.L.str.54, %esi
	jmp	.LBB21_7
.LBB21_6:
	movq	-40(%rbp), %rsi
	movl	$inName, %edi
.LBB21_7:
	callq	copyFileName
.LBB21_8:
	cmpl	$1, srcMode(%rip)
	je	.LBB21_15
# %bb.9:
	movl	$inName, %edi
	callq	containsDubiousChars
	testb	%al, %al
	je	.LBB21_15
# %bb.10:
	cmpb	$0, noisy(%rip)
	je	.LBB21_14
# %bb.11:
	movq	stderr(%rip), %rdi
	movq	progName(%rip), %rdx
	movl	$.L.str.56, %esi
	jmp	.LBB21_12
.LBB21_15:
	cmpl	$1, srcMode(%rip)
	je	.LBB21_19
# %bb.16:
	movl	$inName, %edi
	callq	fileExists
	testb	%al, %al
	je	.LBB21_17
.LBB21_19:
	cmpl	$1, srcMode(%rip)
	je	.LBB21_22
# %bb.20:
	leaq	-184(%rbp), %rsi
	movl	$inName, %edi
	callq	stat
	movl	$61440, %eax                    # imm = 0xF000
	andl	-160(%rbp), %eax
	cmpl	$16384, %eax                    # imm = 0x4000
	jne	.LBB21_22
# %bb.21:
	movq	stderr(%rip), %rdi
	movq	progName(%rip), %rdx
	movl	$.L.str.59, %esi
.LBB21_12:
	movl	$inName, %ecx
	jmp	.LBB21_13
.LBB21_22:
	movl	srcMode(%rip), %eax
	leal	-2(%rax), %ecx
	cmpl	$2, %ecx
	jae	.LBB21_23
# %bb.26:
	movl	$inName, %edi
	movl	$.L.str.66, %esi
	callq	fopen
	movq	%rax, -32(%rbp)
	testq	%rax, %rax
	je	.LBB21_27
# %bb.30:
	cmpl	$0, verbosity(%rip)
	jle	.LBB21_32
.LBB21_31:
	movq	stderr(%rip), %rdi
	movl	$.L.str.70, %esi
	movl	$inName, %edx
	xorl	%eax, %eax
	callq	fprintf
	movl	$inName, %edi
	callq	pad
	movq	stderr(%rip), %rdi
	callq	fflush
.LBB21_32:
	movq	$0, outputHandleJustInCase(%rip)
	movq	-32(%rbp), %rdi
	callq	testStream
	movb	%al, -17(%rbp)
	testb	%al, %al
	je	.LBB21_35
# %bb.33:
	cmpl	$0, verbosity(%rip)
	jle	.LBB21_35
# %bb.34:
	movq	stderr(%rip), %rdi
	movl	$.L.str.97, %esi
	xorl	%eax, %eax
	callq	fprintf
.LBB21_35:
	cmpb	$0, -17(%rbp)
	jne	.LBB21_37
# %bb.36:
	movb	$1, testFailsExist(%rip)
	jmp	.LBB21_37
.LBB21_23:
	cmpl	$1, %eax
	jne	.LBB21_28
# %bb.24:
	movq	stdin(%rip), %rdi
	callq	fileno
	movl	%eax, %edi
	callq	isatty
	testl	%eax, %eax
	je	.LBB21_29
# %bb.25:
	movq	stderr(%rip), %rdi
	movq	progName(%rip), %rdx
	movl	$.L.str.82, %esi
	xorl	%eax, %eax
	callq	fprintf
	movq	stderr(%rip), %rdi
	movq	progName(%rip), %rcx
	movl	$.L.str.65, %esi
	movq	%rcx, %rdx
.LBB21_13:
	xorl	%eax, %eax
	callq	fprintf
	jmp	.LBB21_14
.LBB21_17:
	movq	stderr(%rip), %r14
	movq	progName(%rip), %rbx
	callq	__errno_location
	movl	(%rax), %edi
	callq	strerror
	movl	$.L.str.95, %esi
	jmp	.LBB21_18
.LBB21_27:
	movq	stderr(%rip), %r14
	movq	progName(%rip), %rbx
	callq	__errno_location
	movl	(%rax), %edi
	callq	strerror
	movl	$.L.str.83, %esi
.LBB21_18:
	movl	$inName, %ecx
	movq	%r14, %rdi
	movq	%rbx, %rdx
	movq	%rax, %r8
	xorl	%eax, %eax
	callq	fprintf
.LBB21_14:
	movl	$1, %edi
	callq	setExit
.LBB21_37:
	addq	$176, %rsp
	popq	%rbx
	popq	%r14
	popq	%rbp
	.cfi_def_cfa %rsp, 8
	retq
.LBB21_29:
	.cfi_def_cfa %rbp, 16
	movq	stdin(%rip), %rax
	movq	%rax, -32(%rbp)
	cmpl	$0, verbosity(%rip)
	jg	.LBB21_31
	jmp	.LBB21_32
.LBB21_38:
	movl	$.L.str.94, %edi
	callq	panic
.LBB21_28:
	movl	$.L.str.96, %edi
	callq	panic
.Lfunc_end21:
	.size	testf, .Lfunc_end21-testf
	.cfi_endproc
                                        # -- End function
	.p2align	4, 0x90                         # -- Begin function panic
	.type	panic,@function
panic:                                  # @panic
	.cfi_startproc
# %bb.0:
	pushq	%rbp
	.cfi_def_cfa_offset 16
	.cfi_offset %rbp, -16
	movq	%rsp, %rbp
	.cfi_def_cfa_register %rbp
	subq	$16, %rsp
	movq	%rdi, %rcx
	movq	%rdi, -8(%rbp)
	movq	stderr(%rip), %rdi
	movq	progName(%rip), %rdx
	movl	$.L.str.71, %esi
	xorl	%eax, %eax
	callq	fprintf
	callq	showFileNames
	movl	$3, %edi
	callq	cleanUpAndFail
.Lfunc_end22:
	.size	panic, .Lfunc_end22-panic
	.cfi_endproc
                                        # -- End function
	.p2align	4, 0x90                         # -- Begin function containsDubiousChars
	.type	containsDubiousChars,@function
containsDubiousChars:                   # @containsDubiousChars
	.cfi_startproc
# %bb.0:
	pushq	%rbp
	.cfi_def_cfa_offset 16
	.cfi_offset %rbp, -16
	movq	%rsp, %rbp
	.cfi_def_cfa_register %rbp
	movq	%rdi, -8(%rbp)
	xorl	%eax, %eax
	popq	%rbp
	.cfi_def_cfa %rsp, 8
	retq
.Lfunc_end23:
	.size	containsDubiousChars, .Lfunc_end23-containsDubiousChars
	.cfi_endproc
                                        # -- End function
	.p2align	4, 0x90                         # -- Begin function fileExists
	.type	fileExists,@function
fileExists:                             # @fileExists
	.cfi_startproc
# %bb.0:
	pushq	%rbp
	.cfi_def_cfa_offset 16
	.cfi_offset %rbp, -16
	movq	%rsp, %rbp
	.cfi_def_cfa_register %rbp
	subq	$32, %rsp
	movq	%rdi, -24(%rbp)
	movl	$.L.str.66, %esi
	callq	fopen
	movq	%rax, -16(%rbp)
	testq	%rax, %rax
	setne	-1(%rbp)
	je	.LBB24_2
# %bb.1:
	movq	-16(%rbp), %rdi
	callq	fclose
.LBB24_2:
	movb	-1(%rbp), %al
	addq	$32, %rsp
	popq	%rbp
	.cfi_def_cfa %rsp, 8
	retq
.Lfunc_end24:
	.size	fileExists, .Lfunc_end24-fileExists
	.cfi_endproc
                                        # -- End function
	.p2align	4, 0x90                         # -- Begin function pad
	.type	pad,@function
pad:                                    # @pad
	.cfi_startproc
# %bb.0:
	pushq	%rbp
	.cfi_def_cfa_offset 16
	.cfi_offset %rbp, -16
	movq	%rsp, %rbp
	.cfi_def_cfa_register %rbp
	pushq	%r14
	pushq	%rbx
	subq	$16, %rsp
	.cfi_offset %rbx, -32
	.cfi_offset %r14, -24
	movq	%rdi, -32(%rbp)
	callq	strlen
	cmpl	longestFileName(%rip), %eax
	jl	.LBB25_1
.LBB25_4:
	addq	$16, %rsp
	popq	%rbx
	popq	%r14
	popq	%rbp
	.cfi_def_cfa %rsp, 8
	retq
.LBB25_1:
	.cfi_def_cfa %rbp, 16
	movl	$1, -20(%rbp)
	.p2align	4, 0x90
.LBB25_2:                               # =>This Inner Loop Header: Depth=1
	movl	-20(%rbp), %r14d
	movl	longestFileName(%rip), %ebx
	movq	-32(%rbp), %rdi
	callq	strlen
	subl	%eax, %ebx
	cmpl	%ebx, %r14d
	jg	.LBB25_4
# %bb.3:                                #   in Loop: Header=BB25_2 Depth=1
	movq	stderr(%rip), %rdi
	movl	$.L.str.72, %esi
	xorl	%eax, %eax
	callq	fprintf
	addl	$1, -20(%rbp)
	jmp	.LBB25_2
.Lfunc_end25:
	.size	pad, .Lfunc_end25-pad
	.cfi_endproc
                                        # -- End function
	.p2align	4, 0x90                         # -- Begin function testStream
	.type	testStream,@function
testStream:                             # @testStream
	.cfi_startproc
# %bb.0:
	pushq	%rbp
	.cfi_def_cfa_offset 16
	.cfi_offset %rbp, -16
	movq	%rsp, %rbp
	.cfi_def_cfa_register %rbp
	pushq	%r15
	pushq	%r14
	pushq	%r13
	pushq	%r12
	pushq	%rbx
	subq	$10088, %rsp                    # imm = 0x2768
	.cfi_offset %rbx, -56
	.cfi_offset %r12, -48
	.cfi_offset %r13, -40
	.cfi_offset %r14, -32
	.cfi_offset %r15, -24
	movq	%rdi, -64(%rbp)
	movq	$0, -72(%rbp)
	movl	$0, -52(%rbp)
	movl	$0, -76(%rbp)
	callq	ferror
	testl	%eax, %eax
	jne	.LBB26_24
# %bb.1:
	leaq	-48(%rbp), %rbx
	leaq	-5120(%rbp), %r14
	leaq	-10128(%rbp), %r15
	leaq	-96(%rbp), %r12
	leaq	-52(%rbp), %r13
.LBB26_2:                               # =>This Loop Header: Depth=1
                                        #     Child Loop BB26_5 Depth 2
                                        #     Child Loop BB26_14 Depth 2
	movq	-64(%rbp), %rsi
	movl	verbosity(%rip), %edx
	movzbl	smallMode(%rip), %ecx
	movl	-52(%rbp), %r9d
	movq	%rbx, %rdi
	movq	%r14, %r8
	callq	BZ2_bzReadOpen
	movq	%rax, -72(%rbp)
	testq	%rax, %rax
	je	.LBB26_7
# %bb.3:                                #   in Loop: Header=BB26_2 Depth=1
	cmpl	$0, -48(%rbp)
	jne	.LBB26_7
# %bb.4:                                #   in Loop: Header=BB26_2 Depth=1
	addl	$1, -76(%rbp)
	.p2align	4, 0x90
.LBB26_5:                               #   Parent Loop BB26_2 Depth=1
                                        # =>  This Inner Loop Header: Depth=2
	cmpl	$0, -48(%rbp)
	jne	.LBB26_11
# %bb.6:                                #   in Loop: Header=BB26_5 Depth=2
	movq	-72(%rbp), %rsi
	movq	%rbx, %rdi
	movq	%r15, %rdx
	movl	$5000, %ecx                     # imm = 0x1388
	callq	BZ2_bzRead
	movl	%eax, -100(%rbp)
	cmpl	$-5, -48(%rbp)
	jne	.LBB26_5
	jmp	.LBB26_7
	.p2align	4, 0x90
.LBB26_11:                              #   in Loop: Header=BB26_2 Depth=1
	cmpl	$4, -48(%rbp)
	jne	.LBB26_7
# %bb.12:                               #   in Loop: Header=BB26_2 Depth=1
	movq	-72(%rbp), %rsi
	movq	%rbx, %rdi
	movq	%r12, %rdx
	movq	%r13, %rcx
	callq	BZ2_bzReadGetUnused
	cmpl	$0, -48(%rbp)
	jne	.LBB26_38
# %bb.13:                               #   in Loop: Header=BB26_2 Depth=1
	movq	-96(%rbp), %rax
	movq	%rax, -88(%rbp)
	movl	$0, -56(%rbp)
	.p2align	4, 0x90
.LBB26_14:                              #   Parent Loop BB26_2 Depth=1
                                        # =>  This Inner Loop Header: Depth=2
	movl	-56(%rbp), %eax
	cmpl	-52(%rbp), %eax
	jge	.LBB26_16
# %bb.15:                               #   in Loop: Header=BB26_14 Depth=2
	movq	-88(%rbp), %rax
	movslq	-56(%rbp), %rcx
	movzbl	(%rax,%rcx), %eax
	movb	%al, -5120(%rbp,%rcx)
	leal	1(%rcx), %eax
	movl	%eax, -56(%rbp)
	jmp	.LBB26_14
	.p2align	4, 0x90
.LBB26_16:                              #   in Loop: Header=BB26_2 Depth=1
	movq	-72(%rbp), %rsi
	movq	%rbx, %rdi
	callq	BZ2_bzReadClose
	cmpl	$0, -48(%rbp)
	jne	.LBB26_38
# %bb.17:                               #   in Loop: Header=BB26_2 Depth=1
	cmpl	$0, -52(%rbp)
	jne	.LBB26_2
# %bb.18:                               #   in Loop: Header=BB26_2 Depth=1
	movq	-64(%rbp), %rdi
	callq	myfeof
	testb	%al, %al
	je	.LBB26_2
# %bb.19:
	movq	-64(%rbp), %rdi
	callq	ferror
	testl	%eax, %eax
	jne	.LBB26_24
# %bb.20:
	movq	-64(%rbp), %rdi
	callq	fclose
	movl	%eax, -104(%rbp)
	cmpl	$-1, %eax
	je	.LBB26_24
# %bb.21:
	cmpl	$2, verbosity(%rip)
	jl	.LBB26_36
# %bb.22:
	movq	stderr(%rip), %rdi
	movl	$.L.str.89, %esi
	jmp	.LBB26_35
.LBB26_7:
	movq	-72(%rbp), %rsi
	leaq	-108(%rbp), %rdi
	callq	BZ2_bzReadClose
	cmpl	$0, verbosity(%rip)
	jne	.LBB26_9
# %bb.8:
	movq	stderr(%rip), %rdi
	movq	progName(%rip), %rdx
	movl	$.L.str.99, %esi
	movl	$inName, %ecx
	xorl	%eax, %eax
	callq	fprintf
.LBB26_9:
	movl	-48(%rbp), %eax
	addl	$9, %eax
	cmpl	$6, %eax
	ja	.LBB26_39
# %bb.10:
	jmpq	*.LJTI26_0(,%rax,8)
.LBB26_28:
	movq	stderr(%rip), %rdi
	movl	$.L.str.101, %esi
	jmp	.LBB26_26
.LBB26_29:
	movq	-64(%rbp), %rax
	cmpq	stdin(%rip), %rax
	je	.LBB26_31
# %bb.30:
	movq	-64(%rbp), %rdi
	callq	fclose
.LBB26_31:
	cmpl	$1, -76(%rbp)
	jne	.LBB26_33
# %bb.32:
	movq	stderr(%rip), %rdi
	movl	$.L.str.102, %esi
	jmp	.LBB26_26
.LBB26_25:
	movq	stderr(%rip), %rdi
	movl	$.L.str.100, %esi
.LBB26_26:
	xorl	%eax, %eax
	callq	fprintf
	movb	$0, -41(%rbp)
.LBB26_37:
	movb	-41(%rbp), %al
	addq	$10088, %rsp                    # imm = 0x2768
	popq	%rbx
	popq	%r12
	popq	%r13
	popq	%r14
	popq	%r15
	popq	%rbp
	.cfi_def_cfa %rsp, 8
	retq
.LBB26_33:
	.cfi_def_cfa %rbp, 16
	cmpb	$0, noisy(%rip)
	je	.LBB26_36
# %bb.34:
	movq	stderr(%rip), %rdi
	movl	$.L.str.103, %esi
.LBB26_35:
	xorl	%eax, %eax
	callq	fprintf
.LBB26_36:
	movb	$1, -41(%rbp)
	jmp	.LBB26_37
.LBB26_38:
	movl	$.L.str.98, %edi
	callq	panic
.LBB26_24:
	callq	ioError
.LBB26_23:
	callq	configError
.LBB26_39:
	movl	$.L.str.104, %edi
	callq	panic
.LBB26_27:
	callq	outOfMemory
.Lfunc_end26:
	.size	testStream, .Lfunc_end26-testStream
	.cfi_endproc
	.section	.rodata,"a",@progbits
	.p2align	3
.LJTI26_0:
	.quad	.LBB26_23
	.quad	.LBB26_39
	.quad	.LBB26_28
	.quad	.LBB26_24
	.quad	.LBB26_29
	.quad	.LBB26_25
	.quad	.LBB26_27
                                        # -- End function
	.text
	.p2align	4, 0x90                         # -- Begin function myfeof
	.type	myfeof,@function
myfeof:                                 # @myfeof
	.cfi_startproc
# %bb.0:
	pushq	%rbp
	.cfi_def_cfa_offset 16
	.cfi_offset %rbp, -16
	movq	%rsp, %rbp
	.cfi_def_cfa_register %rbp
	subq	$16, %rsp
	movq	%rdi, -16(%rbp)
	callq	fgetc
	movl	%eax, -8(%rbp)
	cmpl	$-1, %eax
	je	.LBB27_1
# %bb.2:
	movl	-8(%rbp), %edi
	movq	-16(%rbp), %rsi
	callq	ungetc
	movb	$0, -1(%rbp)
	jmp	.LBB27_3
.LBB27_1:
	movb	$1, -1(%rbp)
.LBB27_3:
	movb	-1(%rbp), %al
	addq	$16, %rsp
	popq	%rbp
	.cfi_def_cfa %rsp, 8
	retq
.Lfunc_end27:
	.size	myfeof, .Lfunc_end27-myfeof
	.cfi_endproc
                                        # -- End function
	.p2align	4, 0x90                         # -- Begin function configError
	.type	configError,@function
configError:                            # @configError
	.cfi_startproc
# %bb.0:
	pushq	%rbp
	.cfi_def_cfa_offset 16
	.cfi_offset %rbp, -16
	movq	%rsp, %rbp
	.cfi_def_cfa_register %rbp
	movq	stderr(%rip), %rdi
	movl	$.L.str.77, %esi
	xorl	%eax, %eax
	callq	fprintf
	movl	$3, %edi
	callq	setExit
	movl	exitValue(%rip), %edi
	callq	exit
.Lfunc_end28:
	.size	configError, .Lfunc_end28-configError
	.cfi_endproc
                                        # -- End function
	.p2align	4, 0x90                         # -- Begin function ioError
	.type	ioError,@function
ioError:                                # @ioError
	.cfi_startproc
# %bb.0:
	pushq	%rbp
	.cfi_def_cfa_offset 16
	.cfi_offset %rbp, -16
	movq	%rsp, %rbp
	.cfi_def_cfa_register %rbp
	movq	stderr(%rip), %rdi
	movq	progName(%rip), %rdx
	movl	$.L.str.78, %esi
	xorl	%eax, %eax
	callq	fprintf
	movq	progName(%rip), %rdi
	callq	perror
	callq	showFileNames
	movl	$1, %edi
	callq	cleanUpAndFail
.Lfunc_end29:
	.size	ioError, .Lfunc_end29-ioError
	.cfi_endproc
                                        # -- End function
	.p2align	4, 0x90                         # -- Begin function outOfMemory
	.type	outOfMemory,@function
outOfMemory:                            # @outOfMemory
	.cfi_startproc
# %bb.0:
	pushq	%rbp
	.cfi_def_cfa_offset 16
	.cfi_offset %rbp, -16
	movq	%rsp, %rbp
	.cfi_def_cfa_register %rbp
	movq	stderr(%rip), %rdi
	movq	progName(%rip), %rdx
	movl	$.L.str.48, %esi
	xorl	%eax, %eax
	callq	fprintf
	callq	showFileNames
	movl	$1, %edi
	callq	cleanUpAndFail
.Lfunc_end30:
	.size	outOfMemory, .Lfunc_end30-outOfMemory
	.cfi_endproc
                                        # -- End function
	.p2align	4, 0x90                         # -- Begin function showFileNames
	.type	showFileNames,@function
showFileNames:                          # @showFileNames
	.cfi_startproc
# %bb.0:
	pushq	%rbp
	.cfi_def_cfa_offset 16
	.cfi_offset %rbp, -16
	movq	%rsp, %rbp
	.cfi_def_cfa_register %rbp
	cmpb	$0, noisy(%rip)
	je	.LBB31_2
# %bb.1:
	movq	stderr(%rip), %rdi
	movl	$.L.str.38, %esi
	movl	$inName, %edx
	movl	$outName, %ecx
	xorl	%eax, %eax
	callq	fprintf
.LBB31_2:
	popq	%rbp
	.cfi_def_cfa %rsp, 8
	retq
.Lfunc_end31:
	.size	showFileNames, .Lfunc_end31-showFileNames
	.cfi_endproc
                                        # -- End function
	.p2align	4, 0x90                         # -- Begin function cleanUpAndFail
	.type	cleanUpAndFail,@function
cleanUpAndFail:                         # @cleanUpAndFail
	.cfi_startproc
# %bb.0:
	pushq	%rbp
	.cfi_def_cfa_offset 16
	.cfi_offset %rbp, -16
	movq	%rsp, %rbp
	.cfi_def_cfa_register %rbp
	subq	$160, %rsp
	movl	%edi, -8(%rbp)
	cmpl	$3, srcMode(%rip)
	jne	.LBB32_12
# %bb.1:
	cmpl	$3, opMode(%rip)
	je	.LBB32_12
# %bb.2:
	cmpb	$0, deleteOutputOnInterrupt(%rip)
	je	.LBB32_12
# %bb.3:
	leaq	-152(%rbp), %rsi
	movl	$inName, %edi
	callq	stat
	movl	%eax, -4(%rbp)
	testl	%eax, %eax
	jne	.LBB32_10
# %bb.4:
	cmpb	$0, noisy(%rip)
	je	.LBB32_6
# %bb.5:
	movq	stderr(%rip), %rdi
	movq	progName(%rip), %rdx
	movl	$.L.str.39, %esi
	movl	$outName, %ecx
	xorl	%eax, %eax
	callq	fprintf
.LBB32_6:
	cmpq	$0, outputHandleJustInCase(%rip)
	je	.LBB32_8
# %bb.7:
	movq	outputHandleJustInCase(%rip), %rdi
	callq	fclose
.LBB32_8:
	movl	$outName, %edi
	callq	remove
	movl	%eax, -4(%rbp)
	testl	%eax, %eax
	je	.LBB32_12
# %bb.9:
	movq	stderr(%rip), %rdi
	movq	progName(%rip), %rdx
	movl	$.L.str.40, %esi
	jmp	.LBB32_11
.LBB32_10:
	movq	stderr(%rip), %rdi
	movq	progName(%rip), %rdx
	movl	$.L.str.41, %esi
	xorl	%eax, %eax
	callq	fprintf
	movq	stderr(%rip), %rdi
	movq	progName(%rip), %rdx
	movl	$.L.str.42, %esi
	xorl	%eax, %eax
	callq	fprintf
	movq	stderr(%rip), %rdi
	movq	progName(%rip), %rdx
	movl	$.L.str.43, %esi
	movl	$outName, %ecx
	xorl	%eax, %eax
	callq	fprintf
	movq	stderr(%rip), %rdi
	movq	progName(%rip), %rdx
	movl	$.L.str.44, %esi
.LBB32_11:
	xorl	%eax, %eax
	callq	fprintf
.LBB32_12:
	cmpb	$0, noisy(%rip)
	je	.LBB32_16
# %bb.13:
	cmpl	$0, numFileNames(%rip)
	jle	.LBB32_16
# %bb.14:
	movl	numFilesProcessed(%rip), %eax
	cmpl	numFileNames(%rip), %eax
	jge	.LBB32_16
# %bb.15:
	movq	stderr(%rip), %rdi
	movq	progName(%rip), %rcx
	movl	numFileNames(%rip), %r8d
	movl	%r8d, %r9d
	subl	numFilesProcessed(%rip), %r9d
	movl	$.L.str.45, %esi
	movq	%rcx, %rdx
	xorl	%eax, %eax
	callq	fprintf
.LBB32_16:
	movl	-8(%rbp), %edi
	callq	setExit
	movl	exitValue(%rip), %edi
	callq	exit
.Lfunc_end32:
	.size	cleanUpAndFail, .Lfunc_end32-cleanUpAndFail
	.cfi_endproc
                                        # -- End function
	.p2align	4, 0x90                         # -- Begin function mapSuffix
	.type	mapSuffix,@function
mapSuffix:                              # @mapSuffix
	.cfi_startproc
# %bb.0:
	pushq	%rbp
	.cfi_def_cfa_offset 16
	.cfi_offset %rbp, -16
	movq	%rsp, %rbp
	.cfi_def_cfa_register %rbp
	pushq	%r14
	pushq	%rbx
	subq	$32, %rsp
	.cfi_offset %rbx, -32
	.cfi_offset %r14, -24
	movq	%rdi, -32(%rbp)
	movq	%rsi, -48(%rbp)
	movq	%rdx, -40(%rbp)
	callq	hasSuffix
	testb	%al, %al
	je	.LBB33_1
# %bb.2:
	movq	-32(%rbp), %r14
	movq	%r14, %rdi
	callq	strlen
	movq	%rax, %rbx
	movq	-48(%rbp), %rdi
	callq	strlen
	subq	%rax, %rbx
	movb	$0, (%r14,%rbx)
	movq	-32(%rbp), %rdi
	movq	-40(%rbp), %rsi
	callq	strcat
	movb	$1, -17(%rbp)
	jmp	.LBB33_3
.LBB33_1:
	movb	$0, -17(%rbp)
.LBB33_3:
	movb	-17(%rbp), %al
	addq	$32, %rsp
	popq	%rbx
	popq	%r14
	popq	%rbp
	.cfi_def_cfa %rsp, 8
	retq
.Lfunc_end33:
	.size	mapSuffix, .Lfunc_end33-mapSuffix
	.cfi_endproc
                                        # -- End function
	.p2align	4, 0x90                         # -- Begin function notAStandardFile
	.type	notAStandardFile,@function
notAStandardFile:                       # @notAStandardFile
	.cfi_startproc
# %bb.0:
	pushq	%rbp
	.cfi_def_cfa_offset 16
	.cfi_offset %rbp, -16
	movq	%rsp, %rbp
	.cfi_def_cfa_register %rbp
	subq	$160, %rsp
	movq	%rdi, -16(%rbp)
	leaq	-160(%rbp), %rsi
	callq	lstat
	movl	%eax, -8(%rbp)
	testl	%eax, %eax
	jne	.LBB34_3
# %bb.1:
	movl	$61440, %eax                    # imm = 0xF000
	andl	-136(%rbp), %eax
	cmpl	$32768, %eax                    # imm = 0x8000
	jne	.LBB34_3
# %bb.2:
	movb	$0, -1(%rbp)
	jmp	.LBB34_4
.LBB34_3:
	movb	$1, -1(%rbp)
.LBB34_4:
	movb	-1(%rbp), %al
	addq	$160, %rsp
	popq	%rbp
	.cfi_def_cfa %rsp, 8
	retq
.Lfunc_end34:
	.size	notAStandardFile, .Lfunc_end34-notAStandardFile
	.cfi_endproc
                                        # -- End function
	.p2align	4, 0x90                         # -- Begin function countHardLinks
	.type	countHardLinks,@function
countHardLinks:                         # @countHardLinks
	.cfi_startproc
# %bb.0:
	pushq	%rbp
	.cfi_def_cfa_offset 16
	.cfi_offset %rbp, -16
	movq	%rsp, %rbp
	.cfi_def_cfa_register %rbp
	subq	$160, %rsp
	movq	%rdi, -16(%rbp)
	leaq	-160(%rbp), %rsi
	callq	lstat
	movl	%eax, -8(%rbp)
	testl	%eax, %eax
	je	.LBB35_2
# %bb.1:
	movl	$0, -4(%rbp)
	jmp	.LBB35_3
.LBB35_2:
	movl	-144(%rbp), %eax
	addl	$-1, %eax
	movl	%eax, -4(%rbp)
.LBB35_3:
	movl	-4(%rbp), %eax
	addq	$160, %rsp
	popq	%rbp
	.cfi_def_cfa %rsp, 8
	retq
.Lfunc_end35:
	.size	countHardLinks, .Lfunc_end35-countHardLinks
	.cfi_endproc
                                        # -- End function
	.p2align	4, 0x90                         # -- Begin function saveInputFileMetaInfo
	.type	saveInputFileMetaInfo,@function
saveInputFileMetaInfo:                  # @saveInputFileMetaInfo
	.cfi_startproc
# %bb.0:
	pushq	%rbp
	.cfi_def_cfa_offset 16
	.cfi_offset %rbp, -16
	movq	%rsp, %rbp
	.cfi_def_cfa_register %rbp
	subq	$16, %rsp
	movq	%rdi, -16(%rbp)
	movl	$fileMetaInfo, %esi
	callq	stat
	movl	%eax, -4(%rbp)
	testl	%eax, %eax
	jne	.LBB36_2
# %bb.1:
	addq	$16, %rsp
	popq	%rbp
	.cfi_def_cfa %rsp, 8
	retq
.LBB36_2:
	.cfi_def_cfa %rbp, 16
	callq	ioError
.Lfunc_end36:
	.size	saveInputFileMetaInfo, .Lfunc_end36-saveInputFileMetaInfo
	.cfi_endproc
                                        # -- End function
	.p2align	4, 0x90                         # -- Begin function fopen_output_safely
	.type	fopen_output_safely,@function
fopen_output_safely:                    # @fopen_output_safely
	.cfi_startproc
# %bb.0:
	pushq	%rbp
	.cfi_def_cfa_offset 16
	.cfi_offset %rbp, -16
	movq	%rsp, %rbp
	.cfi_def_cfa_register %rbp
	subq	$48, %rsp
	movq	%rdi, -40(%rbp)
	movq	%rsi, -32(%rbp)
	movl	$193, %esi
	movl	$384, %edx                      # imm = 0x180
	xorl	%eax, %eax
	callq	open
	movl	%eax, -4(%rbp)
	cmpl	$-1, %eax
	je	.LBB37_1
# %bb.2:
	movl	-4(%rbp), %edi
	movq	-32(%rbp), %rsi
	callq	fdopen
	movq	%rax, -24(%rbp)
	testq	%rax, %rax
	jne	.LBB37_4
# %bb.3:
	movl	-4(%rbp), %edi
	callq	close
.LBB37_4:
	movq	-24(%rbp), %rax
	movq	%rax, -16(%rbp)
	jmp	.LBB37_5
.LBB37_1:
	movq	$0, -16(%rbp)
.LBB37_5:
	movq	-16(%rbp), %rax
	addq	$48, %rsp
	popq	%rbp
	.cfi_def_cfa %rsp, 8
	retq
.Lfunc_end37:
	.size	fopen_output_safely, .Lfunc_end37-fopen_output_safely
	.cfi_endproc
                                        # -- End function
	.p2align	4, 0x90                         # -- Begin function uncompressStream
	.type	uncompressStream,@function
uncompressStream:                       # @uncompressStream
	.cfi_startproc
# %bb.0:
	pushq	%rbp
	.cfi_def_cfa_offset 16
	.cfi_offset %rbp, -16
	movq	%rsp, %rbp
	.cfi_def_cfa_register %rbp
	pushq	%r15
	pushq	%r14
	pushq	%r13
	pushq	%r12
	pushq	%rbx
	subq	$10104, %rsp                    # imm = 0x2778
	.cfi_offset %rbx, -56
	.cfi_offset %r12, -48
	.cfi_offset %r13, -40
	.cfi_offset %r14, -32
	.cfi_offset %r15, -24
	movq	%rdi, -64(%rbp)
	movq	%rsi, -56(%rbp)
	movq	$0, -88(%rbp)
	movl	$0, -72(%rbp)
	movl	$0, -92(%rbp)
	movq	%rsi, %rdi
	callq	ferror
	testl	%eax, %eax
	jne	.LBB38_20
# %bb.1:
	movq	-64(%rbp), %rdi
	callq	ferror
	testl	%eax, %eax
	jne	.LBB38_20
# %bb.2:
	leaq	-48(%rbp), %r15
	leaq	-5136(%rbp), %r14
	leaq	-10144(%rbp), %rbx
	leaq	-120(%rbp), %r12
	leaq	-72(%rbp), %r13
.LBB38_3:                               # =>This Loop Header: Depth=1
                                        #     Child Loop BB38_6 Depth 2
                                        #     Child Loop BB38_24 Depth 2
	movq	-64(%rbp), %rsi
	movl	verbosity(%rip), %edx
	movzbl	smallMode(%rip), %ecx
	movl	-72(%rbp), %r9d
	movq	%r15, %rdi
	movq	%r14, %r8
	callq	BZ2_bzReadOpen
	movq	%rax, -88(%rbp)
	testq	%rax, %rax
	je	.LBB38_40
# %bb.4:                                #   in Loop: Header=BB38_3 Depth=1
	cmpl	$0, -48(%rbp)
	jne	.LBB38_40
# %bb.5:                                #   in Loop: Header=BB38_3 Depth=1
	addl	$1, -92(%rbp)
	jmp	.LBB38_6
	.p2align	4, 0x90
.LBB38_19:                              #   in Loop: Header=BB38_6 Depth=2
	movq	-56(%rbp), %rdi
	callq	ferror
	testl	%eax, %eax
	jne	.LBB38_20
.LBB38_6:                               #   Parent Loop BB38_3 Depth=1
                                        # =>  This Inner Loop Header: Depth=2
	cmpl	$0, -48(%rbp)
	jne	.LBB38_21
# %bb.7:                                #   in Loop: Header=BB38_6 Depth=2
	movq	-88(%rbp), %rsi
	movq	%r15, %rdi
	movq	%rbx, %rdx
	movl	$5000, %ecx                     # imm = 0x1388
	callq	BZ2_bzRead
	movl	%eax, -68(%rbp)
	cmpl	$-5, -48(%rbp)
	je	.LBB38_8
# %bb.15:                               #   in Loop: Header=BB38_6 Depth=2
	cmpl	$0, -48(%rbp)
	je	.LBB38_17
# %bb.16:                               #   in Loop: Header=BB38_6 Depth=2
	cmpl	$4, -48(%rbp)
	jne	.LBB38_19
.LBB38_17:                              #   in Loop: Header=BB38_6 Depth=2
	cmpl	$0, -68(%rbp)
	jle	.LBB38_19
# %bb.18:                               #   in Loop: Header=BB38_6 Depth=2
	movslq	-68(%rbp), %rdx
	movq	-56(%rbp), %rcx
	movl	$1, %esi
	movq	%rbx, %rdi
	callq	fwrite
	jmp	.LBB38_19
	.p2align	4, 0x90
.LBB38_21:                              #   in Loop: Header=BB38_3 Depth=1
	cmpl	$4, -48(%rbp)
	jne	.LBB38_40
# %bb.22:                               #   in Loop: Header=BB38_3 Depth=1
	movq	-88(%rbp), %rsi
	movq	%r15, %rdi
	movq	%r12, %rdx
	movq	%r13, %rcx
	callq	BZ2_bzReadGetUnused
	cmpl	$0, -48(%rbp)
	jne	.LBB38_57
# %bb.23:                               #   in Loop: Header=BB38_3 Depth=1
	movq	-120(%rbp), %rax
	movq	%rax, -112(%rbp)
	movl	$0, -76(%rbp)
	.p2align	4, 0x90
.LBB38_24:                              #   Parent Loop BB38_3 Depth=1
                                        # =>  This Inner Loop Header: Depth=2
	movl	-76(%rbp), %eax
	cmpl	-72(%rbp), %eax
	jge	.LBB38_26
# %bb.25:                               #   in Loop: Header=BB38_24 Depth=2
	movq	-112(%rbp), %rax
	movslq	-76(%rbp), %rcx
	movzbl	(%rax,%rcx), %eax
	movb	%al, -5136(%rbp,%rcx)
	leal	1(%rcx), %eax
	movl	%eax, -76(%rbp)
	jmp	.LBB38_24
	.p2align	4, 0x90
.LBB38_26:                              #   in Loop: Header=BB38_3 Depth=1
	movq	-88(%rbp), %rsi
	movq	%r15, %rdi
	callq	BZ2_bzReadClose
	cmpl	$0, -48(%rbp)
	jne	.LBB38_57
# %bb.27:                               #   in Loop: Header=BB38_3 Depth=1
	cmpl	$0, -72(%rbp)
	jne	.LBB38_3
# %bb.28:                               #   in Loop: Header=BB38_3 Depth=1
	movq	-64(%rbp), %rdi
	callq	myfeof
	testb	%al, %al
	je	.LBB38_3
.LBB38_29:
	movq	-64(%rbp), %rdi
	callq	ferror
	testl	%eax, %eax
	jne	.LBB38_20
# %bb.30:
	movq	-56(%rbp), %rax
	cmpq	stdout(%rip), %rax
	je	.LBB38_33
# %bb.31:
	movq	-56(%rbp), %rdi
	callq	fileno
	movl	%eax, -100(%rbp)
	testl	%eax, %eax
	js	.LBB38_20
# %bb.32:
	movl	-100(%rbp), %edi
	callq	applySavedFileAttrToOutputFile
.LBB38_33:
	movq	-64(%rbp), %rdi
	callq	fclose
	movl	%eax, -96(%rbp)
	cmpl	$-1, %eax
	je	.LBB38_20
# %bb.34:
	movq	-56(%rbp), %rdi
	callq	ferror
	testl	%eax, %eax
	jne	.LBB38_20
# %bb.35:
	movq	-56(%rbp), %rdi
	callq	fflush
	movl	%eax, -96(%rbp)
	testl	%eax, %eax
	jne	.LBB38_20
# %bb.36:
	movq	-56(%rbp), %rax
	cmpq	stdout(%rip), %rax
	je	.LBB38_38
# %bb.37:
	movq	-56(%rbp), %rdi
	callq	fclose
	movl	%eax, -96(%rbp)
	movq	$0, outputHandleJustInCase(%rip)
	cmpl	$-1, %eax
	je	.LBB38_20
.LBB38_38:
	movq	$0, outputHandleJustInCase(%rip)
	cmpl	$2, verbosity(%rip)
	jl	.LBB38_55
# %bb.39:
	movq	stderr(%rip), %rdi
	movl	$.L.str.89, %esi
	xorl	%eax, %eax
	callq	fprintf
	jmp	.LBB38_55
.LBB38_8:
	cmpb	$0, forceOverwrite(%rip)
	je	.LBB38_40
# %bb.9:
	movq	-64(%rbp), %rdi
	callq	rewind
	leaq	-10144(%rbp), %rbx
	jmp	.LBB38_10
	.p2align	4, 0x90
.LBB38_14:                              #   in Loop: Header=BB38_10 Depth=1
	movq	-56(%rbp), %rdi
	callq	ferror
	testl	%eax, %eax
	jne	.LBB38_20
.LBB38_10:                              # =>This Inner Loop Header: Depth=1
	movq	-64(%rbp), %rdi
	callq	myfeof
	testb	%al, %al
	jne	.LBB38_29
# %bb.11:                               #   in Loop: Header=BB38_10 Depth=1
	movq	-64(%rbp), %rcx
	movl	$1, %esi
	movl	$5000, %edx                     # imm = 0x1388
	movq	%rbx, %rdi
	callq	fread
	movl	%eax, -68(%rbp)
	movq	-64(%rbp), %rdi
	callq	ferror
	testl	%eax, %eax
	jne	.LBB38_20
# %bb.12:                               #   in Loop: Header=BB38_10 Depth=1
	cmpl	$0, -68(%rbp)
	jle	.LBB38_14
# %bb.13:                               #   in Loop: Header=BB38_10 Depth=1
	movslq	-68(%rbp), %rdx
	movq	-56(%rbp), %rcx
	movl	$1, %esi
	movq	%rbx, %rdi
	callq	fwrite
	jmp	.LBB38_14
.LBB38_40:
	movq	-88(%rbp), %rsi
	leaq	-124(%rbp), %rdi
	callq	BZ2_bzReadClose
	movl	-48(%rbp), %eax
	cmpl	$-5, %eax
	jne	.LBB38_41
# %bb.47:
	movq	-64(%rbp), %rax
	cmpq	stdin(%rip), %rax
	je	.LBB38_49
# %bb.48:
	movq	-64(%rbp), %rdi
	callq	fclose
.LBB38_49:
	movq	-56(%rbp), %rax
	cmpq	stdout(%rip), %rax
	je	.LBB38_51
# %bb.50:
	movq	-56(%rbp), %rdi
	callq	fclose
.LBB38_51:
	cmpl	$1, -92(%rbp)
	jne	.LBB38_53
# %bb.52:
	movb	$0, -41(%rbp)
	jmp	.LBB38_56
.LBB38_53:
	cmpb	$0, noisy(%rip)
	je	.LBB38_55
# %bb.54:
	movq	stderr(%rip), %rdi
	movq	progName(%rip), %rdx
	movl	$.L.str.90, %esi
	movl	$inName, %ecx
	xorl	%eax, %eax
	callq	fprintf
.LBB38_55:
	movb	$1, -41(%rbp)
.LBB38_56:
	movb	-41(%rbp), %al
	addq	$10104, %rsp                    # imm = 0x2778
	popq	%rbx
	popq	%r12
	popq	%r13
	popq	%r14
	popq	%r15
	popq	%rbp
	.cfi_def_cfa %rsp, 8
	retq
.LBB38_41:
	.cfi_def_cfa %rbp, 16
	addl	$9, %eax
	cmpl	$6, %eax
	ja	.LBB38_58
# %bb.42:
	jmpq	*.LJTI38_0(,%rax,8)
.LBB38_43:
	callq	configError
.LBB38_20:
	callq	ioError
.LBB38_57:
	movl	$.L.str.88, %edi
	callq	panic
.LBB38_58:
	movl	$.L.str.91, %edi
	callq	panic
.LBB38_46:
	callq	compressedStreamEOF
.LBB38_44:
	callq	crcError
.LBB38_45:
	callq	outOfMemory
.Lfunc_end38:
	.size	uncompressStream, .Lfunc_end38-uncompressStream
	.cfi_endproc
	.section	.rodata,"a",@progbits
	.p2align	3
.LJTI38_0:
	.quad	.LBB38_43
	.quad	.LBB38_58
	.quad	.LBB38_46
	.quad	.LBB38_20
	.quad	.LBB38_58
	.quad	.LBB38_44
	.quad	.LBB38_45
                                        # -- End function
	.text
	.p2align	4, 0x90                         # -- Begin function applySavedTimeInfoToOutputFile
	.type	applySavedTimeInfoToOutputFile,@function
applySavedTimeInfoToOutputFile:         # @applySavedTimeInfoToOutputFile
	.cfi_startproc
# %bb.0:
	pushq	%rbp
	.cfi_def_cfa_offset 16
	.cfi_offset %rbp, -16
	movq	%rsp, %rbp
	.cfi_def_cfa_register %rbp
	subq	$32, %rsp
	movq	%rdi, -32(%rbp)
	movq	fileMetaInfo+72(%rip), %rax
	movq	%rax, -24(%rbp)
	movq	fileMetaInfo+88(%rip), %rax
	movq	%rax, -16(%rbp)
	leaq	-24(%rbp), %rsi
	callq	utime
	movl	%eax, -4(%rbp)
	testl	%eax, %eax
	jne	.LBB39_2
# %bb.1:
	addq	$32, %rsp
	popq	%rbp
	.cfi_def_cfa %rsp, 8
	retq
.LBB39_2:
	.cfi_def_cfa %rbp, 16
	callq	ioError
.Lfunc_end39:
	.size	applySavedTimeInfoToOutputFile, .Lfunc_end39-applySavedTimeInfoToOutputFile
	.cfi_endproc
                                        # -- End function
	.p2align	4, 0x90                         # -- Begin function applySavedFileAttrToOutputFile
	.type	applySavedFileAttrToOutputFile,@function
applySavedFileAttrToOutputFile:         # @applySavedFileAttrToOutputFile
	.cfi_startproc
# %bb.0:
	pushq	%rbp
	.cfi_def_cfa_offset 16
	.cfi_offset %rbp, -16
	movq	%rsp, %rbp
	.cfi_def_cfa_register %rbp
	subq	$16, %rsp
	movl	%edi, -4(%rbp)
	movl	fileMetaInfo+24(%rip), %esi
	callq	fchmod
	movl	%eax, -8(%rbp)
	testl	%eax, %eax
	jne	.LBB40_2
# %bb.1:
	movl	-4(%rbp), %edi
	movl	fileMetaInfo+28(%rip), %esi
	movl	fileMetaInfo+32(%rip), %edx
	callq	fchown
	addq	$16, %rsp
	popq	%rbp
	.cfi_def_cfa %rsp, 8
	retq
.LBB40_2:
	.cfi_def_cfa %rbp, 16
	callq	ioError
.Lfunc_end40:
	.size	applySavedFileAttrToOutputFile, .Lfunc_end40-applySavedFileAttrToOutputFile
	.cfi_endproc
                                        # -- End function
	.p2align	4, 0x90                         # -- Begin function crcError
	.type	crcError,@function
crcError:                               # @crcError
	.cfi_startproc
# %bb.0:
	pushq	%rbp
	.cfi_def_cfa_offset 16
	.cfi_offset %rbp, -16
	movq	%rsp, %rbp
	.cfi_def_cfa_register %rbp
	movq	stderr(%rip), %rdi
	movq	progName(%rip), %rdx
	movl	$.L.str.92, %esi
	xorl	%eax, %eax
	callq	fprintf
	callq	showFileNames
	callq	cadvise
	movl	$2, %edi
	callq	cleanUpAndFail
.Lfunc_end41:
	.size	crcError, .Lfunc_end41-crcError
	.cfi_endproc
                                        # -- End function
	.p2align	4, 0x90                         # -- Begin function compressedStreamEOF
	.type	compressedStreamEOF,@function
compressedStreamEOF:                    # @compressedStreamEOF
	.cfi_startproc
# %bb.0:
	pushq	%rbp
	.cfi_def_cfa_offset 16
	.cfi_offset %rbp, -16
	movq	%rsp, %rbp
	.cfi_def_cfa_register %rbp
	cmpb	$0, noisy(%rip)
	je	.LBB42_2
# %bb.1:
	movq	stderr(%rip), %rdi
	movq	progName(%rip), %rdx
	movl	$.L.str.93, %esi
	xorl	%eax, %eax
	callq	fprintf
	movq	progName(%rip), %rdi
	callq	perror
	callq	showFileNames
	callq	cadvise
.LBB42_2:
	movl	$2, %edi
	callq	cleanUpAndFail
.Lfunc_end42:
	.size	compressedStreamEOF, .Lfunc_end42-compressedStreamEOF
	.cfi_endproc
                                        # -- End function
	.p2align	4, 0x90                         # -- Begin function cadvise
	.type	cadvise,@function
cadvise:                                # @cadvise
	.cfi_startproc
# %bb.0:
	pushq	%rbp
	.cfi_def_cfa_offset 16
	.cfi_offset %rbp, -16
	movq	%rsp, %rbp
	.cfi_def_cfa_register %rbp
	cmpb	$0, noisy(%rip)
	je	.LBB43_2
# %bb.1:
	movq	stderr(%rip), %rdi
	movl	$.L.str.46, %esi
	xorl	%eax, %eax
	callq	fprintf
.LBB43_2:
	popq	%rbp
	.cfi_def_cfa %rsp, 8
	retq
.Lfunc_end43:
	.size	cadvise, .Lfunc_end43-cadvise
	.cfi_endproc
                                        # -- End function
	.p2align	4, 0x90                         # -- Begin function hasSuffix
	.type	hasSuffix,@function
hasSuffix:                              # @hasSuffix
	.cfi_startproc
# %bb.0:
	pushq	%rbp
	.cfi_def_cfa_offset 16
	.cfi_offset %rbp, -16
	movq	%rsp, %rbp
	.cfi_def_cfa_register %rbp
	subq	$32, %rsp
	movq	%rdi, -32(%rbp)
	movq	%rsi, -24(%rbp)
	callq	strlen
	movl	%eax, -8(%rbp)
	movq	-24(%rbp), %rdi
	callq	strlen
	movl	%eax, -12(%rbp)
	cmpl	%eax, -8(%rbp)
	jl	.LBB44_3
# %bb.1:
	movslq	-8(%rbp), %rdi
	addq	-32(%rbp), %rdi
	movslq	-12(%rbp), %rax
	subq	%rax, %rdi
	movq	-24(%rbp), %rsi
	callq	strcmp
	testl	%eax, %eax
	je	.LBB44_2
.LBB44_3:
	movb	$0, -1(%rbp)
	jmp	.LBB44_4
.LBB44_2:
	movb	$1, -1(%rbp)
.LBB44_4:
	movb	-1(%rbp), %al
	addq	$32, %rsp
	popq	%rbp
	.cfi_def_cfa %rsp, 8
	retq
.Lfunc_end44:
	.size	hasSuffix, .Lfunc_end44-hasSuffix
	.cfi_endproc
                                        # -- End function
	.section	.rodata.cst8,"aM",@progbits,8
	.p2align	3                               # -- Begin function compressStream
.LCPI45_0:
	.quad	0x4020000000000000              # double 8
.LCPI45_1:
	.quad	0x3ff0000000000000              # double 1
.LCPI45_2:
	.quad	0x4059000000000000              # double 100
	.text
	.p2align	4, 0x90
	.type	compressStream,@function
compressStream:                         # @compressStream
	.cfi_startproc
# %bb.0:
	pushq	%rbp
	.cfi_def_cfa_offset 16
	.cfi_offset %rbp, -16
	movq	%rsp, %rbp
	.cfi_def_cfa_register %rbp
	pushq	%r15
	pushq	%r14
	pushq	%rbx
	subq	$5192, %rsp                     # imm = 0x1448
	.cfi_offset %rbx, -40
	.cfi_offset %r14, -32
	.cfi_offset %r15, -24
	movq	%rdi, -56(%rbp)
	movq	%rsi, -40(%rbp)
	movq	$0, -80(%rbp)
	callq	ferror
	testl	%eax, %eax
	jne	.LBB45_30
# %bb.1:
	movq	-40(%rbp), %rdi
	callq	ferror
	testl	%eax, %eax
	jne	.LBB45_30
# %bb.2:
	movq	-40(%rbp), %rsi
	movl	blockSize100k(%rip), %edx
	movl	verbosity(%rip), %ecx
	movl	workFactor(%rip), %r8d
	leaq	-28(%rbp), %rdi
	callq	BZ2_bzWriteOpen
	movq	%rax, -80(%rbp)
	cmpl	$0, -28(%rbp)
	jne	.LBB45_23
# %bb.3:
	cmpl	$2, verbosity(%rip)
	jl	.LBB45_5
# %bb.4:
	movq	stderr(%rip), %rdi
	movl	$.L.str.73, %esi
	xorl	%eax, %eax
	callq	fprintf
.LBB45_5:
	leaq	-5200(%rbp), %rbx
	leaq	-28(%rbp), %r14
	jmp	.LBB45_6
	.p2align	4, 0x90
.LBB45_22:                              #   in Loop: Header=BB45_6 Depth=1
	cmpl	$0, -28(%rbp)
	jne	.LBB45_23
.LBB45_6:                               # =>This Inner Loop Header: Depth=1
	movq	-56(%rbp), %rdi
	callq	myfeof
	testb	%al, %al
	jne	.LBB45_7
# %bb.19:                               #   in Loop: Header=BB45_6 Depth=1
	movq	-56(%rbp), %rcx
	movl	$1, %esi
	movl	$5000, %edx                     # imm = 0x1388
	movq	%rbx, %rdi
	callq	fread
	movl	%eax, -72(%rbp)
	movq	-56(%rbp), %rdi
	callq	ferror
	testl	%eax, %eax
	jne	.LBB45_30
# %bb.20:                               #   in Loop: Header=BB45_6 Depth=1
	cmpl	$0, -72(%rbp)
	jle	.LBB45_22
# %bb.21:                               #   in Loop: Header=BB45_6 Depth=1
	movq	-80(%rbp), %rsi
	movl	-72(%rbp), %ecx
	movq	%r14, %rdi
	movq	%rbx, %rdx
	callq	BZ2_bzWrite
	jmp	.LBB45_22
.LBB45_7:
	movq	-80(%rbp), %rsi
	leaq	-64(%rbp), %rax
	movq	%rax, (%rsp)
	leaq	-28(%rbp), %rdi
	leaq	-48(%rbp), %rcx
	leaq	-44(%rbp), %r8
	leaq	-68(%rbp), %r9
	xorl	%edx, %edx
	callq	BZ2_bzWriteClose64
	cmpl	$0, -28(%rbp)
	jne	.LBB45_23
# %bb.8:
	movq	-40(%rbp), %rdi
	callq	ferror
	testl	%eax, %eax
	jne	.LBB45_30
# %bb.9:
	movq	-40(%rbp), %rdi
	callq	fflush
	movl	%eax, -60(%rbp)
	cmpl	$-1, %eax
	je	.LBB45_30
# %bb.10:
	movq	-40(%rbp), %rax
	cmpq	stdout(%rip), %rax
	je	.LBB45_13
# %bb.11:
	movq	-40(%rbp), %rdi
	callq	fileno
	movl	%eax, -84(%rbp)
	testl	%eax, %eax
	js	.LBB45_30
# %bb.12:
	movl	-84(%rbp), %edi
	callq	applySavedFileAttrToOutputFile
	movq	-40(%rbp), %rdi
	callq	fclose
	movl	%eax, -60(%rbp)
	movq	$0, outputHandleJustInCase(%rip)
	cmpl	$-1, %eax
	je	.LBB45_30
.LBB45_13:
	movq	$0, outputHandleJustInCase(%rip)
	movq	-56(%rbp), %rdi
	callq	ferror
	testl	%eax, %eax
	jne	.LBB45_30
# %bb.14:
	movq	-56(%rbp), %rdi
	callq	fclose
	movl	%eax, -60(%rbp)
	cmpl	$-1, %eax
	je	.LBB45_30
# %bb.15:
	cmpl	$0, verbosity(%rip)
	jle	.LBB45_28
# %bb.16:
	cmpl	$0, -48(%rbp)
	jne	.LBB45_27
# %bb.17:
	cmpl	$0, -44(%rbp)
	je	.LBB45_18
.LBB45_27:
	movl	-48(%rbp), %esi
	movl	-44(%rbp), %edx
	leaq	-128(%rbp), %r15
	movq	%r15, %rdi
	callq	uInt64_from_UInt32s
	movl	-68(%rbp), %esi
	movl	-64(%rbp), %edx
	leaq	-120(%rbp), %rbx
	movq	%rbx, %rdi
	callq	uInt64_from_UInt32s
	movq	%r15, %rdi
	callq	uInt64_to_double
	movsd	%xmm0, -104(%rbp)
	movq	%rbx, %rdi
	callq	uInt64_to_double
	movsd	%xmm0, -96(%rbp)
	leaq	-192(%rbp), %r14
	movq	%r14, %rdi
	movq	%r15, %rsi
	callq	uInt64_toAscii
	leaq	-160(%rbp), %r15
	movq	%r15, %rdi
	movq	%rbx, %rsi
	callq	uInt64_toAscii
	movq	stderr(%rip), %rdi
	movsd	-104(%rbp), %xmm2               # xmm2 = mem[0],zero
	movsd	-96(%rbp), %xmm3                # xmm3 = mem[0],zero
	movapd	%xmm2, %xmm0
	divsd	%xmm3, %xmm0
	movsd	.LCPI45_0(%rip), %xmm1          # xmm1 = mem[0],zero
	mulsd	%xmm3, %xmm1
	divsd	%xmm2, %xmm1
	divsd	%xmm2, %xmm3
	movsd	.LCPI45_1(%rip), %xmm2          # xmm2 = mem[0],zero
	subsd	%xmm3, %xmm2
	mulsd	.LCPI45_2(%rip), %xmm2
	movl	$.L.str.75, %esi
	movq	%r14, %rdx
	movq	%r15, %rcx
	movb	$3, %al
	callq	fprintf
.LBB45_28:
	addq	$5192, %rsp                     # imm = 0x1448
	popq	%rbx
	popq	%r14
	popq	%r15
	popq	%rbp
	.cfi_def_cfa %rsp, 8
	retq
.LBB45_18:
	.cfi_def_cfa %rbp, 16
	movq	stderr(%rip), %rdi
	movl	$.L.str.74, %esi
	xorl	%eax, %eax
	callq	fprintf
	jmp	.LBB45_28
.LBB45_23:
	movq	-80(%rbp), %rsi
	leaq	-64(%rbp), %rax
	movq	%rax, (%rsp)
	leaq	-108(%rbp), %rdi
	leaq	-48(%rbp), %rcx
	leaq	-44(%rbp), %r8
	leaq	-68(%rbp), %r9
	movl	$1, %edx
	callq	BZ2_bzWriteClose64
	movl	-28(%rbp), %eax
	cmpl	$-3, %eax
	je	.LBB45_29
# %bb.24:
	cmpl	$-6, %eax
	je	.LBB45_30
# %bb.25:
	cmpl	$-9, %eax
	jne	.LBB45_31
# %bb.26:
	callq	configError
.LBB45_30:
	callq	ioError
.LBB45_29:
	callq	outOfMemory
.LBB45_31:
	movl	$.L.str.76, %edi
	callq	panic
.Lfunc_end45:
	.size	compressStream, .Lfunc_end45-compressStream
	.cfi_endproc
                                        # -- End function
	.p2align	4, 0x90                         # -- Begin function uInt64_from_UInt32s
	.type	uInt64_from_UInt32s,@function
uInt64_from_UInt32s:                    # @uInt64_from_UInt32s
	.cfi_startproc
# %bb.0:
	pushq	%rbp
	.cfi_def_cfa_offset 16
	.cfi_offset %rbp, -16
	movq	%rsp, %rbp
	.cfi_def_cfa_register %rbp
	movq	%rdi, -16(%rbp)
	movl	%esi, -8(%rbp)
	movl	%edx, -4(%rbp)
	movb	-1(%rbp), %al
	movb	%al, 7(%rdi)
	movb	-2(%rbp), %al
	movq	-16(%rbp), %rcx
	movb	%al, 6(%rcx)
	movb	-3(%rbp), %al
	movq	-16(%rbp), %rcx
	movb	%al, 5(%rcx)
	movb	-4(%rbp), %al
	movq	-16(%rbp), %rcx
	movb	%al, 4(%rcx)
	movb	-5(%rbp), %al
	movq	-16(%rbp), %rcx
	movb	%al, 3(%rcx)
	movb	-6(%rbp), %al
	movq	-16(%rbp), %rcx
	movb	%al, 2(%rcx)
	movb	-7(%rbp), %al
	movq	-16(%rbp), %rcx
	movb	%al, 1(%rcx)
	movb	-8(%rbp), %al
	movq	-16(%rbp), %rcx
	movb	%al, (%rcx)
	popq	%rbp
	.cfi_def_cfa %rsp, 8
	retq
.Lfunc_end46:
	.size	uInt64_from_UInt32s, .Lfunc_end46-uInt64_from_UInt32s
	.cfi_endproc
                                        # -- End function
	.section	.rodata.cst8,"aM",@progbits,8
	.p2align	3                               # -- Begin function uInt64_to_double
.LCPI47_0:
	.quad	0x4070000000000000              # double 256
	.text
	.p2align	4, 0x90
	.type	uInt64_to_double,@function
uInt64_to_double:                       # @uInt64_to_double
	.cfi_startproc
# %bb.0:
	pushq	%rbp
	.cfi_def_cfa_offset 16
	.cfi_offset %rbp, -16
	movq	%rsp, %rbp
	.cfi_def_cfa_register %rbp
	movq	%rdi, -32(%rbp)
	movabsq	$4607182418800017408, %rax      # imm = 0x3FF0000000000000
	movq	%rax, -24(%rbp)
	movq	$0, -16(%rbp)
	movl	$0, -4(%rbp)
	movsd	.LCPI47_0(%rip), %xmm0          # xmm0 = mem[0],zero
	cmpl	$7, -4(%rbp)
	jg	.LBB47_3
	.p2align	4, 0x90
.LBB47_2:                               # =>This Inner Loop Header: Depth=1
	movsd	-24(%rbp), %xmm1                # xmm1 = mem[0],zero
	movq	-32(%rbp), %rax
	movslq	-4(%rbp), %rcx
	movzbl	(%rax,%rcx), %eax
	xorps	%xmm2, %xmm2
	cvtsi2sd	%eax, %xmm2
	mulsd	%xmm1, %xmm2
	addsd	-16(%rbp), %xmm2
	movsd	%xmm2, -16(%rbp)
	mulsd	%xmm0, %xmm1
	movsd	%xmm1, -24(%rbp)
	leal	1(%rcx), %eax
	movl	%eax, -4(%rbp)
	cmpl	$7, -4(%rbp)
	jle	.LBB47_2
.LBB47_3:
	movsd	-16(%rbp), %xmm0                # xmm0 = mem[0],zero
	popq	%rbp
	.cfi_def_cfa %rsp, 8
	retq
.Lfunc_end47:
	.size	uInt64_to_double, .Lfunc_end47-uInt64_to_double
	.cfi_endproc
                                        # -- End function
	.p2align	4, 0x90                         # -- Begin function uInt64_toAscii
	.type	uInt64_toAscii,@function
uInt64_toAscii:                         # @uInt64_toAscii
	.cfi_startproc
# %bb.0:
	pushq	%rbp
	.cfi_def_cfa_offset 16
	.cfi_offset %rbp, -16
	movq	%rsp, %rbp
	.cfi_def_cfa_register %rbp
	pushq	%rbx
	subq	$72, %rsp
	.cfi_offset %rbx, -24
	movq	%rdi, -24(%rbp)
	movq	%rsi, -48(%rbp)
	movl	$0, -12(%rbp)
	movq	(%rsi), %rax
	movq	%rax, -32(%rbp)
	leaq	-32(%rbp), %rbx
	.p2align	4, 0x90
.LBB48_1:                               # =>This Inner Loop Header: Depth=1
	movq	%rbx, %rdi
	callq	uInt64_qrm10
	movl	%eax, -36(%rbp)
	addb	$48, %al
	movslq	-12(%rbp), %rcx
	movb	%al, -80(%rbp,%rcx)
	addl	$1, -12(%rbp)
	movq	%rbx, %rdi
	callq	uInt64_isZero
	testb	%al, %al
	je	.LBB48_1
# %bb.2:
	movq	-24(%rbp), %rax
	movslq	-12(%rbp), %rcx
	movb	$0, (%rax,%rcx)
	movl	$0, -16(%rbp)
	leaq	-80(%rbp), %rax
	.p2align	4, 0x90
.LBB48_3:                               # =>This Inner Loop Header: Depth=1
	movl	-16(%rbp), %ecx
	cmpl	-12(%rbp), %ecx
	jge	.LBB48_5
# %bb.4:                                #   in Loop: Header=BB48_3 Depth=1
	movslq	-12(%rbp), %rcx
	movslq	-16(%rbp), %rdx
	subq	%rdx, %rcx
	movzbl	-1(%rcx,%rax), %ecx
	movq	-24(%rbp), %rsi
	movb	%cl, (%rsi,%rdx)
	addl	$1, -16(%rbp)
	jmp	.LBB48_3
.LBB48_5:
	addq	$72, %rsp
	popq	%rbx
	popq	%rbp
	.cfi_def_cfa %rsp, 8
	retq
.Lfunc_end48:
	.size	uInt64_toAscii, .Lfunc_end48-uInt64_toAscii
	.cfi_endproc
                                        # -- End function
	.p2align	4, 0x90                         # -- Begin function uInt64_qrm10
	.type	uInt64_qrm10,@function
uInt64_qrm10:                           # @uInt64_qrm10
	.cfi_startproc
# %bb.0:
	pushq	%rbp
	.cfi_def_cfa_offset 16
	.cfi_offset %rbp, -16
	movq	%rsp, %rbp
	.cfi_def_cfa_register %rbp
	movq	%rdi, -24(%rbp)
	movl	$0, -8(%rbp)
	movl	$7, -4(%rbp)
	movl	$3435973837, %eax               # imm = 0xCCCCCCCD
	cmpl	$0, -4(%rbp)
	js	.LBB49_3
	.p2align	4, 0x90
.LBB49_2:                               # =>This Inner Loop Header: Depth=1
	movl	-8(%rbp), %ecx
	shll	$8, %ecx
	movq	-24(%rbp), %rdx
	movslq	-4(%rbp), %rsi
	movzbl	(%rdx,%rsi), %edi
	orl	%ecx, %edi
	movl	%edi, -12(%rbp)
	imulq	%rax, %rdi
	shrq	$35, %rdi
	movb	%dil, (%rdx,%rsi)
	movl	-12(%rbp), %ecx
	movq	%rcx, %rdx
	imulq	%rax, %rdx
	shrq	$35, %rdx
	addl	%edx, %edx
	leal	(%rdx,%rdx,4), %edx
	subl	%edx, %ecx
	movl	%ecx, -8(%rbp)
	addl	$-1, -4(%rbp)
	cmpl	$0, -4(%rbp)
	jns	.LBB49_2
.LBB49_3:
	movl	-8(%rbp), %eax
	popq	%rbp
	.cfi_def_cfa %rsp, 8
	retq
.Lfunc_end49:
	.size	uInt64_qrm10, .Lfunc_end49-uInt64_qrm10
	.cfi_endproc
                                        # -- End function
	.p2align	4, 0x90                         # -- Begin function uInt64_isZero
	.type	uInt64_isZero,@function
uInt64_isZero:                          # @uInt64_isZero
	.cfi_startproc
# %bb.0:
	pushq	%rbp
	.cfi_def_cfa_offset 16
	.cfi_offset %rbp, -16
	movq	%rsp, %rbp
	.cfi_def_cfa_register %rbp
	movq	%rdi, -16(%rbp)
	movl	$0, -8(%rbp)
	cmpl	$7, -8(%rbp)
	jg	.LBB50_5
	.p2align	4, 0x90
.LBB50_2:                               # =>This Inner Loop Header: Depth=1
	movq	-16(%rbp), %rax
	movslq	-8(%rbp), %rcx
	cmpb	$0, (%rax,%rcx)
	jne	.LBB50_3
# %bb.4:                                #   in Loop: Header=BB50_2 Depth=1
	addl	$1, -8(%rbp)
	cmpl	$7, -8(%rbp)
	jle	.LBB50_2
.LBB50_5:
	movb	$1, -1(%rbp)
	jmp	.LBB50_6
.LBB50_3:
	movb	$0, -1(%rbp)
.LBB50_6:
	movb	-1(%rbp), %al
	popq	%rbp
	.cfi_def_cfa %rsp, 8
	retq
.Lfunc_end50:
	.size	uInt64_isZero, .Lfunc_end50-uInt64_isZero
	.cfi_endproc
                                        # -- End function
	.p2align	4, 0x90                         # -- Begin function mkCell
	.type	mkCell,@function
mkCell:                                 # @mkCell
	.cfi_startproc
# %bb.0:
	pushq	%rbp
	.cfi_def_cfa_offset 16
	.cfi_offset %rbp, -16
	movq	%rsp, %rbp
	.cfi_def_cfa_register %rbp
	subq	$16, %rsp
	movl	$16, %edi
	callq	myMalloc
	movq	%rax, -8(%rbp)
	movq	$0, (%rax)
	movq	-8(%rbp), %rax
	movq	$0, 8(%rax)
	movq	-8(%rbp), %rax
	addq	$16, %rsp
	popq	%rbp
	.cfi_def_cfa %rsp, 8
	retq
.Lfunc_end51:
	.size	mkCell, .Lfunc_end51-mkCell
	.cfi_endproc
                                        # -- End function
	.p2align	4, 0x90                         # -- Begin function myMalloc
	.type	myMalloc,@function
myMalloc:                               # @myMalloc
	.cfi_startproc
# %bb.0:
	pushq	%rbp
	.cfi_def_cfa_offset 16
	.cfi_offset %rbp, -16
	movq	%rsp, %rbp
	.cfi_def_cfa_register %rbp
	subq	$16, %rsp
	movl	%edi, -12(%rbp)
	movslq	%edi, %rdi
	callq	malloc
	movq	%rax, -8(%rbp)
	testq	%rax, %rax
	je	.LBB52_2
# %bb.1:
	movq	-8(%rbp), %rax
	addq	$16, %rsp
	popq	%rbp
	.cfi_def_cfa %rsp, 8
	retq
.LBB52_2:
	.cfi_def_cfa %rbp, 16
	callq	outOfMemory
.Lfunc_end52:
	.size	myMalloc, .Lfunc_end52-myMalloc
	.cfi_endproc
                                        # -- End function
	.globl	BZ2_bz__AssertH__fail           # -- Begin function BZ2_bz__AssertH__fail
	.p2align	4, 0x90
	.type	BZ2_bz__AssertH__fail,@function
BZ2_bz__AssertH__fail:                  # @BZ2_bz__AssertH__fail
	.cfi_startproc
# %bb.0:
	pushq	%rbp
	.cfi_def_cfa_offset 16
	.cfi_offset %rbp, -16
	movq	%rsp, %rbp
	.cfi_def_cfa_register %rbp
	pushq	%r14
	pushq	%rbx
	subq	$16, %rsp
	.cfi_offset %rbx, -32
	.cfi_offset %r14, -24
	movl	%edi, %ebx
	movl	%edi, -20(%rbp)
	movq	stderr(%rip), %r14
	callq	BZ2_bzlibVersion
	movl	$.L.str.105, %esi
	movq	%r14, %rdi
	movl	%ebx, %edx
	movq	%rax, %rcx
	xorl	%eax, %eax
	callq	fprintf
	cmpl	$1007, -20(%rbp)                # imm = 0x3EF
	jne	.LBB53_2
# %bb.1:
	movq	stderr(%rip), %rdi
	movl	$.L.str.1.106, %esi
	xorl	%eax, %eax
	callq	fprintf
.LBB53_2:
	movl	$3, %edi
	callq	exit
.Lfunc_end53:
	.size	BZ2_bz__AssertH__fail, .Lfunc_end53-BZ2_bz__AssertH__fail
	.cfi_endproc
                                        # -- End function
	.globl	BZ2_bzlibVersion                # -- Begin function BZ2_bzlibVersion
	.p2align	4, 0x90
	.type	BZ2_bzlibVersion,@function
BZ2_bzlibVersion:                       # @BZ2_bzlibVersion
	.cfi_startproc
# %bb.0:
	pushq	%rbp
	.cfi_def_cfa_offset 16
	.cfi_offset %rbp, -16
	movq	%rsp, %rbp
	.cfi_def_cfa_register %rbp
	movl	$.L.str.5.107, %eax
	popq	%rbp
	.cfi_def_cfa %rsp, 8
	retq
.Lfunc_end54:
	.size	BZ2_bzlibVersion, .Lfunc_end54-BZ2_bzlibVersion
	.cfi_endproc
                                        # -- End function
	.globl	BZ2_bzCompressInit              # -- Begin function BZ2_bzCompressInit
	.p2align	4, 0x90
	.type	BZ2_bzCompressInit,@function
BZ2_bzCompressInit:                     # @BZ2_bzCompressInit
	.cfi_startproc
# %bb.0:
	pushq	%rbp
	.cfi_def_cfa_offset 16
	.cfi_offset %rbp, -16
	movq	%rsp, %rbp
	.cfi_def_cfa_register %rbp
	subq	$48, %rsp
	movq	%rdi, -16(%rbp)
	movl	%esi, -24(%rbp)
	movl	%edx, -36(%rbp)
	movl	%ecx, -20(%rbp)
	callq	bz_config_ok
	testl	%eax, %eax
	je	.LBB55_7
# %bb.1:
	cmpq	$0, -16(%rbp)
	je	.LBB55_6
# %bb.2:
	cmpl	$0, -24(%rbp)
	jle	.LBB55_6
# %bb.3:
	cmpl	$9, -24(%rbp)
	jg	.LBB55_6
# %bb.4:
	cmpl	$0, -20(%rbp)
	js	.LBB55_6
# %bb.5:
	cmpl	$251, -20(%rbp)
	jl	.LBB55_9
.LBB55_6:
	movl	$-2, -28(%rbp)
	jmp	.LBB55_8
.LBB55_7:
	movl	$-9, -28(%rbp)
.LBB55_8:
	movl	-28(%rbp), %eax
	addq	$48, %rsp
	popq	%rbp
	.cfi_def_cfa %rsp, 8
	retq
.LBB55_9:
	.cfi_def_cfa %rbp, 16
	cmpl	$0, -20(%rbp)
	jne	.LBB55_11
# %bb.10:
	movl	$30, -20(%rbp)
.LBB55_11:
	movq	-16(%rbp), %rax
	cmpq	$0, 56(%rax)
	jne	.LBB55_13
# %bb.12:
	movq	-16(%rbp), %rax
	movq	$default_bzalloc, 56(%rax)
.LBB55_13:
	movq	-16(%rbp), %rax
	cmpq	$0, 64(%rax)
	jne	.LBB55_15
# %bb.14:
	movq	-16(%rbp), %rax
	movq	$default_bzfree, 64(%rax)
.LBB55_15:
	movq	-16(%rbp), %rax
	movq	72(%rax), %rdi
	movl	$55768, %esi                    # imm = 0xD9D8
	movl	$1, %edx
	callq	*56(%rax)
	movq	%rax, -8(%rbp)
	testq	%rax, %rax
	je	.LBB55_29
# %bb.16:
	movq	-16(%rbp), %rax
	movq	-8(%rbp), %rcx
	movq	%rax, (%rcx)
	movq	-8(%rbp), %rax
	movq	$0, 24(%rax)
	movq	-8(%rbp), %rax
	movq	$0, 32(%rax)
	movq	-8(%rbp), %rax
	movq	$0, 40(%rax)
	imull	$100000, -24(%rbp), %esi        # imm = 0x186A0
	movl	%esi, -32(%rbp)
	movq	-16(%rbp), %rax
	movq	72(%rax), %rdi
	shll	$2, %esi
	movl	$1, %edx
	callq	*56(%rax)
	movq	-8(%rbp), %rcx
	movq	%rax, 24(%rcx)
	movq	-16(%rbp), %rax
	movq	72(%rax), %rdi
	movl	-32(%rbp), %ecx
	leal	136(,%rcx,4), %esi
	movl	$1, %edx
	callq	*56(%rax)
	movq	-8(%rbp), %rcx
	movq	%rax, 32(%rcx)
	movq	-16(%rbp), %rax
	movq	72(%rax), %rdi
	movl	$262148, %esi                   # imm = 0x40004
	movl	$1, %edx
	callq	*56(%rax)
	movq	-8(%rbp), %rcx
	movq	%rax, 40(%rcx)
	movq	-8(%rbp), %rax
	cmpq	$0, 24(%rax)
	je	.LBB55_20
# %bb.17:
	movq	-8(%rbp), %rax
	cmpq	$0, 32(%rax)
	je	.LBB55_20
# %bb.18:
	movq	-8(%rbp), %rax
	cmpq	$0, 40(%rax)
	je	.LBB55_20
# %bb.19:
	movq	-8(%rbp), %rax
	movl	$0, 660(%rax)
	movq	-8(%rbp), %rax
	movl	$2, 12(%rax)
	movq	-8(%rbp), %rax
	movl	$2, 8(%rax)
	movq	-8(%rbp), %rax
	movl	$0, 652(%rax)
	movl	-24(%rbp), %eax
	movq	-8(%rbp), %rcx
	movl	%eax, 664(%rcx)
	imull	$100000, -24(%rbp), %eax        # imm = 0x186A0
	addl	$-19, %eax
	movq	-8(%rbp), %rcx
	movl	%eax, 112(%rcx)
	movl	-36(%rbp), %eax
	movq	-8(%rbp), %rcx
	movl	%eax, 656(%rcx)
	movl	-20(%rbp), %eax
	movq	-8(%rbp), %rcx
	movl	%eax, 88(%rcx)
	movq	-8(%rbp), %rax
	movq	32(%rax), %rcx
	movq	%rcx, 64(%rax)
	movq	-8(%rbp), %rax
	movq	24(%rax), %rcx
	movq	%rcx, 72(%rax)
	movq	-8(%rbp), %rax
	movq	$0, 80(%rax)
	movq	-8(%rbp), %rax
	movq	24(%rax), %rcx
	movq	%rcx, 56(%rax)
	movq	-8(%rbp), %rax
	movq	-16(%rbp), %rcx
	movq	%rax, 48(%rcx)
	movq	-16(%rbp), %rax
	movl	$0, 12(%rax)
	movq	-16(%rbp), %rax
	movl	$0, 16(%rax)
	movq	-16(%rbp), %rax
	movl	$0, 36(%rax)
	movq	-16(%rbp), %rax
	movl	$0, 40(%rax)
	movq	-8(%rbp), %rdi
	callq	init_RL
	movq	-8(%rbp), %rdi
	callq	prepare_new_block
	movl	$0, -28(%rbp)
	jmp	.LBB55_8
.LBB55_20:
	movq	-8(%rbp), %rax
	cmpq	$0, 24(%rax)
	je	.LBB55_22
# %bb.21:
	movq	-16(%rbp), %rax
	movq	72(%rax), %rdi
	movq	-8(%rbp), %rcx
	movq	24(%rcx), %rsi
	callq	*64(%rax)
.LBB55_22:
	movq	-8(%rbp), %rax
	cmpq	$0, 32(%rax)
	je	.LBB55_24
# %bb.23:
	movq	-16(%rbp), %rax
	movq	72(%rax), %rdi
	movq	-8(%rbp), %rcx
	movq	32(%rcx), %rsi
	callq	*64(%rax)
.LBB55_24:
	movq	-8(%rbp), %rax
	cmpq	$0, 40(%rax)
	je	.LBB55_26
# %bb.25:
	movq	-16(%rbp), %rax
	movq	72(%rax), %rdi
	movq	-8(%rbp), %rcx
	movq	40(%rcx), %rsi
	callq	*64(%rax)
.LBB55_26:
	cmpq	$0, -8(%rbp)
	je	.LBB55_29
# %bb.27:
	movq	-16(%rbp), %rax
	movq	72(%rax), %rdi
	movq	-8(%rbp), %rsi
	callq	*64(%rax)
.LBB55_29:
	movl	$-3, -28(%rbp)
	jmp	.LBB55_8
.Lfunc_end55:
	.size	BZ2_bzCompressInit, .Lfunc_end55-BZ2_bzCompressInit
	.cfi_endproc
                                        # -- End function
	.p2align	4, 0x90                         # -- Begin function bz_config_ok
	.type	bz_config_ok,@function
bz_config_ok:                           # @bz_config_ok
	.cfi_startproc
# %bb.0:
	pushq	%rbp
	.cfi_def_cfa_offset 16
	.cfi_offset %rbp, -16
	movq	%rsp, %rbp
	.cfi_def_cfa_register %rbp
	movl	$1, %eax
	popq	%rbp
	.cfi_def_cfa %rsp, 8
	retq
.Lfunc_end56:
	.size	bz_config_ok, .Lfunc_end56-bz_config_ok
	.cfi_endproc
                                        # -- End function
	.p2align	4, 0x90                         # -- Begin function default_bzalloc
	.type	default_bzalloc,@function
default_bzalloc:                        # @default_bzalloc
	.cfi_startproc
# %bb.0:
	pushq	%rbp
	.cfi_def_cfa_offset 16
	.cfi_offset %rbp, -16
	movq	%rsp, %rbp
	.cfi_def_cfa_register %rbp
	subq	$32, %rsp
	movq	%rdi, -24(%rbp)
	movl	%esi, -8(%rbp)
	movl	%edx, -4(%rbp)
	movslq	%esi, %rax
	movslq	%edx, %rdi
	imulq	%rax, %rdi
	callq	malloc
	movq	%rax, -16(%rbp)
	addq	$32, %rsp
	popq	%rbp
	.cfi_def_cfa %rsp, 8
	retq
.Lfunc_end57:
	.size	default_bzalloc, .Lfunc_end57-default_bzalloc
	.cfi_endproc
                                        # -- End function
	.p2align	4, 0x90                         # -- Begin function default_bzfree
	.type	default_bzfree,@function
default_bzfree:                         # @default_bzfree
	.cfi_startproc
# %bb.0:
	pushq	%rbp
	.cfi_def_cfa_offset 16
	.cfi_offset %rbp, -16
	movq	%rsp, %rbp
	.cfi_def_cfa_register %rbp
	subq	$16, %rsp
	movq	%rdi, -16(%rbp)
	movq	%rsi, -8(%rbp)
	testq	%rsi, %rsi
	je	.LBB58_2
# %bb.1:
	movq	-8(%rbp), %rdi
	callq	free
.LBB58_2:
	addq	$16, %rsp
	popq	%rbp
	.cfi_def_cfa %rsp, 8
	retq
.Lfunc_end58:
	.size	default_bzfree, .Lfunc_end58-default_bzfree
	.cfi_endproc
                                        # -- End function
	.p2align	4, 0x90                         # -- Begin function init_RL
	.type	init_RL,@function
init_RL:                                # @init_RL
	.cfi_startproc
# %bb.0:
	pushq	%rbp
	.cfi_def_cfa_offset 16
	.cfi_offset %rbp, -16
	movq	%rsp, %rbp
	.cfi_def_cfa_register %rbp
	movq	%rdi, -8(%rbp)
	movl	$256, 92(%rdi)                  # imm = 0x100
	movq	-8(%rbp), %rax
	movl	$0, 96(%rax)
	popq	%rbp
	.cfi_def_cfa %rsp, 8
	retq
.Lfunc_end59:
	.size	init_RL, .Lfunc_end59-init_RL
	.cfi_endproc
                                        # -- End function
	.p2align	4, 0x90                         # -- Begin function prepare_new_block
	.type	prepare_new_block,@function
prepare_new_block:                      # @prepare_new_block
	.cfi_startproc
# %bb.0:
	pushq	%rbp
	.cfi_def_cfa_offset 16
	.cfi_offset %rbp, -16
	movq	%rsp, %rbp
	.cfi_def_cfa_register %rbp
	movq	%rdi, -16(%rbp)
	movl	$0, 108(%rdi)
	movq	-16(%rbp), %rax
	movl	$0, 116(%rax)
	movq	-16(%rbp), %rax
	movl	$0, 120(%rax)
	movq	-16(%rbp), %rax
	movl	$-1, 648(%rax)
	movl	$0, -4(%rbp)
	cmpl	$255, -4(%rbp)
	jg	.LBB60_3
	.p2align	4, 0x90
.LBB60_2:                               # =>This Inner Loop Header: Depth=1
	movq	-16(%rbp), %rax
	movslq	-4(%rbp), %rcx
	movb	$0, 128(%rax,%rcx)
	addl	$1, -4(%rbp)
	cmpl	$255, -4(%rbp)
	jle	.LBB60_2
.LBB60_3:
	movq	-16(%rbp), %rax
	addl	$1, 660(%rax)
	popq	%rbp
	.cfi_def_cfa %rsp, 8
	retq
.Lfunc_end60:
	.size	prepare_new_block, .Lfunc_end60-prepare_new_block
	.cfi_endproc
                                        # -- End function
	.globl	BZ2_bzCompress                  # -- Begin function BZ2_bzCompress
	.p2align	4, 0x90
	.type	BZ2_bzCompress,@function
BZ2_bzCompress:                         # @BZ2_bzCompress
	.cfi_startproc
# %bb.0:
	pushq	%rbp
	.cfi_def_cfa_offset 16
	.cfi_offset %rbp, -16
	movq	%rsp, %rbp
	.cfi_def_cfa_register %rbp
	subq	$32, %rsp
	movq	%rdi, -32(%rbp)
	movl	%esi, -20(%rbp)
	testq	%rdi, %rdi
	je	.LBB61_11
# %bb.1:
	movq	-32(%rbp), %rax
	movq	48(%rax), %rax
	movq	%rax, -16(%rbp)
	testq	%rax, %rax
	je	.LBB61_11
# %bb.2:
	movq	-16(%rbp), %rax
	movq	(%rax), %rax
	cmpq	-32(%rbp), %rax
	je	.LBB61_5
.LBB61_11:
	movl	$-2, -4(%rbp)
.LBB61_12:
	movl	-4(%rbp), %eax
	addq	$32, %rsp
	popq	%rbp
	.cfi_def_cfa %rsp, 8
	retq
	.p2align	4, 0x90
.LBB61_4:                               #   in Loop: Header=BB61_5 Depth=1
	.cfi_def_cfa %rbp, 16
	movq	-32(%rbp), %rax
	movl	8(%rax), %eax
	movq	-16(%rbp), %rcx
	movl	%eax, 16(%rcx)
	movq	-16(%rbp), %rax
	movl	$3, 8(%rax)
.LBB61_5:                               # =>This Inner Loop Header: Depth=1
	movq	-16(%rbp), %rax
	movl	8(%rax), %eax
	cmpl	$2, %eax
	jne	.LBB61_13
# %bb.6:                                #   in Loop: Header=BB61_5 Depth=1
	cmpl	$0, -20(%rbp)
	je	.LBB61_22
# %bb.7:                                #   in Loop: Header=BB61_5 Depth=1
	cmpl	$1, -20(%rbp)
	je	.LBB61_4
# %bb.8:                                #   in Loop: Header=BB61_5 Depth=1
	cmpl	$2, -20(%rbp)
	jne	.LBB61_11
# %bb.9:                                #   in Loop: Header=BB61_5 Depth=1
	movq	-32(%rbp), %rax
	movl	8(%rax), %eax
	movq	-16(%rbp), %rcx
	movl	%eax, 16(%rcx)
	movq	-16(%rbp), %rax
	movl	$4, 8(%rax)
	jmp	.LBB61_5
.LBB61_13:
	cmpl	$4, %eax
	je	.LBB61_17
# %bb.14:
	cmpl	$3, %eax
	je	.LBB61_19
# %bb.15:
	cmpl	$1, %eax
	je	.LBB61_16
# %bb.21:
	movl	$0, -4(%rbp)
	jmp	.LBB61_12
.LBB61_17:
	cmpl	$2, -20(%rbp)
	jne	.LBB61_16
# %bb.23:
	movq	-16(%rbp), %rax
	movl	16(%rax), %ecx
	movq	(%rax), %rax
	cmpl	8(%rax), %ecx
	jne	.LBB61_16
# %bb.28:
	movq	-32(%rbp), %rdi
	callq	handle_compress
	movb	%al, -5(%rbp)
	testb	%al, %al
	je	.LBB61_16
# %bb.29:
	movq	-16(%rbp), %rax
	cmpl	$0, 16(%rax)
	jne	.LBB61_32
# %bb.30:
	movq	-16(%rbp), %rdi
	callq	isempty_RL
	testb	%al, %al
	je	.LBB61_32
# %bb.31:
	movq	-16(%rbp), %rax
	movl	120(%rax), %ecx
	cmpl	116(%rax), %ecx
	jge	.LBB61_39
.LBB61_32:
	movl	$3, -4(%rbp)
	jmp	.LBB61_12
.LBB61_19:
	cmpl	$1, -20(%rbp)
	jne	.LBB61_16
# %bb.25:
	movq	-16(%rbp), %rax
	movl	16(%rax), %ecx
	movq	(%rax), %rax
	cmpl	8(%rax), %ecx
	je	.LBB61_33
.LBB61_16:
	movl	$-1, -4(%rbp)
	jmp	.LBB61_12
.LBB61_22:
	movq	-32(%rbp), %rdi
	callq	handle_compress
	movb	%al, -5(%rbp)
	xorl	%ecx, %ecx
	testb	%al, %al
	setne	%cl
	leal	(%rcx,%rcx,2), %eax
	addl	$-2, %eax
	movl	%eax, -4(%rbp)
	jmp	.LBB61_12
.LBB61_33:
	movq	-32(%rbp), %rdi
	callq	handle_compress
	movb	%al, -5(%rbp)
	movq	-16(%rbp), %rax
	cmpl	$0, 16(%rax)
	jne	.LBB61_36
# %bb.34:
	movq	-16(%rbp), %rdi
	callq	isempty_RL
	testb	%al, %al
	je	.LBB61_36
# %bb.35:
	movq	-16(%rbp), %rax
	movl	120(%rax), %ecx
	cmpl	116(%rax), %ecx
	jge	.LBB61_38
.LBB61_36:
	movl	$2, -4(%rbp)
	jmp	.LBB61_12
.LBB61_38:
	movq	-16(%rbp), %rax
	movl	$2, 8(%rax)
	movl	$1, -4(%rbp)
	jmp	.LBB61_12
.LBB61_39:
	movq	-16(%rbp), %rax
	movl	$1, 8(%rax)
	movl	$4, -4(%rbp)
	jmp	.LBB61_12
.Lfunc_end61:
	.size	BZ2_bzCompress, .Lfunc_end61-BZ2_bzCompress
	.cfi_endproc
                                        # -- End function
	.p2align	4, 0x90                         # -- Begin function handle_compress
	.type	handle_compress,@function
handle_compress:                        # @handle_compress
	.cfi_startproc
# %bb.0:
	pushq	%rbp
	.cfi_def_cfa_offset 16
	.cfi_offset %rbp, -16
	movq	%rsp, %rbp
	.cfi_def_cfa_register %rbp
	subq	$32, %rsp
	movq	%rdi, -24(%rbp)
	movb	$0, -2(%rbp)
	movb	$0, -1(%rbp)
	movq	48(%rdi), %rax
	movq	%rax, -16(%rbp)
	jmp	.LBB62_1
.LBB62_16:                              #   in Loop: Header=BB62_1 Depth=1
	movq	-16(%rbp), %rax
	movq	(%rax), %rax
	cmpl	$0, 8(%rax)
	je	.LBB62_17
	.p2align	4, 0x90
.LBB62_1:                               # =>This Inner Loop Header: Depth=1
	movq	-16(%rbp), %rax
	cmpl	$1, 12(%rax)
	jne	.LBB62_9
# %bb.2:                                #   in Loop: Header=BB62_1 Depth=1
	movq	-16(%rbp), %rdi
	callq	copy_output_until_stop
	movzbl	%al, %eax
	movzbl	-1(%rbp), %ecx
	orl	%eax, %ecx
	movb	%cl, -1(%rbp)
	movq	-16(%rbp), %rax
	movl	120(%rax), %ecx
	cmpl	116(%rax), %ecx
	jl	.LBB62_17
# %bb.3:                                #   in Loop: Header=BB62_1 Depth=1
	movq	-16(%rbp), %rax
	cmpl	$4, 8(%rax)
	jne	.LBB62_6
# %bb.4:                                #   in Loop: Header=BB62_1 Depth=1
	movq	-16(%rbp), %rax
	cmpl	$0, 16(%rax)
	jne	.LBB62_6
# %bb.5:                                #   in Loop: Header=BB62_1 Depth=1
	movq	-16(%rbp), %rdi
	callq	isempty_RL
	testb	%al, %al
	jne	.LBB62_17
	.p2align	4, 0x90
.LBB62_6:                               #   in Loop: Header=BB62_1 Depth=1
	movq	-16(%rbp), %rdi
	callq	prepare_new_block
	movq	-16(%rbp), %rax
	movl	$2, 12(%rax)
	movq	-16(%rbp), %rax
	cmpl	$3, 8(%rax)
	jne	.LBB62_9
# %bb.7:                                #   in Loop: Header=BB62_1 Depth=1
	movq	-16(%rbp), %rax
	cmpl	$0, 16(%rax)
	jne	.LBB62_9
# %bb.8:                                #   in Loop: Header=BB62_1 Depth=1
	movq	-16(%rbp), %rdi
	callq	isempty_RL
	testb	%al, %al
	jne	.LBB62_17
	.p2align	4, 0x90
.LBB62_9:                               #   in Loop: Header=BB62_1 Depth=1
	movq	-16(%rbp), %rax
	cmpl	$2, 12(%rax)
	jne	.LBB62_1
# %bb.10:                               #   in Loop: Header=BB62_1 Depth=1
	movq	-16(%rbp), %rdi
	callq	copy_input_until_stop
	movzbl	%al, %eax
	movzbl	-2(%rbp), %ecx
	orl	%eax, %ecx
	movb	%cl, -2(%rbp)
	movq	-16(%rbp), %rax
	cmpl	$2, 8(%rax)
	je	.LBB62_13
# %bb.11:                               #   in Loop: Header=BB62_1 Depth=1
	movq	-16(%rbp), %rax
	cmpl	$0, 16(%rax)
	je	.LBB62_12
.LBB62_13:                              #   in Loop: Header=BB62_1 Depth=1
	movq	-16(%rbp), %rax
	movl	108(%rax), %ecx
	cmpl	112(%rax), %ecx
	jl	.LBB62_16
# %bb.14:                               #   in Loop: Header=BB62_1 Depth=1
	movq	-16(%rbp), %rdi
	xorl	%esi, %esi
	jmp	.LBB62_15
.LBB62_12:                              #   in Loop: Header=BB62_1 Depth=1
	movq	-16(%rbp), %rdi
	callq	flush_RL
	movq	-16(%rbp), %rdi
	xorl	%esi, %esi
	cmpl	$4, 8(%rdi)
	sete	%sil
.LBB62_15:                              #   in Loop: Header=BB62_1 Depth=1
	callq	BZ2_compressBlock
	movq	-16(%rbp), %rax
	movl	$1, 12(%rax)
	jmp	.LBB62_1
.LBB62_17:
	movb	$1, %al
	cmpb	$0, -2(%rbp)
	jne	.LBB62_19
# %bb.18:
	cmpb	$0, -1(%rbp)
	setne	%al
.LBB62_19:
	addq	$32, %rsp
	popq	%rbp
	.cfi_def_cfa %rsp, 8
	retq
.Lfunc_end62:
	.size	handle_compress, .Lfunc_end62-handle_compress
	.cfi_endproc
                                        # -- End function
	.p2align	4, 0x90                         # -- Begin function isempty_RL
	.type	isempty_RL,@function
isempty_RL:                             # @isempty_RL
	.cfi_startproc
# %bb.0:
	pushq	%rbp
	.cfi_def_cfa_offset 16
	.cfi_offset %rbp, -16
	movq	%rsp, %rbp
	.cfi_def_cfa_register %rbp
	movq	%rdi, -16(%rbp)
	cmpl	$255, 92(%rdi)
	ja	.LBB63_3
# %bb.1:
	movq	-16(%rbp), %rax
	cmpl	$0, 96(%rax)
	jle	.LBB63_3
# %bb.2:
	movb	$0, -1(%rbp)
	jmp	.LBB63_4
.LBB63_3:
	movb	$1, -1(%rbp)
.LBB63_4:
	movb	-1(%rbp), %al
	popq	%rbp
	.cfi_def_cfa %rsp, 8
	retq
.Lfunc_end63:
	.size	isempty_RL, .Lfunc_end63-isempty_RL
	.cfi_endproc
                                        # -- End function
	.p2align	4, 0x90                         # -- Begin function copy_output_until_stop
	.type	copy_output_until_stop,@function
copy_output_until_stop:                 # @copy_output_until_stop
	.cfi_startproc
# %bb.0:
	pushq	%rbp
	.cfi_def_cfa_offset 16
	.cfi_offset %rbp, -16
	movq	%rsp, %rbp
	.cfi_def_cfa_register %rbp
	movq	%rdi, -16(%rbp)
	movb	$0, -1(%rbp)
	.p2align	4, 0x90
.LBB64_1:                               # =>This Inner Loop Header: Depth=1
	movq	-16(%rbp), %rax
	movq	(%rax), %rax
	cmpl	$0, 32(%rax)
	je	.LBB64_5
# %bb.2:                                #   in Loop: Header=BB64_1 Depth=1
	movq	-16(%rbp), %rax
	movl	120(%rax), %ecx
	cmpl	116(%rax), %ecx
	jge	.LBB64_5
# %bb.3:                                #   in Loop: Header=BB64_1 Depth=1
	movb	$1, -1(%rbp)
	movq	-16(%rbp), %rax
	movq	(%rax), %rcx
	movq	80(%rax), %rdx
	movslq	120(%rax), %rax
	movzbl	(%rdx,%rax), %eax
	movq	24(%rcx), %rcx
	movb	%al, (%rcx)
	movq	-16(%rbp), %rax
	addl	$1, 120(%rax)
	movq	-16(%rbp), %rax
	movq	(%rax), %rax
	addl	$-1, 32(%rax)
	movq	-16(%rbp), %rax
	movq	(%rax), %rax
	addq	$1, 24(%rax)
	movq	-16(%rbp), %rax
	movq	(%rax), %rax
	addl	$1, 36(%rax)
	movq	-16(%rbp), %rax
	movq	(%rax), %rax
	cmpl	$0, 36(%rax)
	jne	.LBB64_1
# %bb.4:                                #   in Loop: Header=BB64_1 Depth=1
	movq	-16(%rbp), %rax
	movq	(%rax), %rax
	addl	$1, 40(%rax)
	jmp	.LBB64_1
.LBB64_5:
	movb	-1(%rbp), %al
	popq	%rbp
	.cfi_def_cfa %rsp, 8
	retq
.Lfunc_end64:
	.size	copy_output_until_stop, .Lfunc_end64-copy_output_until_stop
	.cfi_endproc
                                        # -- End function
	.p2align	4, 0x90                         # -- Begin function copy_input_until_stop
	.type	copy_input_until_stop,@function
copy_input_until_stop:                  # @copy_input_until_stop
	.cfi_startproc
# %bb.0:
	pushq	%rbp
	.cfi_def_cfa_offset 16
	.cfi_offset %rbp, -16
	movq	%rsp, %rbp
	.cfi_def_cfa_register %rbp
	subq	$32, %rsp
	movq	%rdi, -8(%rbp)
	movb	$0, -9(%rbp)
	cmpl	$2, 8(%rdi)
	jne	.LBB65_14
	.p2align	4, 0x90
.LBB65_1:                               # =>This Inner Loop Header: Depth=1
	movq	-8(%rbp), %rax
	movl	108(%rax), %ecx
	cmpl	112(%rax), %ecx
	jge	.LBB65_29
# %bb.2:                                #   in Loop: Header=BB65_1 Depth=1
	movq	-8(%rbp), %rax
	movq	(%rax), %rax
	cmpl	$0, 8(%rax)
	je	.LBB65_29
# %bb.3:                                #   in Loop: Header=BB65_1 Depth=1
	movb	$1, -9(%rbp)
	movq	-8(%rbp), %rax
	movq	(%rax), %rcx
	movq	(%rcx), %rcx
	movzbl	(%rcx), %ecx
	movl	%ecx, -20(%rbp)
	cmpl	92(%rax), %ecx
	je	.LBB65_6
# %bb.4:                                #   in Loop: Header=BB65_1 Depth=1
	movq	-8(%rbp), %rax
	cmpl	$1, 96(%rax)
	jne	.LBB65_6
# %bb.5:                                #   in Loop: Header=BB65_1 Depth=1
	movq	-8(%rbp), %rax
	movzbl	92(%rax), %ecx
	movb	%cl, -11(%rbp)
	movl	648(%rax), %edx
	movl	%edx, %esi
	shll	$8, %esi
	shrl	$24, %edx
	xorl	%ecx, %edx
	xorl	BZ2_crc32Table(,%rdx,4), %esi
	movl	%esi, 648(%rax)
	movq	-8(%rbp), %rax
	movl	92(%rax), %ecx
	movb	$1, 128(%rax,%rcx)
	movzbl	-11(%rbp), %eax
	movq	-8(%rbp), %rcx
	movq	64(%rcx), %rdx
	movslq	108(%rcx), %rcx
	movb	%al, (%rdx,%rcx)
	movq	-8(%rbp), %rax
	addl	$1, 108(%rax)
	movl	-20(%rbp), %eax
	movq	-8(%rbp), %rcx
	movl	%eax, 92(%rcx)
	jmp	.LBB65_12
	.p2align	4, 0x90
.LBB65_6:                               #   in Loop: Header=BB65_1 Depth=1
	movl	-20(%rbp), %eax
	movq	-8(%rbp), %rcx
	cmpl	92(%rcx), %eax
	jne	.LBB65_8
# %bb.7:                                #   in Loop: Header=BB65_1 Depth=1
	movq	-8(%rbp), %rax
	cmpl	$255, 96(%rax)
	jne	.LBB65_11
.LBB65_8:                               #   in Loop: Header=BB65_1 Depth=1
	movq	-8(%rbp), %rax
	cmpl	$255, 92(%rax)
	ja	.LBB65_10
# %bb.9:                                #   in Loop: Header=BB65_1 Depth=1
	movq	-8(%rbp), %rdi
	callq	add_pair_to_block
.LBB65_10:                              #   in Loop: Header=BB65_1 Depth=1
	movl	-20(%rbp), %eax
	movq	-8(%rbp), %rcx
	movl	%eax, 92(%rcx)
	movq	-8(%rbp), %rax
	movl	$1, 96(%rax)
	jmp	.LBB65_12
.LBB65_11:                              #   in Loop: Header=BB65_1 Depth=1
	movq	-8(%rbp), %rax
	addl	$1, 96(%rax)
	.p2align	4, 0x90
.LBB65_12:                              #   in Loop: Header=BB65_1 Depth=1
	movq	-8(%rbp), %rax
	movq	(%rax), %rax
	addq	$1, (%rax)
	movq	-8(%rbp), %rax
	movq	(%rax), %rax
	addl	$-1, 8(%rax)
	movq	-8(%rbp), %rax
	movq	(%rax), %rax
	addl	$1, 12(%rax)
	movq	-8(%rbp), %rax
	movq	(%rax), %rax
	cmpl	$0, 12(%rax)
	jne	.LBB65_1
# %bb.13:                               #   in Loop: Header=BB65_1 Depth=1
	movq	-8(%rbp), %rax
	movq	(%rax), %rax
	addl	$1, 16(%rax)
	jmp	.LBB65_1
	.p2align	4, 0x90
.LBB65_28:                              #   in Loop: Header=BB65_14 Depth=1
	movq	-8(%rbp), %rax
	addl	$-1, 16(%rax)
.LBB65_14:                              # =>This Inner Loop Header: Depth=1
	movq	-8(%rbp), %rax
	movl	108(%rax), %ecx
	cmpl	112(%rax), %ecx
	jge	.LBB65_29
# %bb.15:                               #   in Loop: Header=BB65_14 Depth=1
	movq	-8(%rbp), %rax
	movq	(%rax), %rax
	cmpl	$0, 8(%rax)
	je	.LBB65_29
# %bb.16:                               #   in Loop: Header=BB65_14 Depth=1
	movq	-8(%rbp), %rax
	cmpl	$0, 16(%rax)
	je	.LBB65_29
# %bb.17:                               #   in Loop: Header=BB65_14 Depth=1
	movb	$1, -9(%rbp)
	movq	-8(%rbp), %rax
	movq	(%rax), %rcx
	movq	(%rcx), %rcx
	movzbl	(%rcx), %ecx
	movl	%ecx, -16(%rbp)
	cmpl	92(%rax), %ecx
	je	.LBB65_20
# %bb.18:                               #   in Loop: Header=BB65_14 Depth=1
	movq	-8(%rbp), %rax
	cmpl	$1, 96(%rax)
	jne	.LBB65_20
# %bb.19:                               #   in Loop: Header=BB65_14 Depth=1
	movq	-8(%rbp), %rax
	movzbl	92(%rax), %ecx
	movb	%cl, -10(%rbp)
	movl	648(%rax), %edx
	movl	%edx, %esi
	shll	$8, %esi
	shrl	$24, %edx
	xorl	%ecx, %edx
	xorl	BZ2_crc32Table(,%rdx,4), %esi
	movl	%esi, 648(%rax)
	movq	-8(%rbp), %rax
	movl	92(%rax), %ecx
	movb	$1, 128(%rax,%rcx)
	movzbl	-10(%rbp), %eax
	movq	-8(%rbp), %rcx
	movq	64(%rcx), %rdx
	movslq	108(%rcx), %rcx
	movb	%al, (%rdx,%rcx)
	movq	-8(%rbp), %rax
	addl	$1, 108(%rax)
	movl	-16(%rbp), %eax
	movq	-8(%rbp), %rcx
	movl	%eax, 92(%rcx)
	jmp	.LBB65_26
	.p2align	4, 0x90
.LBB65_20:                              #   in Loop: Header=BB65_14 Depth=1
	movl	-16(%rbp), %eax
	movq	-8(%rbp), %rcx
	cmpl	92(%rcx), %eax
	jne	.LBB65_22
# %bb.21:                               #   in Loop: Header=BB65_14 Depth=1
	movq	-8(%rbp), %rax
	cmpl	$255, 96(%rax)
	jne	.LBB65_25
.LBB65_22:                              #   in Loop: Header=BB65_14 Depth=1
	movq	-8(%rbp), %rax
	cmpl	$255, 92(%rax)
	ja	.LBB65_24
# %bb.23:                               #   in Loop: Header=BB65_14 Depth=1
	movq	-8(%rbp), %rdi
	callq	add_pair_to_block
.LBB65_24:                              #   in Loop: Header=BB65_14 Depth=1
	movl	-16(%rbp), %eax
	movq	-8(%rbp), %rcx
	movl	%eax, 92(%rcx)
	movq	-8(%rbp), %rax
	movl	$1, 96(%rax)
	jmp	.LBB65_26
.LBB65_25:                              #   in Loop: Header=BB65_14 Depth=1
	movq	-8(%rbp), %rax
	addl	$1, 96(%rax)
	.p2align	4, 0x90
.LBB65_26:                              #   in Loop: Header=BB65_14 Depth=1
	movq	-8(%rbp), %rax
	movq	(%rax), %rax
	addq	$1, (%rax)
	movq	-8(%rbp), %rax
	movq	(%rax), %rax
	addl	$-1, 8(%rax)
	movq	-8(%rbp), %rax
	movq	(%rax), %rax
	addl	$1, 12(%rax)
	movq	-8(%rbp), %rax
	movq	(%rax), %rax
	cmpl	$0, 12(%rax)
	jne	.LBB65_28
# %bb.27:                               #   in Loop: Header=BB65_14 Depth=1
	movq	-8(%rbp), %rax
	movq	(%rax), %rax
	addl	$1, 16(%rax)
	jmp	.LBB65_28
.LBB65_29:
	movb	-9(%rbp), %al
	addq	$32, %rsp
	popq	%rbp
	.cfi_def_cfa %rsp, 8
	retq
.Lfunc_end65:
	.size	copy_input_until_stop, .Lfunc_end65-copy_input_until_stop
	.cfi_endproc
                                        # -- End function
	.p2align	4, 0x90                         # -- Begin function flush_RL
	.type	flush_RL,@function
flush_RL:                               # @flush_RL
	.cfi_startproc
# %bb.0:
	pushq	%rbp
	.cfi_def_cfa_offset 16
	.cfi_offset %rbp, -16
	movq	%rsp, %rbp
	.cfi_def_cfa_register %rbp
	subq	$16, %rsp
	movq	%rdi, -8(%rbp)
	cmpl	$255, 92(%rdi)
	ja	.LBB66_2
# %bb.1:
	movq	-8(%rbp), %rdi
	callq	add_pair_to_block
.LBB66_2:
	movq	-8(%rbp), %rdi
	callq	init_RL
	addq	$16, %rsp
	popq	%rbp
	.cfi_def_cfa %rsp, 8
	retq
.Lfunc_end66:
	.size	flush_RL, .Lfunc_end66-flush_RL
	.cfi_endproc
                                        # -- End function
	.p2align	4, 0x90                         # -- Begin function add_pair_to_block
	.type	add_pair_to_block,@function
add_pair_to_block:                      # @add_pair_to_block
	.cfi_startproc
# %bb.0:
	pushq	%rbp
	.cfi_def_cfa_offset 16
	.cfi_offset %rbp, -16
	movq	%rsp, %rbp
	.cfi_def_cfa_register %rbp
	movq	%rdi, -16(%rbp)
	movb	92(%rdi), %al
	movb	%al, -1(%rbp)
	movl	$0, -20(%rbp)
	.p2align	4, 0x90
.LBB67_1:                               # =>This Inner Loop Header: Depth=1
	movl	-20(%rbp), %eax
	movq	-16(%rbp), %rcx
	cmpl	96(%rcx), %eax
	jge	.LBB67_3
# %bb.2:                                #   in Loop: Header=BB67_1 Depth=1
	movq	-16(%rbp), %rax
	movl	648(%rax), %ecx
	movl	%ecx, %edx
	shll	$8, %edx
	shrl	$24, %ecx
	movzbl	-1(%rbp), %esi
	xorl	%ecx, %esi
	xorl	BZ2_crc32Table(,%rsi,4), %edx
	movl	%edx, 648(%rax)
	addl	$1, -20(%rbp)
	jmp	.LBB67_1
.LBB67_3:
	movq	-16(%rbp), %rax
	movl	92(%rax), %ecx
	movb	$1, 128(%rax,%rcx)
	movq	-16(%rbp), %rax
	movl	96(%rax), %eax
	cmpl	$3, %eax
	je	.LBB67_7
# %bb.4:
	cmpl	$2, %eax
	je	.LBB67_8
# %bb.5:
	cmpl	$1, %eax
	je	.LBB67_6
# %bb.9:
	movq	-16(%rbp), %rax
	movslq	96(%rax), %rcx
	movb	$1, 124(%rcx,%rax)
	movb	-1(%rbp), %al
	movq	-16(%rbp), %rcx
	movq	64(%rcx), %rdx
	movslq	108(%rcx), %rcx
	movb	%al, (%rdx,%rcx)
	movq	-16(%rbp), %rax
	addl	$1, 108(%rax)
	movb	-1(%rbp), %al
	movq	-16(%rbp), %rcx
	movq	64(%rcx), %rdx
	movslq	108(%rcx), %rcx
	movb	%al, (%rdx,%rcx)
	movq	-16(%rbp), %rax
	addl	$1, 108(%rax)
	movb	-1(%rbp), %al
	movq	-16(%rbp), %rcx
	movq	64(%rcx), %rdx
	movslq	108(%rcx), %rcx
	movb	%al, (%rdx,%rcx)
	movq	-16(%rbp), %rax
	addl	$1, 108(%rax)
	movb	-1(%rbp), %al
	movq	-16(%rbp), %rcx
	movq	64(%rcx), %rdx
	movslq	108(%rcx), %rcx
	movb	%al, (%rdx,%rcx)
	movq	-16(%rbp), %rax
	addl	$1, 108(%rax)
	movq	-16(%rbp), %rax
	movb	96(%rax), %cl
	addb	$-4, %cl
	movq	64(%rax), %rdx
	movslq	108(%rax), %rax
	movb	%cl, (%rdx,%rax)
	jmp	.LBB67_10
.LBB67_7:
	movb	-1(%rbp), %al
	movq	-16(%rbp), %rcx
	movq	64(%rcx), %rdx
	movslq	108(%rcx), %rcx
	movb	%al, (%rdx,%rcx)
	movq	-16(%rbp), %rax
	addl	$1, 108(%rax)
.LBB67_8:
	movb	-1(%rbp), %al
	movq	-16(%rbp), %rcx
	movq	64(%rcx), %rdx
	movslq	108(%rcx), %rcx
	movb	%al, (%rdx,%rcx)
	movq	-16(%rbp), %rax
	addl	$1, 108(%rax)
.LBB67_6:
	movb	-1(%rbp), %al
	movq	-16(%rbp), %rcx
	movq	64(%rcx), %rdx
	movslq	108(%rcx), %rcx
	movb	%al, (%rdx,%rcx)
.LBB67_10:
	movq	-16(%rbp), %rax
	addl	$1, 108(%rax)
	popq	%rbp
	.cfi_def_cfa %rsp, 8
	retq
.Lfunc_end67:
	.size	add_pair_to_block, .Lfunc_end67-add_pair_to_block
	.cfi_endproc
                                        # -- End function
	.globl	BZ2_bzCompressEnd               # -- Begin function BZ2_bzCompressEnd
	.p2align	4, 0x90
	.type	BZ2_bzCompressEnd,@function
BZ2_bzCompressEnd:                      # @BZ2_bzCompressEnd
	.cfi_startproc
# %bb.0:
	pushq	%rbp
	.cfi_def_cfa_offset 16
	.cfi_offset %rbp, -16
	movq	%rsp, %rbp
	.cfi_def_cfa_register %rbp
	subq	$32, %rsp
	movq	%rdi, -24(%rbp)
	testq	%rdi, %rdi
	je	.LBB68_4
# %bb.1:
	movq	-24(%rbp), %rax
	movq	48(%rax), %rax
	movq	%rax, -16(%rbp)
	testq	%rax, %rax
	je	.LBB68_4
# %bb.2:
	movq	-16(%rbp), %rax
	movq	(%rax), %rax
	cmpq	-24(%rbp), %rax
	je	.LBB68_6
.LBB68_4:
	movl	$-2, -4(%rbp)
.LBB68_13:
	movl	-4(%rbp), %eax
	addq	$32, %rsp
	popq	%rbp
	.cfi_def_cfa %rsp, 8
	retq
.LBB68_6:
	.cfi_def_cfa %rbp, 16
	movq	-16(%rbp), %rax
	cmpq	$0, 24(%rax)
	je	.LBB68_8
# %bb.7:
	movq	-24(%rbp), %rax
	movq	72(%rax), %rdi
	movq	-16(%rbp), %rcx
	movq	24(%rcx), %rsi
	callq	*64(%rax)
.LBB68_8:
	movq	-16(%rbp), %rax
	cmpq	$0, 32(%rax)
	je	.LBB68_10
# %bb.9:
	movq	-24(%rbp), %rax
	movq	72(%rax), %rdi
	movq	-16(%rbp), %rcx
	movq	32(%rcx), %rsi
	callq	*64(%rax)
.LBB68_10:
	movq	-16(%rbp), %rax
	cmpq	$0, 40(%rax)
	je	.LBB68_12
# %bb.11:
	movq	-24(%rbp), %rax
	movq	72(%rax), %rdi
	movq	-16(%rbp), %rcx
	movq	40(%rcx), %rsi
	callq	*64(%rax)
.LBB68_12:
	movq	-24(%rbp), %rax
	movq	48(%rax), %rsi
	movq	72(%rax), %rdi
	callq	*64(%rax)
	movq	-24(%rbp), %rax
	movq	$0, 48(%rax)
	movl	$0, -4(%rbp)
	jmp	.LBB68_13
.Lfunc_end68:
	.size	BZ2_bzCompressEnd, .Lfunc_end68-BZ2_bzCompressEnd
	.cfi_endproc
                                        # -- End function
	.globl	BZ2_bzDecompressInit            # -- Begin function BZ2_bzDecompressInit
	.p2align	4, 0x90
	.type	BZ2_bzDecompressInit,@function
BZ2_bzDecompressInit:                   # @BZ2_bzDecompressInit
	.cfi_startproc
# %bb.0:
	pushq	%rbp
	.cfi_def_cfa_offset 16
	.cfi_offset %rbp, -16
	movq	%rsp, %rbp
	.cfi_def_cfa_register %rbp
	subq	$32, %rsp
	movq	%rdi, -24(%rbp)
	movl	%esi, -32(%rbp)
	movl	%edx, -28(%rbp)
	callq	bz_config_ok
	testl	%eax, %eax
	je	.LBB69_5
# %bb.1:
	cmpq	$0, -24(%rbp)
	je	.LBB69_9
# %bb.2:
	cmpl	$0, -28(%rbp)
	je	.LBB69_6
# %bb.3:
	cmpl	$1, -28(%rbp)
	jne	.LBB69_9
.LBB69_6:
	cmpl	$0, -32(%rbp)
	js	.LBB69_9
# %bb.7:
	cmpl	$5, -32(%rbp)
	jl	.LBB69_11
.LBB69_9:
	movl	$-2, -4(%rbp)
	jmp	.LBB69_10
.LBB69_5:
	movl	$-9, -4(%rbp)
.LBB69_10:
	movl	-4(%rbp), %eax
	addq	$32, %rsp
	popq	%rbp
	.cfi_def_cfa %rsp, 8
	retq
.LBB69_11:
	.cfi_def_cfa %rbp, 16
	movq	-24(%rbp), %rax
	cmpq	$0, 56(%rax)
	jne	.LBB69_13
# %bb.12:
	movq	-24(%rbp), %rax
	movq	$default_bzalloc, 56(%rax)
.LBB69_13:
	movq	-24(%rbp), %rax
	cmpq	$0, 64(%rax)
	jne	.LBB69_15
# %bb.14:
	movq	-24(%rbp), %rax
	movq	$default_bzfree, 64(%rax)
.LBB69_15:
	movq	-24(%rbp), %rax
	movq	72(%rax), %rdi
	movl	$64144, %esi                    # imm = 0xFA90
	movl	$1, %edx
	callq	*56(%rax)
	movq	%rax, -16(%rbp)
	testq	%rax, %rax
	je	.LBB69_17
# %bb.16:
	movq	-24(%rbp), %rax
	movq	-16(%rbp), %rcx
	movq	%rax, (%rcx)
	movq	-16(%rbp), %rax
	movq	-24(%rbp), %rcx
	movq	%rax, 48(%rcx)
	movq	-16(%rbp), %rax
	movl	$10, 8(%rax)
	movq	-16(%rbp), %rax
	movl	$0, 36(%rax)
	movq	-16(%rbp), %rax
	movl	$0, 32(%rax)
	movq	-16(%rbp), %rax
	movl	$0, 3188(%rax)
	movq	-24(%rbp), %rax
	movl	$0, 12(%rax)
	movq	-24(%rbp), %rax
	movl	$0, 16(%rax)
	movq	-24(%rbp), %rax
	movl	$0, 36(%rax)
	movq	-24(%rbp), %rax
	movl	$0, 40(%rax)
	movb	-28(%rbp), %al
	movq	-16(%rbp), %rcx
	movb	%al, 44(%rcx)
	movq	-16(%rbp), %rax
	movq	$0, 3168(%rax)
	movq	-16(%rbp), %rax
	movq	$0, 3160(%rax)
	movq	-16(%rbp), %rax
	movq	$0, 3152(%rax)
	movq	-16(%rbp), %rax
	movl	$0, 48(%rax)
	movl	-32(%rbp), %eax
	movq	-16(%rbp), %rcx
	movl	%eax, 52(%rcx)
	movl	$0, -4(%rbp)
	jmp	.LBB69_10
.LBB69_17:
	movl	$-3, -4(%rbp)
	jmp	.LBB69_10
.Lfunc_end69:
	.size	BZ2_bzDecompressInit, .Lfunc_end69-BZ2_bzDecompressInit
	.cfi_endproc
                                        # -- End function
	.globl	BZ2_indexIntoF                  # -- Begin function BZ2_indexIntoF
	.p2align	4, 0x90
	.type	BZ2_indexIntoF,@function
BZ2_indexIntoF:                         # @BZ2_indexIntoF
	.cfi_startproc
# %bb.0:
	pushq	%rbp
	.cfi_def_cfa_offset 16
	.cfi_offset %rbp, -16
	movq	%rsp, %rbp
	.cfi_def_cfa_register %rbp
	movl	%edi, -16(%rbp)
	movq	%rsi, -24(%rbp)
	movl	$0, -4(%rbp)
	movl	$256, -8(%rbp)                  # imm = 0x100
	jmp	.LBB70_1
	.p2align	4, 0x90
.LBB70_3:                               #   in Loop: Header=BB70_1 Depth=1
	movl	-12(%rbp), %eax
	movl	%eax, -8(%rbp)
.LBB70_4:                               #   in Loop: Header=BB70_1 Depth=1
	movl	-8(%rbp), %eax
	subl	-4(%rbp), %eax
	cmpl	$1, %eax
	je	.LBB70_5
.LBB70_1:                               # =>This Inner Loop Header: Depth=1
	movl	-4(%rbp), %eax
	addl	-8(%rbp), %eax
	sarl	%eax
	movl	%eax, -12(%rbp)
	movl	-16(%rbp), %ecx
	movq	-24(%rbp), %rdx
	cltq
	cmpl	(%rdx,%rax,4), %ecx
	jl	.LBB70_3
# %bb.2:                                #   in Loop: Header=BB70_1 Depth=1
	movl	-12(%rbp), %eax
	movl	%eax, -4(%rbp)
	jmp	.LBB70_4
.LBB70_5:
	movl	-4(%rbp), %eax
	popq	%rbp
	.cfi_def_cfa %rsp, 8
	retq
.Lfunc_end70:
	.size	BZ2_indexIntoF, .Lfunc_end70-BZ2_indexIntoF
	.cfi_endproc
                                        # -- End function
	.globl	BZ2_bzDecompress                # -- Begin function BZ2_bzDecompress
	.p2align	4, 0x90
	.type	BZ2_bzDecompress,@function
BZ2_bzDecompress:                       # @BZ2_bzDecompress
	.cfi_startproc
# %bb.0:
	pushq	%rbp
	.cfi_def_cfa_offset 16
	.cfi_offset %rbp, -16
	movq	%rsp, %rbp
	.cfi_def_cfa_register %rbp
	subq	$32, %rsp
	movq	%rdi, -32(%rbp)
	testq	%rdi, %rdi
	je	.LBB71_23
# %bb.1:
	movq	-32(%rbp), %rax
	movq	48(%rax), %rax
	movq	%rax, -16(%rbp)
	testq	%rax, %rax
	je	.LBB71_23
# %bb.2:
	movq	-16(%rbp), %rax
	movq	(%rax), %rax
	cmpq	-32(%rbp), %rax
	je	.LBB71_20
.LBB71_23:
	movl	$-2, -20(%rbp)
.LBB71_24:
	movl	-20(%rbp), %eax
	addq	$32, %rsp
	popq	%rbp
	.cfi_def_cfa %rsp, 8
	retq
	.p2align	4, 0x90
.LBB71_4:                               #   in Loop: Header=BB71_20 Depth=1
	.cfi_def_cfa %rbp, 16
	movq	-16(%rbp), %rax
	cmpl	$2, 8(%rax)
	jne	.LBB71_17
# %bb.5:                                #   in Loop: Header=BB71_20 Depth=1
	movq	-16(%rbp), %rax
	cmpb	$0, 44(%rax)
	je	.LBB71_7
# %bb.6:                                #   in Loop: Header=BB71_20 Depth=1
	movq	-16(%rbp), %rdi
	callq	unRLE_obuf_to_output_SMALL
	jmp	.LBB71_8
.LBB71_7:                               #   in Loop: Header=BB71_20 Depth=1
	movq	-16(%rbp), %rdi
	callq	unRLE_obuf_to_output_FAST
.LBB71_8:                               #   in Loop: Header=BB71_20 Depth=1
	movb	%al, -1(%rbp)
	cmpb	$0, -1(%rbp)
	jne	.LBB71_26
# %bb.9:                                #   in Loop: Header=BB71_20 Depth=1
	movq	-16(%rbp), %rax
	movl	64080(%rax), %ecx
	addl	$1, %ecx
	cmpl	%ecx, 1092(%rax)
	jne	.LBB71_25
# %bb.10:                               #   in Loop: Header=BB71_20 Depth=1
	movq	-16(%rbp), %rax
	cmpl	$0, 16(%rax)
	jne	.LBB71_25
# %bb.11:                               #   in Loop: Header=BB71_20 Depth=1
	movq	-16(%rbp), %rax
	notl	3184(%rax)
	movq	-16(%rbp), %rax
	cmpl	$3, 52(%rax)
	jl	.LBB71_13
# %bb.12:                               #   in Loop: Header=BB71_20 Depth=1
	movq	stderr(%rip), %rdi
	movq	-16(%rbp), %rax
	movl	3176(%rax), %edx
	movl	3184(%rax), %ecx
	movl	$.L.str.2.108, %esi
	xorl	%eax, %eax
	callq	fprintf
.LBB71_13:                              #   in Loop: Header=BB71_20 Depth=1
	movq	-16(%rbp), %rax
	cmpl	$2, 52(%rax)
	jl	.LBB71_15
# %bb.14:                               #   in Loop: Header=BB71_20 Depth=1
	movq	stderr(%rip), %rdi
	movl	$.L.str.3.109, %esi
	xorl	%eax, %eax
	callq	fprintf
.LBB71_15:                              #   in Loop: Header=BB71_20 Depth=1
	movq	-16(%rbp), %rax
	movl	3184(%rax), %ecx
	cmpl	3176(%rax), %ecx
	jne	.LBB71_26
# %bb.16:                               #   in Loop: Header=BB71_20 Depth=1
	movq	-16(%rbp), %rax
	roll	3188(%rax)
	movq	-16(%rbp), %rax
	movl	3184(%rax), %ecx
	xorl	%ecx, 3188(%rax)
	movq	-16(%rbp), %rax
	movl	$14, 8(%rax)
.LBB71_17:                              #   in Loop: Header=BB71_20 Depth=1
	movq	-16(%rbp), %rax
	cmpl	$10, 8(%rax)
	jl	.LBB71_20
# %bb.18:                               #   in Loop: Header=BB71_20 Depth=1
	movq	-16(%rbp), %rdi
	callq	BZ2_decompress
	movl	%eax, -24(%rbp)
	cmpl	$4, %eax
	je	.LBB71_28
# %bb.19:                               #   in Loop: Header=BB71_20 Depth=1
	movq	-16(%rbp), %rax
	cmpl	$2, 8(%rax)
	jne	.LBB71_32
.LBB71_20:                              # =>This Inner Loop Header: Depth=1
	movq	-16(%rbp), %rax
	cmpl	$1, 8(%rax)
	jne	.LBB71_4
# %bb.21:
	movl	$-1, -20(%rbp)
	jmp	.LBB71_24
.LBB71_25:
	movl	$0, -20(%rbp)
	jmp	.LBB71_24
.LBB71_28:
	movq	-16(%rbp), %rax
	cmpl	$3, 52(%rax)
	jl	.LBB71_30
# %bb.29:
	movq	stderr(%rip), %rdi
	movq	-16(%rbp), %rax
	movl	3180(%rax), %edx
	movl	3188(%rax), %ecx
	movl	$.L.str.4.110, %esi
	xorl	%eax, %eax
	callq	fprintf
.LBB71_30:
	movq	-16(%rbp), %rax
	movl	3188(%rax), %ecx
	cmpl	3180(%rax), %ecx
	je	.LBB71_32
.LBB71_26:
	movl	$-4, -20(%rbp)
	jmp	.LBB71_24
.LBB71_32:
	movl	-24(%rbp), %eax
	movl	%eax, -20(%rbp)
	jmp	.LBB71_24
.Lfunc_end71:
	.size	BZ2_bzDecompress, .Lfunc_end71-BZ2_bzDecompress
	.cfi_endproc
                                        # -- End function
	.p2align	4, 0x90                         # -- Begin function unRLE_obuf_to_output_SMALL
	.type	unRLE_obuf_to_output_SMALL,@function
unRLE_obuf_to_output_SMALL:             # @unRLE_obuf_to_output_SMALL
	.cfi_startproc
# %bb.0:
	pushq	%rbp
	.cfi_def_cfa_offset 16
	.cfi_offset %rbp, -16
	movq	%rsp, %rbp
	.cfi_def_cfa_register %rbp
	subq	$32, %rsp
	movq	%rdi, -16(%rbp)
	cmpb	$0, 20(%rdi)
	je	.LBB72_32
	.p2align	4, 0x90
.LBB72_1:                               # =>This Inner Loop Header: Depth=1
	movq	-16(%rbp), %rax
	movq	(%rax), %rax
	cmpl	$0, 32(%rax)
	je	.LBB72_45
# %bb.2:                                #   in Loop: Header=BB72_1 Depth=1
	movq	-16(%rbp), %rax
	cmpl	$0, 16(%rax)
	je	.LBB72_5
# %bb.3:                                #   in Loop: Header=BB72_1 Depth=1
	movq	-16(%rbp), %rax
	movzbl	12(%rax), %ecx
	movq	(%rax), %rax
	movq	24(%rax), %rax
	movb	%cl, (%rax)
	movq	-16(%rbp), %rax
	movl	3184(%rax), %ecx
	movl	%ecx, %edx
	shll	$8, %edx
	shrl	$24, %ecx
	movzbl	12(%rax), %esi
	xorl	%ecx, %esi
	xorl	BZ2_crc32Table(,%rsi,4), %edx
	movl	%edx, 3184(%rax)
	movq	-16(%rbp), %rax
	addl	$-1, 16(%rax)
	movq	-16(%rbp), %rax
	movq	(%rax), %rax
	addq	$1, 24(%rax)
	movq	-16(%rbp), %rax
	movq	(%rax), %rax
	addl	$-1, 32(%rax)
	movq	-16(%rbp), %rax
	movq	(%rax), %rax
	addl	$1, 36(%rax)
	movq	-16(%rbp), %rax
	movq	(%rax), %rax
	cmpl	$0, 36(%rax)
	jne	.LBB72_1
# %bb.4:                                #   in Loop: Header=BB72_1 Depth=1
	movq	-16(%rbp), %rax
	movq	(%rax), %rax
	addl	$1, 40(%rax)
	jmp	.LBB72_1
.LBB72_5:                               #   in Loop: Header=BB72_1 Depth=1
	movq	-16(%rbp), %rax
	movl	64080(%rax), %ecx
	addl	$1, %ecx
	cmpl	%ecx, 1092(%rax)
	je	.LBB72_45
# %bb.6:                                #   in Loop: Header=BB72_1 Depth=1
	movq	-16(%rbp), %rax
	movl	64080(%rax), %ecx
	addl	$1, %ecx
	cmpl	%ecx, 1092(%rax)
	jg	.LBB72_47
# %bb.7:                                #   in Loop: Header=BB72_1 Depth=1
	movq	-16(%rbp), %rax
	movl	$1, 16(%rax)
	movq	-16(%rbp), %rax
	movzbl	64(%rax), %ecx
	movb	%cl, 12(%rax)
	movq	-16(%rbp), %rsi
	movl	60(%rsi), %edi
	addq	$1096, %rsi                     # imm = 0x448
	callq	BZ2_indexIntoF
	movb	%al, -1(%rbp)
	movq	-16(%rbp), %rax
	movl	60(%rax), %edx
	movq	3168(%rax), %rsi
	leal	(,%rdx,4), %ecx
	movq	%rdx, %rdi
	shrq	%rdi
	movzbl	(%rsi,%rdi), %esi
	movq	3160(%rax), %rdi
	andb	$4, %cl
                                        # kill: def $cl killed $cl killed $ecx
	shrl	%cl, %esi
	movzwl	(%rdi,%rdx,2), %ecx
	andl	$15, %esi
	shll	$16, %esi
	orl	%ecx, %esi
	movl	%esi, 60(%rax)
	movq	-16(%rbp), %rax
	cmpl	$0, 24(%rax)
	jne	.LBB72_10
# %bb.8:                                #   in Loop: Header=BB72_1 Depth=1
	movq	-16(%rbp), %rax
	movslq	28(%rax), %rcx
	movl	BZ2_rNums(,%rcx,4), %ecx
	movl	%ecx, 24(%rax)
	movq	-16(%rbp), %rax
	addl	$1, 28(%rax)
	movq	-16(%rbp), %rax
	cmpl	$512, 28(%rax)                  # imm = 0x200
	jne	.LBB72_10
# %bb.9:                                #   in Loop: Header=BB72_1 Depth=1
	movq	-16(%rbp), %rax
	movl	$0, 28(%rax)
.LBB72_10:                              #   in Loop: Header=BB72_1 Depth=1
	movq	-16(%rbp), %rax
	addl	$-1, 24(%rax)
	movq	-16(%rbp), %rax
	xorl	%ecx, %ecx
	cmpl	$1, 24(%rax)
	sete	%cl
	movzbl	-1(%rbp), %edx
	xorl	%ecx, %edx
	movb	%dl, -1(%rbp)
	addl	$1, 1092(%rax)
	movq	-16(%rbp), %rax
	movl	64080(%rax), %ecx
	addl	$1, %ecx
	cmpl	%ecx, 1092(%rax)
	je	.LBB72_1
# %bb.11:                               #   in Loop: Header=BB72_1 Depth=1
	movzbl	-1(%rbp), %eax
	movq	-16(%rbp), %rcx
	cmpl	64(%rcx), %eax
	je	.LBB72_13
.LBB72_12:                              #   in Loop: Header=BB72_1 Depth=1
	movzbl	-1(%rbp), %eax
	movq	-16(%rbp), %rcx
	movl	%eax, 64(%rcx)
	jmp	.LBB72_1
.LBB72_13:                              #   in Loop: Header=BB72_1 Depth=1
	movq	-16(%rbp), %rax
	movl	$2, 16(%rax)
	movq	-16(%rbp), %rsi
	movl	60(%rsi), %edi
	addq	$1096, %rsi                     # imm = 0x448
	callq	BZ2_indexIntoF
	movb	%al, -1(%rbp)
	movq	-16(%rbp), %rax
	movl	60(%rax), %edx
	movq	3168(%rax), %rsi
	leal	(,%rdx,4), %ecx
	movq	%rdx, %rdi
	shrq	%rdi
	movzbl	(%rsi,%rdi), %esi
	movq	3160(%rax), %rdi
	andb	$4, %cl
                                        # kill: def $cl killed $cl killed $ecx
	shrl	%cl, %esi
	movzwl	(%rdi,%rdx,2), %ecx
	andl	$15, %esi
	shll	$16, %esi
	orl	%ecx, %esi
	movl	%esi, 60(%rax)
	movq	-16(%rbp), %rax
	cmpl	$0, 24(%rax)
	jne	.LBB72_16
# %bb.14:                               #   in Loop: Header=BB72_1 Depth=1
	movq	-16(%rbp), %rax
	movslq	28(%rax), %rcx
	movl	BZ2_rNums(,%rcx,4), %ecx
	movl	%ecx, 24(%rax)
	movq	-16(%rbp), %rax
	addl	$1, 28(%rax)
	movq	-16(%rbp), %rax
	cmpl	$512, 28(%rax)                  # imm = 0x200
	jne	.LBB72_16
# %bb.15:                               #   in Loop: Header=BB72_1 Depth=1
	movq	-16(%rbp), %rax
	movl	$0, 28(%rax)
.LBB72_16:                              #   in Loop: Header=BB72_1 Depth=1
	movq	-16(%rbp), %rax
	addl	$-1, 24(%rax)
	movq	-16(%rbp), %rax
	xorl	%ecx, %ecx
	cmpl	$1, 24(%rax)
	sete	%cl
	movzbl	-1(%rbp), %edx
	xorl	%ecx, %edx
	movb	%dl, -1(%rbp)
	addl	$1, 1092(%rax)
	movq	-16(%rbp), %rax
	movl	64080(%rax), %ecx
	addl	$1, %ecx
	cmpl	%ecx, 1092(%rax)
	je	.LBB72_1
# %bb.17:                               #   in Loop: Header=BB72_1 Depth=1
	movzbl	-1(%rbp), %eax
	movq	-16(%rbp), %rcx
	cmpl	64(%rcx), %eax
	jne	.LBB72_12
# %bb.18:                               #   in Loop: Header=BB72_1 Depth=1
	movq	-16(%rbp), %rax
	movl	$3, 16(%rax)
	movq	-16(%rbp), %rsi
	movl	60(%rsi), %edi
	addq	$1096, %rsi                     # imm = 0x448
	callq	BZ2_indexIntoF
	movb	%al, -1(%rbp)
	movq	-16(%rbp), %rax
	movl	60(%rax), %edx
	movq	3168(%rax), %rsi
	leal	(,%rdx,4), %ecx
	movq	%rdx, %rdi
	shrq	%rdi
	movzbl	(%rsi,%rdi), %esi
	movq	3160(%rax), %rdi
	andb	$4, %cl
                                        # kill: def $cl killed $cl killed $ecx
	shrl	%cl, %esi
	movzwl	(%rdi,%rdx,2), %ecx
	andl	$15, %esi
	shll	$16, %esi
	orl	%ecx, %esi
	movl	%esi, 60(%rax)
	movq	-16(%rbp), %rax
	cmpl	$0, 24(%rax)
	jne	.LBB72_21
# %bb.19:                               #   in Loop: Header=BB72_1 Depth=1
	movq	-16(%rbp), %rax
	movslq	28(%rax), %rcx
	movl	BZ2_rNums(,%rcx,4), %ecx
	movl	%ecx, 24(%rax)
	movq	-16(%rbp), %rax
	addl	$1, 28(%rax)
	movq	-16(%rbp), %rax
	cmpl	$512, 28(%rax)                  # imm = 0x200
	jne	.LBB72_21
# %bb.20:                               #   in Loop: Header=BB72_1 Depth=1
	movq	-16(%rbp), %rax
	movl	$0, 28(%rax)
.LBB72_21:                              #   in Loop: Header=BB72_1 Depth=1
	movq	-16(%rbp), %rax
	addl	$-1, 24(%rax)
	movq	-16(%rbp), %rax
	xorl	%ecx, %ecx
	cmpl	$1, 24(%rax)
	sete	%cl
	movzbl	-1(%rbp), %edx
	xorl	%ecx, %edx
	movb	%dl, -1(%rbp)
	addl	$1, 1092(%rax)
	movq	-16(%rbp), %rax
	movl	64080(%rax), %ecx
	addl	$1, %ecx
	cmpl	%ecx, 1092(%rax)
	je	.LBB72_1
# %bb.22:                               #   in Loop: Header=BB72_1 Depth=1
	movzbl	-1(%rbp), %eax
	movq	-16(%rbp), %rcx
	cmpl	64(%rcx), %eax
	jne	.LBB72_12
# %bb.23:                               #   in Loop: Header=BB72_1 Depth=1
	movq	-16(%rbp), %rsi
	movl	60(%rsi), %edi
	addq	$1096, %rsi                     # imm = 0x448
	callq	BZ2_indexIntoF
	movb	%al, -1(%rbp)
	movq	-16(%rbp), %rax
	movl	60(%rax), %edx
	movq	3168(%rax), %rsi
	leal	(,%rdx,4), %ecx
	movq	%rdx, %rdi
	shrq	%rdi
	movzbl	(%rsi,%rdi), %esi
	movq	3160(%rax), %rdi
	andb	$4, %cl
                                        # kill: def $cl killed $cl killed $ecx
	shrl	%cl, %esi
	movzwl	(%rdi,%rdx,2), %ecx
	andl	$15, %esi
	shll	$16, %esi
	orl	%ecx, %esi
	movl	%esi, 60(%rax)
	movq	-16(%rbp), %rax
	cmpl	$0, 24(%rax)
	jne	.LBB72_26
# %bb.24:                               #   in Loop: Header=BB72_1 Depth=1
	movq	-16(%rbp), %rax
	movslq	28(%rax), %rcx
	movl	BZ2_rNums(,%rcx,4), %ecx
	movl	%ecx, 24(%rax)
	movq	-16(%rbp), %rax
	addl	$1, 28(%rax)
	movq	-16(%rbp), %rax
	cmpl	$512, 28(%rax)                  # imm = 0x200
	jne	.LBB72_26
# %bb.25:                               #   in Loop: Header=BB72_1 Depth=1
	movq	-16(%rbp), %rax
	movl	$0, 28(%rax)
.LBB72_26:                              #   in Loop: Header=BB72_1 Depth=1
	movq	-16(%rbp), %rax
	addl	$-1, 24(%rax)
	movq	-16(%rbp), %rax
	xorl	%ecx, %ecx
	cmpl	$1, 24(%rax)
	sete	%cl
	movzbl	-1(%rbp), %edx
	xorl	%ecx, %edx
	movb	%dl, -1(%rbp)
	addl	$1, 1092(%rax)
	movzbl	-1(%rbp), %eax
	addl	$4, %eax
	movq	-16(%rbp), %rcx
	movl	%eax, 16(%rcx)
	movq	-16(%rbp), %rsi
	movl	60(%rsi), %edi
	addq	$1096, %rsi                     # imm = 0x448
	callq	BZ2_indexIntoF
	movq	-16(%rbp), %rcx
	movl	%eax, 64(%rcx)
	movq	-16(%rbp), %rax
	movl	60(%rax), %edx
	movq	3168(%rax), %rsi
	leal	(,%rdx,4), %ecx
	movq	%rdx, %rdi
	shrq	%rdi
	movzbl	(%rsi,%rdi), %esi
	movq	3160(%rax), %rdi
	andb	$4, %cl
                                        # kill: def $cl killed $cl killed $ecx
	shrl	%cl, %esi
	movzwl	(%rdi,%rdx,2), %ecx
	andl	$15, %esi
	shll	$16, %esi
	orl	%ecx, %esi
	movl	%esi, 60(%rax)
	movq	-16(%rbp), %rax
	cmpl	$0, 24(%rax)
	jne	.LBB72_29
# %bb.27:                               #   in Loop: Header=BB72_1 Depth=1
	movq	-16(%rbp), %rax
	movslq	28(%rax), %rcx
	movl	BZ2_rNums(,%rcx,4), %ecx
	movl	%ecx, 24(%rax)
	movq	-16(%rbp), %rax
	addl	$1, 28(%rax)
	movq	-16(%rbp), %rax
	cmpl	$512, 28(%rax)                  # imm = 0x200
	jne	.LBB72_29
# %bb.28:                               #   in Loop: Header=BB72_1 Depth=1
	movq	-16(%rbp), %rax
	movl	$0, 28(%rax)
.LBB72_29:                              #   in Loop: Header=BB72_1 Depth=1
	movq	-16(%rbp), %rax
	addl	$-1, 24(%rax)
	movq	-16(%rbp), %rax
	xorl	%ecx, %ecx
	cmpl	$1, 24(%rax)
	sete	%cl
	xorl	%ecx, 64(%rax)
	movq	-16(%rbp), %rax
	addl	$1, 1092(%rax)
	jmp	.LBB72_1
.LBB72_31:                              #   in Loop: Header=BB72_32 Depth=1
	movzbl	-1(%rbp), %eax
	movq	-16(%rbp), %rcx
	movl	%eax, 64(%rcx)
	.p2align	4, 0x90
.LBB72_32:                              # =>This Inner Loop Header: Depth=1
	movq	-16(%rbp), %rax
	movq	(%rax), %rax
	cmpl	$0, 32(%rax)
	je	.LBB72_45
# %bb.33:                               #   in Loop: Header=BB72_32 Depth=1
	movq	-16(%rbp), %rax
	cmpl	$0, 16(%rax)
	je	.LBB72_36
# %bb.34:                               #   in Loop: Header=BB72_32 Depth=1
	movq	-16(%rbp), %rax
	movzbl	12(%rax), %ecx
	movq	(%rax), %rax
	movq	24(%rax), %rax
	movb	%cl, (%rax)
	movq	-16(%rbp), %rax
	movl	3184(%rax), %ecx
	movl	%ecx, %edx
	shll	$8, %edx
	shrl	$24, %ecx
	movzbl	12(%rax), %esi
	xorl	%ecx, %esi
	xorl	BZ2_crc32Table(,%rsi,4), %edx
	movl	%edx, 3184(%rax)
	movq	-16(%rbp), %rax
	addl	$-1, 16(%rax)
	movq	-16(%rbp), %rax
	movq	(%rax), %rax
	addq	$1, 24(%rax)
	movq	-16(%rbp), %rax
	movq	(%rax), %rax
	addl	$-1, 32(%rax)
	movq	-16(%rbp), %rax
	movq	(%rax), %rax
	addl	$1, 36(%rax)
	movq	-16(%rbp), %rax
	movq	(%rax), %rax
	cmpl	$0, 36(%rax)
	jne	.LBB72_32
# %bb.35:                               #   in Loop: Header=BB72_32 Depth=1
	movq	-16(%rbp), %rax
	movq	(%rax), %rax
	addl	$1, 40(%rax)
	jmp	.LBB72_32
.LBB72_36:                              #   in Loop: Header=BB72_32 Depth=1
	movq	-16(%rbp), %rax
	movl	64080(%rax), %ecx
	addl	$1, %ecx
	cmpl	%ecx, 1092(%rax)
	je	.LBB72_45
# %bb.37:                               #   in Loop: Header=BB72_32 Depth=1
	movq	-16(%rbp), %rax
	movl	64080(%rax), %ecx
	addl	$1, %ecx
	cmpl	%ecx, 1092(%rax)
	jg	.LBB72_47
# %bb.38:                               #   in Loop: Header=BB72_32 Depth=1
	movq	-16(%rbp), %rax
	movl	$1, 16(%rax)
	movq	-16(%rbp), %rax
	movzbl	64(%rax), %ecx
	movb	%cl, 12(%rax)
	movq	-16(%rbp), %rsi
	movl	60(%rsi), %edi
	addq	$1096, %rsi                     # imm = 0x448
	callq	BZ2_indexIntoF
	movb	%al, -1(%rbp)
	movq	-16(%rbp), %rax
	movq	3160(%rax), %rcx
	movl	60(%rax), %edx
	movzwl	(%rcx,%rdx,2), %esi
	movq	3168(%rax), %rdi
	leal	(,%rdx,4), %ecx
	shrq	%rdx
	movzbl	(%rdi,%rdx), %edx
	andb	$4, %cl
                                        # kill: def $cl killed $cl killed $ecx
	shrl	%cl, %edx
	andl	$15, %edx
	shll	$16, %edx
	orl	%esi, %edx
	movl	%edx, 60(%rax)
	movq	-16(%rbp), %rax
	addl	$1, 1092(%rax)
	movq	-16(%rbp), %rax
	movl	64080(%rax), %ecx
	addl	$1, %ecx
	cmpl	%ecx, 1092(%rax)
	je	.LBB72_32
# %bb.39:                               #   in Loop: Header=BB72_32 Depth=1
	movzbl	-1(%rbp), %eax
	movq	-16(%rbp), %rcx
	cmpl	64(%rcx), %eax
	jne	.LBB72_31
# %bb.40:                               #   in Loop: Header=BB72_32 Depth=1
	movq	-16(%rbp), %rax
	movl	$2, 16(%rax)
	movq	-16(%rbp), %rsi
	movl	60(%rsi), %edi
	addq	$1096, %rsi                     # imm = 0x448
	callq	BZ2_indexIntoF
	movb	%al, -1(%rbp)
	movq	-16(%rbp), %rax
	movq	3160(%rax), %rcx
	movl	60(%rax), %edx
	movzwl	(%rcx,%rdx,2), %esi
	movq	3168(%rax), %rdi
	leal	(,%rdx,4), %ecx
	shrq	%rdx
	movzbl	(%rdi,%rdx), %edx
	andb	$4, %cl
                                        # kill: def $cl killed $cl killed $ecx
	shrl	%cl, %edx
	andl	$15, %edx
	shll	$16, %edx
	orl	%esi, %edx
	movl	%edx, 60(%rax)
	movq	-16(%rbp), %rax
	addl	$1, 1092(%rax)
	movq	-16(%rbp), %rax
	movl	64080(%rax), %ecx
	addl	$1, %ecx
	cmpl	%ecx, 1092(%rax)
	je	.LBB72_32
# %bb.41:                               #   in Loop: Header=BB72_32 Depth=1
	movzbl	-1(%rbp), %eax
	movq	-16(%rbp), %rcx
	cmpl	64(%rcx), %eax
	jne	.LBB72_31
# %bb.42:                               #   in Loop: Header=BB72_32 Depth=1
	movq	-16(%rbp), %rax
	movl	$3, 16(%rax)
	movq	-16(%rbp), %rsi
	movl	60(%rsi), %edi
	addq	$1096, %rsi                     # imm = 0x448
	callq	BZ2_indexIntoF
	movb	%al, -1(%rbp)
	movq	-16(%rbp), %rax
	movq	3160(%rax), %rcx
	movl	60(%rax), %edx
	movzwl	(%rcx,%rdx,2), %esi
	movq	3168(%rax), %rdi
	leal	(,%rdx,4), %ecx
	shrq	%rdx
	movzbl	(%rdi,%rdx), %edx
	andb	$4, %cl
                                        # kill: def $cl killed $cl killed $ecx
	shrl	%cl, %edx
	andl	$15, %edx
	shll	$16, %edx
	orl	%esi, %edx
	movl	%edx, 60(%rax)
	movq	-16(%rbp), %rax
	addl	$1, 1092(%rax)
	movq	-16(%rbp), %rax
	movl	64080(%rax), %ecx
	addl	$1, %ecx
	cmpl	%ecx, 1092(%rax)
	je	.LBB72_32
# %bb.43:                               #   in Loop: Header=BB72_32 Depth=1
	movzbl	-1(%rbp), %eax
	movq	-16(%rbp), %rcx
	cmpl	64(%rcx), %eax
	jne	.LBB72_31
# %bb.44:                               #   in Loop: Header=BB72_32 Depth=1
	movq	-16(%rbp), %rsi
	movl	60(%rsi), %edi
	addq	$1096, %rsi                     # imm = 0x448
	callq	BZ2_indexIntoF
	movb	%al, -1(%rbp)
	movq	-16(%rbp), %rax
	movq	3160(%rax), %rcx
	movl	60(%rax), %edx
	movzwl	(%rcx,%rdx,2), %esi
	movq	3168(%rax), %rdi
	leal	(,%rdx,4), %ecx
	shrq	%rdx
	movzbl	(%rdi,%rdx), %edx
	andb	$4, %cl
                                        # kill: def $cl killed $cl killed $ecx
	shrl	%cl, %edx
	andl	$15, %edx
	shll	$16, %edx
	orl	%esi, %edx
	movl	%edx, 60(%rax)
	movq	-16(%rbp), %rax
	addl	$1, 1092(%rax)
	movzbl	-1(%rbp), %eax
	addl	$4, %eax
	movq	-16(%rbp), %rcx
	movl	%eax, 16(%rcx)
	movq	-16(%rbp), %rsi
	movl	60(%rsi), %edi
	addq	$1096, %rsi                     # imm = 0x448
	callq	BZ2_indexIntoF
	movq	-16(%rbp), %rcx
	movl	%eax, 64(%rcx)
	movq	-16(%rbp), %rax
	movq	3160(%rax), %rcx
	movl	60(%rax), %edx
	movzwl	(%rcx,%rdx,2), %esi
	movq	3168(%rax), %rdi
	leal	(,%rdx,4), %ecx
	shrq	%rdx
	movzbl	(%rdi,%rdx), %edx
	andb	$4, %cl
                                        # kill: def $cl killed $cl killed $ecx
	shrl	%cl, %edx
	andl	$15, %edx
	shll	$16, %edx
	orl	%esi, %edx
	movl	%edx, 60(%rax)
	movq	-16(%rbp), %rax
	addl	$1, 1092(%rax)
	jmp	.LBB72_32
.LBB72_45:
	movb	$0, -17(%rbp)
.LBB72_46:
	movb	-17(%rbp), %al
	addq	$32, %rsp
	popq	%rbp
	.cfi_def_cfa %rsp, 8
	retq
.LBB72_47:
	.cfi_def_cfa %rbp, 16
	movb	$1, -17(%rbp)
	jmp	.LBB72_46
.Lfunc_end72:
	.size	unRLE_obuf_to_output_SMALL, .Lfunc_end72-unRLE_obuf_to_output_SMALL
	.cfi_endproc
                                        # -- End function
	.p2align	4, 0x90                         # -- Begin function unRLE_obuf_to_output_FAST
	.type	unRLE_obuf_to_output_FAST,@function
unRLE_obuf_to_output_FAST:              # @unRLE_obuf_to_output_FAST
	.cfi_startproc
# %bb.0:
	pushq	%rbp
	.cfi_def_cfa_offset 16
	.cfi_offset %rbp, -16
	movq	%rsp, %rbp
	.cfi_def_cfa_register %rbp
	movq	%rdi, -16(%rbp)
	cmpb	$0, 20(%rdi)
	je	.LBB73_30
	.p2align	4, 0x90
.LBB73_1:                               # =>This Inner Loop Header: Depth=1
	movq	-16(%rbp), %rax
	movq	(%rax), %rax
	cmpl	$0, 32(%rax)
	je	.LBB73_46
# %bb.2:                                #   in Loop: Header=BB73_1 Depth=1
	movq	-16(%rbp), %rax
	cmpl	$0, 16(%rax)
	je	.LBB73_3
# %bb.11:                               #   in Loop: Header=BB73_1 Depth=1
	movq	-16(%rbp), %rax
	movzbl	12(%rax), %ecx
	movq	(%rax), %rax
	movq	24(%rax), %rax
	movb	%cl, (%rax)
	movq	-16(%rbp), %rax
	movl	3184(%rax), %ecx
	movl	%ecx, %edx
	shll	$8, %edx
	shrl	$24, %ecx
	movzbl	12(%rax), %esi
	xorl	%ecx, %esi
	xorl	BZ2_crc32Table(,%rsi,4), %edx
	movl	%edx, 3184(%rax)
	movq	-16(%rbp), %rax
	addl	$-1, 16(%rax)
	movq	-16(%rbp), %rax
	movq	(%rax), %rax
	addq	$1, 24(%rax)
	movq	-16(%rbp), %rax
	movq	(%rax), %rax
	addl	$-1, 32(%rax)
	movq	-16(%rbp), %rax
	movq	(%rax), %rax
	addl	$1, 36(%rax)
	movq	-16(%rbp), %rax
	movq	(%rax), %rax
	cmpl	$0, 36(%rax)
	jne	.LBB73_1
# %bb.12:                               #   in Loop: Header=BB73_1 Depth=1
	movq	-16(%rbp), %rax
	movq	(%rax), %rax
	addl	$1, 40(%rax)
	jmp	.LBB73_1
.LBB73_3:                               #   in Loop: Header=BB73_1 Depth=1
	movq	-16(%rbp), %rax
	movl	64080(%rax), %ecx
	addl	$1, %ecx
	cmpl	%ecx, 1092(%rax)
	je	.LBB73_46
# %bb.4:                                #   in Loop: Header=BB73_1 Depth=1
	movq	-16(%rbp), %rax
	movl	64080(%rax), %ecx
	addl	$1, %ecx
	cmpl	%ecx, 1092(%rax)
	jg	.LBB73_39
# %bb.5:                                #   in Loop: Header=BB73_1 Depth=1
	movq	-16(%rbp), %rax
	movl	$1, 16(%rax)
	movq	-16(%rbp), %rax
	movzbl	64(%rax), %ecx
	movb	%cl, 12(%rax)
	movq	-16(%rbp), %rax
	movq	3152(%rax), %rcx
	movl	60(%rax), %edx
	movl	(%rcx,%rdx,4), %ecx
	movl	%ecx, 60(%rax)
	movq	-16(%rbp), %rax
	movzbl	60(%rax), %ecx
	movb	%cl, -1(%rbp)
	shrl	$8, 60(%rax)
	movq	-16(%rbp), %rax
	cmpl	$0, 24(%rax)
	jne	.LBB73_8
# %bb.6:                                #   in Loop: Header=BB73_1 Depth=1
	movq	-16(%rbp), %rax
	movslq	28(%rax), %rcx
	movl	BZ2_rNums(,%rcx,4), %ecx
	movl	%ecx, 24(%rax)
	movq	-16(%rbp), %rax
	addl	$1, 28(%rax)
	movq	-16(%rbp), %rax
	cmpl	$512, 28(%rax)                  # imm = 0x200
	jne	.LBB73_8
# %bb.7:                                #   in Loop: Header=BB73_1 Depth=1
	movq	-16(%rbp), %rax
	movl	$0, 28(%rax)
.LBB73_8:                               #   in Loop: Header=BB73_1 Depth=1
	movq	-16(%rbp), %rax
	addl	$-1, 24(%rax)
	movq	-16(%rbp), %rax
	xorl	%ecx, %ecx
	cmpl	$1, 24(%rax)
	sete	%cl
	movzbl	-1(%rbp), %edx
	xorl	%ecx, %edx
	movb	%dl, -1(%rbp)
	addl	$1, 1092(%rax)
	movq	-16(%rbp), %rax
	movl	64080(%rax), %ecx
	addl	$1, %ecx
	cmpl	%ecx, 1092(%rax)
	je	.LBB73_1
# %bb.9:                                #   in Loop: Header=BB73_1 Depth=1
	movzbl	-1(%rbp), %eax
	movq	-16(%rbp), %rcx
	cmpl	64(%rcx), %eax
	je	.LBB73_13
.LBB73_10:                              #   in Loop: Header=BB73_1 Depth=1
	movzbl	-1(%rbp), %eax
	movq	-16(%rbp), %rcx
	movl	%eax, 64(%rcx)
	jmp	.LBB73_1
.LBB73_13:                              #   in Loop: Header=BB73_1 Depth=1
	movq	-16(%rbp), %rax
	movl	$2, 16(%rax)
	movq	-16(%rbp), %rax
	movq	3152(%rax), %rcx
	movl	60(%rax), %edx
	movl	(%rcx,%rdx,4), %ecx
	movl	%ecx, 60(%rax)
	movq	-16(%rbp), %rax
	movzbl	60(%rax), %ecx
	movb	%cl, -1(%rbp)
	shrl	$8, 60(%rax)
	movq	-16(%rbp), %rax
	cmpl	$0, 24(%rax)
	jne	.LBB73_16
# %bb.14:                               #   in Loop: Header=BB73_1 Depth=1
	movq	-16(%rbp), %rax
	movslq	28(%rax), %rcx
	movl	BZ2_rNums(,%rcx,4), %ecx
	movl	%ecx, 24(%rax)
	movq	-16(%rbp), %rax
	addl	$1, 28(%rax)
	movq	-16(%rbp), %rax
	cmpl	$512, 28(%rax)                  # imm = 0x200
	jne	.LBB73_16
# %bb.15:                               #   in Loop: Header=BB73_1 Depth=1
	movq	-16(%rbp), %rax
	movl	$0, 28(%rax)
.LBB73_16:                              #   in Loop: Header=BB73_1 Depth=1
	movq	-16(%rbp), %rax
	addl	$-1, 24(%rax)
	movq	-16(%rbp), %rax
	xorl	%ecx, %ecx
	cmpl	$1, 24(%rax)
	sete	%cl
	movzbl	-1(%rbp), %edx
	xorl	%ecx, %edx
	movb	%dl, -1(%rbp)
	addl	$1, 1092(%rax)
	movq	-16(%rbp), %rax
	movl	64080(%rax), %ecx
	addl	$1, %ecx
	cmpl	%ecx, 1092(%rax)
	je	.LBB73_1
# %bb.17:                               #   in Loop: Header=BB73_1 Depth=1
	movzbl	-1(%rbp), %eax
	movq	-16(%rbp), %rcx
	cmpl	64(%rcx), %eax
	jne	.LBB73_10
# %bb.18:                               #   in Loop: Header=BB73_1 Depth=1
	movq	-16(%rbp), %rax
	movl	$3, 16(%rax)
	movq	-16(%rbp), %rax
	movq	3152(%rax), %rcx
	movl	60(%rax), %edx
	movl	(%rcx,%rdx,4), %ecx
	movl	%ecx, 60(%rax)
	movq	-16(%rbp), %rax
	movzbl	60(%rax), %ecx
	movb	%cl, -1(%rbp)
	shrl	$8, 60(%rax)
	movq	-16(%rbp), %rax
	cmpl	$0, 24(%rax)
	jne	.LBB73_21
# %bb.19:                               #   in Loop: Header=BB73_1 Depth=1
	movq	-16(%rbp), %rax
	movslq	28(%rax), %rcx
	movl	BZ2_rNums(,%rcx,4), %ecx
	movl	%ecx, 24(%rax)
	movq	-16(%rbp), %rax
	addl	$1, 28(%rax)
	movq	-16(%rbp), %rax
	cmpl	$512, 28(%rax)                  # imm = 0x200
	jne	.LBB73_21
# %bb.20:                               #   in Loop: Header=BB73_1 Depth=1
	movq	-16(%rbp), %rax
	movl	$0, 28(%rax)
.LBB73_21:                              #   in Loop: Header=BB73_1 Depth=1
	movq	-16(%rbp), %rax
	addl	$-1, 24(%rax)
	movq	-16(%rbp), %rax
	xorl	%ecx, %ecx
	cmpl	$1, 24(%rax)
	sete	%cl
	movzbl	-1(%rbp), %edx
	xorl	%ecx, %edx
	movb	%dl, -1(%rbp)
	addl	$1, 1092(%rax)
	movq	-16(%rbp), %rax
	movl	64080(%rax), %ecx
	addl	$1, %ecx
	cmpl	%ecx, 1092(%rax)
	je	.LBB73_1
# %bb.22:                               #   in Loop: Header=BB73_1 Depth=1
	movzbl	-1(%rbp), %eax
	movq	-16(%rbp), %rcx
	cmpl	64(%rcx), %eax
	jne	.LBB73_10
# %bb.23:                               #   in Loop: Header=BB73_1 Depth=1
	movq	-16(%rbp), %rax
	movq	3152(%rax), %rcx
	movl	60(%rax), %edx
	movl	(%rcx,%rdx,4), %ecx
	movl	%ecx, 60(%rax)
	movq	-16(%rbp), %rax
	movzbl	60(%rax), %ecx
	movb	%cl, -1(%rbp)
	shrl	$8, 60(%rax)
	movq	-16(%rbp), %rax
	cmpl	$0, 24(%rax)
	jne	.LBB73_26
# %bb.24:                               #   in Loop: Header=BB73_1 Depth=1
	movq	-16(%rbp), %rax
	movslq	28(%rax), %rcx
	movl	BZ2_rNums(,%rcx,4), %ecx
	movl	%ecx, 24(%rax)
	movq	-16(%rbp), %rax
	addl	$1, 28(%rax)
	movq	-16(%rbp), %rax
	cmpl	$512, 28(%rax)                  # imm = 0x200
	jne	.LBB73_26
# %bb.25:                               #   in Loop: Header=BB73_1 Depth=1
	movq	-16(%rbp), %rax
	movl	$0, 28(%rax)
.LBB73_26:                              #   in Loop: Header=BB73_1 Depth=1
	movq	-16(%rbp), %rax
	addl	$-1, 24(%rax)
	movq	-16(%rbp), %rax
	xorl	%ecx, %ecx
	cmpl	$1, 24(%rax)
	sete	%cl
	movzbl	-1(%rbp), %edx
	xorl	%ecx, %edx
	movb	%dl, -1(%rbp)
	addl	$1, 1092(%rax)
	movzbl	-1(%rbp), %eax
	addl	$4, %eax
	movq	-16(%rbp), %rcx
	movl	%eax, 16(%rcx)
	movq	-16(%rbp), %rax
	movq	3152(%rax), %rcx
	movl	60(%rax), %edx
	movl	(%rcx,%rdx,4), %ecx
	movl	%ecx, 60(%rax)
	movq	-16(%rbp), %rax
	movzbl	60(%rax), %ecx
	movl	%ecx, 64(%rax)
	movq	-16(%rbp), %rax
	shrl	$8, 60(%rax)
	movq	-16(%rbp), %rax
	cmpl	$0, 24(%rax)
	jne	.LBB73_29
# %bb.27:                               #   in Loop: Header=BB73_1 Depth=1
	movq	-16(%rbp), %rax
	movslq	28(%rax), %rcx
	movl	BZ2_rNums(,%rcx,4), %ecx
	movl	%ecx, 24(%rax)
	movq	-16(%rbp), %rax
	addl	$1, 28(%rax)
	movq	-16(%rbp), %rax
	cmpl	$512, 28(%rax)                  # imm = 0x200
	jne	.LBB73_29
# %bb.28:                               #   in Loop: Header=BB73_1 Depth=1
	movq	-16(%rbp), %rax
	movl	$0, 28(%rax)
.LBB73_29:                              #   in Loop: Header=BB73_1 Depth=1
	movq	-16(%rbp), %rax
	addl	$-1, 24(%rax)
	movq	-16(%rbp), %rax
	xorl	%ecx, %ecx
	cmpl	$1, 24(%rax)
	sete	%cl
	xorl	%ecx, 64(%rax)
	movq	-16(%rbp), %rax
	addl	$1, 1092(%rax)
	jmp	.LBB73_1
.LBB73_30:
	movq	-16(%rbp), %rax
	movl	3184(%rax), %ecx
	movl	%ecx, -48(%rbp)
	movb	12(%rax), %cl
	movb	%cl, -17(%rbp)
	movl	16(%rax), %ecx
	movl	%ecx, -32(%rbp)
	movl	1092(%rax), %ecx
	movl	%ecx, -24(%rbp)
	movl	64(%rax), %ecx
	movl	%ecx, -36(%rbp)
	movq	3152(%rax), %rcx
	movq	%rcx, -64(%rbp)
	movl	60(%rax), %ecx
	movl	%ecx, -28(%rbp)
	movq	(%rax), %rax
	movq	24(%rax), %rax
	movq	%rax, -56(%rbp)
	movq	-16(%rbp), %rax
	movq	(%rax), %rax
	movl	32(%rax), %eax
	movl	%eax, -40(%rbp)
	movl	%eax, -72(%rbp)
	movq	-16(%rbp), %rax
	movl	64080(%rax), %eax
	addl	$1, %eax
	movl	%eax, -44(%rbp)
.LBB73_31:                              # =>This Loop Header: Depth=1
                                        #     Child Loop BB73_33 Depth 2
	cmpl	$0, -32(%rbp)
	jle	.LBB73_38
	.p2align	4, 0x90
# %bb.32:                               #   in Loop: Header=BB73_31 Depth=1
	cmpl	$0, -40(%rbp)
	je	.LBB73_43
.LBB73_33:                              #   Parent Loop BB73_31 Depth=1
                                        # =>  This Inner Loop Header: Depth=2
	cmpl	$1, -32(%rbp)
	je	.LBB73_35
# %bb.34:                               #   in Loop: Header=BB73_33 Depth=2
	movzbl	-17(%rbp), %eax
	movq	-56(%rbp), %rcx
	movb	%al, (%rcx)
	movl	-48(%rbp), %eax
	movl	%eax, %ecx
	shll	$8, %ecx
	shrl	$24, %eax
	movzbl	-17(%rbp), %edx
	xorl	%eax, %edx
	xorl	BZ2_crc32Table(,%rdx,4), %ecx
	addl	$-1, -32(%rbp)
	addq	$1, -56(%rbp)
	movl	%ecx, -48(%rbp)
	addl	$-1, -40(%rbp)
	cmpl	$0, -40(%rbp)
	jne	.LBB73_33
	jmp	.LBB73_43
	.p2align	4, 0x90
.LBB73_35:                              #   in Loop: Header=BB73_31 Depth=1
	cmpl	$0, -40(%rbp)
	je	.LBB73_36
# %bb.37:                               #   in Loop: Header=BB73_31 Depth=1
	movb	-17(%rbp), %al
	movq	-56(%rbp), %rcx
	movb	%al, (%rcx)
	movl	-48(%rbp), %eax
	movl	%eax, %ecx
	shll	$8, %ecx
	shrl	$24, %eax
	movzbl	-17(%rbp), %edx
	xorl	%eax, %edx
	xorl	BZ2_crc32Table(,%rdx,4), %ecx
	addq	$1, -56(%rbp)
	movl	%ecx, -48(%rbp)
	addl	$-1, -40(%rbp)
.LBB73_38:                              #   in Loop: Header=BB73_31 Depth=1
	movl	-24(%rbp), %eax
	cmpl	-44(%rbp), %eax
	jg	.LBB73_39
# %bb.41:                               #   in Loop: Header=BB73_31 Depth=1
	movl	-24(%rbp), %eax
	cmpl	-44(%rbp), %eax
	je	.LBB73_42
# %bb.47:                               #   in Loop: Header=BB73_31 Depth=1
	movl	-36(%rbp), %eax
	movb	%al, -17(%rbp)
	movq	-64(%rbp), %rcx
	movl	-28(%rbp), %edx
	movl	(%rcx,%rdx,4), %ecx
	movzbl	%cl, %edx
	movb	%dl, -1(%rbp)
	shrl	$8, %ecx
	movl	%ecx, -28(%rbp)
	addl	$1, -24(%rbp)
	cmpl	%eax, %edx
	je	.LBB73_49
# %bb.48:                               #   in Loop: Header=BB73_31 Depth=1
	movzbl	-1(%rbp), %eax
	movl	%eax, -36(%rbp)
	jmp	.LBB73_35
	.p2align	4, 0x90
.LBB73_49:                              #   in Loop: Header=BB73_31 Depth=1
	movl	-24(%rbp), %eax
	cmpl	-44(%rbp), %eax
	je	.LBB73_35
# %bb.50:                               #   in Loop: Header=BB73_31 Depth=1
	movl	$2, -32(%rbp)
	movq	-64(%rbp), %rax
	movl	-28(%rbp), %ecx
	movl	(%rax,%rcx,4), %eax
	movb	%al, -1(%rbp)
	shrl	$8, %eax
	movl	%eax, -28(%rbp)
	movl	-24(%rbp), %eax
	addl	$1, %eax
	movl	%eax, -24(%rbp)
	cmpl	-44(%rbp), %eax
	je	.LBB73_31
# %bb.51:                               #   in Loop: Header=BB73_31 Depth=1
	movzbl	-1(%rbp), %eax
	cmpl	-36(%rbp), %eax
	jne	.LBB73_52
# %bb.53:                               #   in Loop: Header=BB73_31 Depth=1
	movl	$3, -32(%rbp)
	movq	-64(%rbp), %rax
	movl	-28(%rbp), %ecx
	movl	(%rax,%rcx,4), %eax
	movb	%al, -1(%rbp)
	shrl	$8, %eax
	movl	%eax, -28(%rbp)
	movl	-24(%rbp), %eax
	addl	$1, %eax
	movl	%eax, -24(%rbp)
	cmpl	-44(%rbp), %eax
	je	.LBB73_31
# %bb.54:                               #   in Loop: Header=BB73_31 Depth=1
	movzbl	-1(%rbp), %eax
	cmpl	-36(%rbp), %eax
	je	.LBB73_55
.LBB73_52:                              #   in Loop: Header=BB73_31 Depth=1
	movzbl	-1(%rbp), %eax
	movl	%eax, -36(%rbp)
	jmp	.LBB73_31
.LBB73_55:                              #   in Loop: Header=BB73_31 Depth=1
	movq	-64(%rbp), %rax
	movl	-28(%rbp), %ecx
	movl	(%rax,%rcx,4), %ecx
	movzbl	%cl, %edx
	movb	%dl, -1(%rbp)
	shrl	$8, %ecx
	movl	%ecx, -28(%rbp)
	movl	-24(%rbp), %esi
	leal	1(%rsi), %edi
	movl	%edi, -24(%rbp)
	addl	$4, %edx
	movl	%edx, -32(%rbp)
	movl	(%rax,%rcx,4), %eax
	movzbl	%al, %ecx
	movl	%ecx, -36(%rbp)
	shrl	$8, %eax
	movl	%eax, -28(%rbp)
	addl	$2, %esi
	movl	%esi, -24(%rbp)
	jmp	.LBB73_31
.LBB73_39:
	movb	$1, -18(%rbp)
	jmp	.LBB73_40
.LBB73_36:
	movl	$1, -32(%rbp)
	jmp	.LBB73_43
.LBB73_42:
	movl	$0, -32(%rbp)
.LBB73_43:
	movq	-16(%rbp), %rax
	movq	(%rax), %rcx
	movl	36(%rcx), %ecx
	movl	%ecx, -68(%rbp)
	movl	-72(%rbp), %ecx
	subl	-40(%rbp), %ecx
	movq	(%rax), %rax
	addl	%ecx, 36(%rax)
	movq	-16(%rbp), %rax
	movq	(%rax), %rax
	movl	36(%rax), %eax
	cmpl	-68(%rbp), %eax
	jae	.LBB73_45
# %bb.44:
	movq	-16(%rbp), %rax
	movq	(%rax), %rax
	addl	$1, 40(%rax)
.LBB73_45:
	movl	-48(%rbp), %eax
	movq	-16(%rbp), %rcx
	movl	%eax, 3184(%rcx)
	movb	-17(%rbp), %al
	movq	-16(%rbp), %rcx
	movb	%al, 12(%rcx)
	movl	-32(%rbp), %eax
	movq	-16(%rbp), %rcx
	movl	%eax, 16(%rcx)
	movl	-24(%rbp), %eax
	movq	-16(%rbp), %rcx
	movl	%eax, 1092(%rcx)
	movl	-36(%rbp), %eax
	movq	-16(%rbp), %rcx
	movl	%eax, 64(%rcx)
	movq	-64(%rbp), %rax
	movq	-16(%rbp), %rcx
	movq	%rax, 3152(%rcx)
	movl	-28(%rbp), %eax
	movq	-16(%rbp), %rcx
	movl	%eax, 60(%rcx)
	movq	-56(%rbp), %rax
	movq	-16(%rbp), %rcx
	movq	(%rcx), %rcx
	movq	%rax, 24(%rcx)
	movl	-40(%rbp), %eax
	movq	-16(%rbp), %rcx
	movq	(%rcx), %rcx
	movl	%eax, 32(%rcx)
.LBB73_46:
	movb	$0, -18(%rbp)
.LBB73_40:
	movb	-18(%rbp), %al
	popq	%rbp
	.cfi_def_cfa %rsp, 8
	retq
.Lfunc_end73:
	.size	unRLE_obuf_to_output_FAST, .Lfunc_end73-unRLE_obuf_to_output_FAST
	.cfi_endproc
                                        # -- End function
	.globl	BZ2_bzDecompressEnd             # -- Begin function BZ2_bzDecompressEnd
	.p2align	4, 0x90
	.type	BZ2_bzDecompressEnd,@function
BZ2_bzDecompressEnd:                    # @BZ2_bzDecompressEnd
	.cfi_startproc
# %bb.0:
	pushq	%rbp
	.cfi_def_cfa_offset 16
	.cfi_offset %rbp, -16
	movq	%rsp, %rbp
	.cfi_def_cfa_register %rbp
	subq	$32, %rsp
	movq	%rdi, -24(%rbp)
	testq	%rdi, %rdi
	je	.LBB74_4
# %bb.1:
	movq	-24(%rbp), %rax
	movq	48(%rax), %rax
	movq	%rax, -16(%rbp)
	testq	%rax, %rax
	je	.LBB74_4
# %bb.2:
	movq	-16(%rbp), %rax
	movq	(%rax), %rax
	cmpq	-24(%rbp), %rax
	je	.LBB74_6
.LBB74_4:
	movl	$-2, -4(%rbp)
.LBB74_13:
	movl	-4(%rbp), %eax
	addq	$32, %rsp
	popq	%rbp
	.cfi_def_cfa %rsp, 8
	retq
.LBB74_6:
	.cfi_def_cfa %rbp, 16
	movq	-16(%rbp), %rax
	cmpq	$0, 3152(%rax)
	je	.LBB74_8
# %bb.7:
	movq	-24(%rbp), %rax
	movq	72(%rax), %rdi
	movq	-16(%rbp), %rcx
	movq	3152(%rcx), %rsi
	callq	*64(%rax)
.LBB74_8:
	movq	-16(%rbp), %rax
	cmpq	$0, 3160(%rax)
	je	.LBB74_10
# %bb.9:
	movq	-24(%rbp), %rax
	movq	72(%rax), %rdi
	movq	-16(%rbp), %rcx
	movq	3160(%rcx), %rsi
	callq	*64(%rax)
.LBB74_10:
	movq	-16(%rbp), %rax
	cmpq	$0, 3168(%rax)
	je	.LBB74_12
# %bb.11:
	movq	-24(%rbp), %rax
	movq	72(%rax), %rdi
	movq	-16(%rbp), %rcx
	movq	3168(%rcx), %rsi
	callq	*64(%rax)
.LBB74_12:
	movq	-24(%rbp), %rax
	movq	48(%rax), %rsi
	movq	72(%rax), %rdi
	callq	*64(%rax)
	movq	-24(%rbp), %rax
	movq	$0, 48(%rax)
	movl	$0, -4(%rbp)
	jmp	.LBB74_13
.Lfunc_end74:
	.size	BZ2_bzDecompressEnd, .Lfunc_end74-BZ2_bzDecompressEnd
	.cfi_endproc
                                        # -- End function
	.globl	BZ2_bzWriteOpen                 # -- Begin function BZ2_bzWriteOpen
	.p2align	4, 0x90
	.type	BZ2_bzWriteOpen,@function
BZ2_bzWriteOpen:                        # @BZ2_bzWriteOpen
	.cfi_startproc
# %bb.0:
	pushq	%rbp
	.cfi_def_cfa_offset 16
	.cfi_offset %rbp, -16
	movq	%rsp, %rbp
	.cfi_def_cfa_register %rbp
	subq	$64, %rsp
	movq	%rdi, -16(%rbp)
	movq	%rsi, -56(%rbp)
	movl	%edx, -28(%rbp)
	movl	%ecx, -24(%rbp)
	movl	%r8d, -20(%rbp)
	movq	$0, -8(%rbp)
	testq	%rdi, %rdi
	je	.LBB75_2
# %bb.1:
	movq	-16(%rbp), %rax
	movl	$0, (%rax)
.LBB75_2:
	cmpq	$0, -8(%rbp)
	je	.LBB75_4
# %bb.3:
	movq	-8(%rbp), %rax
	movl	$0, 5096(%rax)
.LBB75_4:
	cmpq	$0, -56(%rbp)
	je	.LBB75_11
# %bb.5:
	cmpl	$0, -28(%rbp)
	jle	.LBB75_11
# %bb.6:
	cmpl	$9, -28(%rbp)
	jg	.LBB75_11
# %bb.7:
	cmpl	$0, -20(%rbp)
	js	.LBB75_11
# %bb.8:
	cmpl	$250, -20(%rbp)
	jg	.LBB75_11
# %bb.9:
	cmpl	$0, -24(%rbp)
	js	.LBB75_11
# %bb.10:
	cmpl	$5, -24(%rbp)
	jl	.LBB75_17
.LBB75_11:
	cmpq	$0, -16(%rbp)
	je	.LBB75_13
# %bb.12:
	movq	-16(%rbp), %rax
	movl	$-2, (%rax)
.LBB75_13:
	cmpq	$0, -8(%rbp)
	je	.LBB75_15
# %bb.14:
	movq	-8(%rbp), %rax
	movl	$-2, 5096(%rax)
.LBB75_15:
	movq	$0, -40(%rbp)
.LBB75_16:
	movq	-40(%rbp), %rax
	addq	$64, %rsp
	popq	%rbp
	.cfi_def_cfa %rsp, 8
	retq
.LBB75_17:
	.cfi_def_cfa %rbp, 16
	movq	-56(%rbp), %rdi
	callq	ferror
	testl	%eax, %eax
	je	.LBB75_23
# %bb.18:
	cmpq	$0, -16(%rbp)
	je	.LBB75_20
# %bb.19:
	movq	-16(%rbp), %rax
	movl	$-6, (%rax)
.LBB75_20:
	cmpq	$0, -8(%rbp)
	je	.LBB75_15
# %bb.21:
	movq	-8(%rbp), %rax
	movl	$-6, 5096(%rax)
	jmp	.LBB75_15
.LBB75_23:
	movl	$5104, %edi                     # imm = 0x13F0
	callq	malloc
	movq	%rax, -8(%rbp)
	testq	%rax, %rax
	je	.LBB75_36
# %bb.24:
	cmpq	$0, -16(%rbp)
	je	.LBB75_26
# %bb.25:
	movq	-16(%rbp), %rax
	movl	$0, (%rax)
.LBB75_26:
	cmpq	$0, -8(%rbp)
	je	.LBB75_28
# %bb.27:
	movq	-8(%rbp), %rax
	movl	$0, 5096(%rax)
.LBB75_28:
	movq	-8(%rbp), %rax
	movb	$0, 5100(%rax)
	movq	-8(%rbp), %rax
	movl	$0, 5008(%rax)
	movq	-56(%rbp), %rax
	movq	-8(%rbp), %rcx
	movq	%rax, (%rcx)
	movq	-8(%rbp), %rax
	movb	$1, 5012(%rax)
	movq	-8(%rbp), %rax
	movq	$0, 5072(%rax)
	movq	-8(%rbp), %rax
	movq	$0, 5080(%rax)
	movq	-8(%rbp), %rax
	movq	$0, 5088(%rax)
	cmpl	$0, -20(%rbp)
	jne	.LBB75_30
# %bb.29:
	movl	$30, -20(%rbp)
.LBB75_30:
	movl	$5016, %edi                     # imm = 0x1398
	addq	-8(%rbp), %rdi
	movl	-28(%rbp), %esi
	movl	-24(%rbp), %edx
	movl	-20(%rbp), %ecx
	callq	BZ2_bzCompressInit
	movl	%eax, -44(%rbp)
	testl	%eax, %eax
	je	.LBB75_41
# %bb.31:
	cmpq	$0, -16(%rbp)
	je	.LBB75_33
# %bb.32:
	movl	-44(%rbp), %eax
	movq	-16(%rbp), %rcx
	movl	%eax, (%rcx)
.LBB75_33:
	cmpq	$0, -8(%rbp)
	je	.LBB75_35
# %bb.34:
	movl	-44(%rbp), %eax
	movq	-8(%rbp), %rcx
	movl	%eax, 5096(%rcx)
.LBB75_35:
	movq	-8(%rbp), %rdi
	callq	free
	jmp	.LBB75_15
.LBB75_36:
	cmpq	$0, -16(%rbp)
	je	.LBB75_38
# %bb.37:
	movq	-16(%rbp), %rax
	movl	$-3, (%rax)
.LBB75_38:
	cmpq	$0, -8(%rbp)
	je	.LBB75_15
# %bb.39:
	movq	-8(%rbp), %rax
	movl	$-3, 5096(%rax)
	jmp	.LBB75_15
.LBB75_41:
	movq	-8(%rbp), %rax
	movl	$0, 5024(%rax)
	movq	-8(%rbp), %rax
	movb	$1, 5100(%rax)
	movq	-8(%rbp), %rax
	movq	%rax, -40(%rbp)
	jmp	.LBB75_16
.Lfunc_end75:
	.size	BZ2_bzWriteOpen, .Lfunc_end75-BZ2_bzWriteOpen
	.cfi_endproc
                                        # -- End function
	.globl	BZ2_bzWrite                     # -- Begin function BZ2_bzWrite
	.p2align	4, 0x90
	.type	BZ2_bzWrite,@function
BZ2_bzWrite:                            # @BZ2_bzWrite
	.cfi_startproc
# %bb.0:
	pushq	%rbp
	.cfi_def_cfa_offset 16
	.cfi_offset %rbp, -16
	movq	%rsp, %rbp
	.cfi_def_cfa_register %rbp
	pushq	%rbx
	subq	$56, %rsp
	.cfi_offset %rbx, -24
	movq	%rdi, -24(%rbp)
	movq	%rsi, -64(%rbp)
	movq	%rdx, -48(%rbp)
	movl	%ecx, -28(%rbp)
	movq	%rsi, -16(%rbp)
	testq	%rdi, %rdi
	je	.LBB76_2
# %bb.1:
	movq	-24(%rbp), %rax
	movl	$0, (%rax)
.LBB76_2:
	cmpq	$0, -16(%rbp)
	je	.LBB76_4
# %bb.3:
	movq	-16(%rbp), %rax
	movl	$0, 5096(%rax)
.LBB76_4:
	cmpq	$0, -16(%rbp)
	je	.LBB76_7
# %bb.5:
	cmpq	$0, -48(%rbp)
	je	.LBB76_7
# %bb.6:
	cmpl	$0, -28(%rbp)
	js	.LBB76_7
# %bb.11:
	movq	-16(%rbp), %rax
	cmpb	$0, 5012(%rax)
	je	.LBB76_12
# %bb.16:
	movq	-16(%rbp), %rax
	movq	(%rax), %rdi
	callq	ferror
	testl	%eax, %eax
	je	.LBB76_21
.LBB76_17:
	cmpq	$0, -24(%rbp)
	je	.LBB76_19
# %bb.18:
	movq	-24(%rbp), %rax
	movl	$-6, (%rax)
.LBB76_19:
	cmpq	$0, -16(%rbp)
	je	.LBB76_36
# %bb.20:
	movq	-16(%rbp), %rax
	movl	$-6, 5096(%rax)
	jmp	.LBB76_36
.LBB76_7:
	cmpq	$0, -24(%rbp)
	je	.LBB76_9
# %bb.8:
	movq	-24(%rbp), %rax
	movl	$-2, (%rax)
.LBB76_9:
	cmpq	$0, -16(%rbp)
	je	.LBB76_36
# %bb.10:
	movq	-16(%rbp), %rax
	movl	$-2, 5096(%rax)
.LBB76_36:
	addq	$56, %rsp
	popq	%rbx
	popq	%rbp
	.cfi_def_cfa %rsp, 8
	retq
.LBB76_12:
	.cfi_def_cfa %rbp, 16
	cmpq	$0, -24(%rbp)
	je	.LBB76_14
# %bb.13:
	movq	-24(%rbp), %rax
	movl	$-1, (%rax)
.LBB76_14:
	cmpq	$0, -16(%rbp)
	je	.LBB76_36
# %bb.15:
	movq	-16(%rbp), %rax
	movl	$-1, 5096(%rax)
	jmp	.LBB76_36
.LBB76_21:
	cmpl	$0, -28(%rbp)
	je	.LBB76_32
# %bb.22:
	movl	-28(%rbp), %eax
	movq	-16(%rbp), %rcx
	movl	%eax, 5024(%rcx)
	movq	-48(%rbp), %rax
	movq	-16(%rbp), %rcx
	movq	%rax, 5016(%rcx)
	movl	$5016, %ebx                     # imm = 0x1398
	jmp	.LBB76_23
	.p2align	4, 0x90
.LBB76_31:                              #   in Loop: Header=BB76_23 Depth=1
	movq	-16(%rbp), %rax
	cmpl	$0, 5024(%rax)
	je	.LBB76_32
.LBB76_23:                              # =>This Inner Loop Header: Depth=1
	movq	-16(%rbp), %rax
	movl	$5000, 5048(%rax)               # imm = 0x1388
	movq	-16(%rbp), %rax
	leaq	8(%rax), %rcx
	movq	%rcx, 5040(%rax)
	movq	-16(%rbp), %rdi
	addq	%rbx, %rdi
	xorl	%esi, %esi
	callq	BZ2_bzCompress
	movl	%eax, -32(%rbp)
	cmpl	$1, %eax
	jne	.LBB76_24
# %bb.28:                               #   in Loop: Header=BB76_23 Depth=1
	movq	-16(%rbp), %rax
	cmpl	$4999, 5048(%rax)               # imm = 0x1387
	ja	.LBB76_31
# %bb.29:                               #   in Loop: Header=BB76_23 Depth=1
	movq	-16(%rbp), %rdi
	movl	$5000, %eax                     # imm = 0x1388
	subl	5048(%rdi), %eax
	movl	%eax, -36(%rbp)
	movslq	%eax, %rdx
	movq	(%rdi), %rcx
	addq	$8, %rdi
	movl	$1, %esi
	callq	fwrite
	movl	%eax, -52(%rbp)
	cmpl	%eax, -36(%rbp)
	jne	.LBB76_17
# %bb.30:                               #   in Loop: Header=BB76_23 Depth=1
	movq	-16(%rbp), %rax
	movq	(%rax), %rdi
	callq	ferror
	testl	%eax, %eax
	je	.LBB76_31
	jmp	.LBB76_17
.LBB76_32:
	cmpq	$0, -24(%rbp)
	je	.LBB76_34
# %bb.33:
	movq	-24(%rbp), %rax
	movl	$0, (%rax)
.LBB76_34:
	cmpq	$0, -16(%rbp)
	je	.LBB76_36
# %bb.35:
	movq	-16(%rbp), %rax
	movl	$0, 5096(%rax)
	jmp	.LBB76_36
.LBB76_24:
	cmpq	$0, -24(%rbp)
	je	.LBB76_26
# %bb.25:
	movl	-32(%rbp), %eax
	movq	-24(%rbp), %rcx
	movl	%eax, (%rcx)
.LBB76_26:
	cmpq	$0, -16(%rbp)
	je	.LBB76_36
# %bb.27:
	movl	-32(%rbp), %eax
	movq	-16(%rbp), %rcx
	movl	%eax, 5096(%rcx)
	jmp	.LBB76_36
.Lfunc_end76:
	.size	BZ2_bzWrite, .Lfunc_end76-BZ2_bzWrite
	.cfi_endproc
                                        # -- End function
	.globl	BZ2_bzWriteClose                # -- Begin function BZ2_bzWriteClose
	.p2align	4, 0x90
	.type	BZ2_bzWriteClose,@function
BZ2_bzWriteClose:                       # @BZ2_bzWriteClose
	.cfi_startproc
# %bb.0:
	pushq	%rbp
	.cfi_def_cfa_offset 16
	.cfi_offset %rbp, -16
	movq	%rsp, %rbp
	.cfi_def_cfa_register %rbp
	subq	$48, %rsp
	movq	%r8, %r9
	movq	%rdi, -40(%rbp)
	movq	%rsi, -32(%rbp)
	movl	%edx, -4(%rbp)
	movq	%rcx, -24(%rbp)
	movq	%r8, -16(%rbp)
	movq	$0, (%rsp)
	xorl	%r8d, %r8d
	callq	BZ2_bzWriteClose64
	addq	$48, %rsp
	popq	%rbp
	.cfi_def_cfa %rsp, 8
	retq
.Lfunc_end77:
	.size	BZ2_bzWriteClose, .Lfunc_end77-BZ2_bzWriteClose
	.cfi_endproc
                                        # -- End function
	.globl	BZ2_bzWriteClose64              # -- Begin function BZ2_bzWriteClose64
	.p2align	4, 0x90
	.type	BZ2_bzWriteClose64,@function
BZ2_bzWriteClose64:                     # @BZ2_bzWriteClose64
	.cfi_startproc
# %bb.0:
	pushq	%rbp
	.cfi_def_cfa_offset 16
	.cfi_offset %rbp, -16
	movq	%rsp, %rbp
	.cfi_def_cfa_register %rbp
	pushq	%rbx
	subq	$72, %rsp
	.cfi_offset %rbx, -24
	movq	%rdi, -24(%rbp)
	movq	%rsi, -72(%rbp)
	movl	%edx, -32(%rbp)
	movq	%rcx, -56(%rbp)
	movq	%r8, -48(%rbp)
	movq	%r9, -40(%rbp)
	movq	%rsi, -16(%rbp)
	testq	%rsi, %rsi
	je	.LBB78_1
# %bb.5:
	movq	-16(%rbp), %rax
	cmpb	$0, 5012(%rax)
	je	.LBB78_6
# %bb.10:
	movq	-16(%rbp), %rax
	movq	(%rax), %rdi
	callq	ferror
	testl	%eax, %eax
	je	.LBB78_15
.LBB78_11:
	cmpq	$0, -24(%rbp)
	je	.LBB78_13
# %bb.12:
	movq	-24(%rbp), %rax
	movl	$-6, (%rax)
.LBB78_13:
	cmpq	$0, -16(%rbp)
	je	.LBB78_52
# %bb.14:
	movq	-16(%rbp), %rax
	movl	$-6, 5096(%rax)
	jmp	.LBB78_52
.LBB78_1:
	cmpq	$0, -24(%rbp)
	je	.LBB78_3
# %bb.2:
	movq	-24(%rbp), %rax
	movl	$0, (%rax)
.LBB78_3:
	cmpq	$0, -16(%rbp)
	je	.LBB78_52
# %bb.4:
	movq	-16(%rbp), %rax
	movl	$0, 5096(%rax)
	jmp	.LBB78_52
.LBB78_6:
	cmpq	$0, -24(%rbp)
	je	.LBB78_8
