	.text
	.file	"llvm-link"
	.globl	BZ2_blockSort                   # -- Begin function BZ2_blockSort
	.p2align	4, 0x90
	.type	BZ2_blockSort,@function
BZ2_blockSort:                          # @BZ2_blockSort
	.cfi_startproc
# %bb.0:
	pushq	%rbp
	.cfi_def_cfa_offset 16
	.cfi_offset %rbp, -16
	movq	%rsp, %rbp
	.cfi_def_cfa_register %rbp
	pushq	%r15
	pushq	%r14
	pushq	%r13
	pushq	%r12
	pushq	%rbx
	subq	$24, %rsp
	.cfi_offset %rbx, -56
	.cfi_offset %r12, -48
	.cfi_offset %r13, -40
	.cfi_offset %r14, -32
	.cfi_offset %r15, -24
	movq	%rdi, %r14
	movq	40(%rdi), %rcx
	movq	56(%rdi), %rbx
	movl	108(%rdi), %r13d
	movl	656(%rdi), %r15d
	cmpl	$9999, %r13d                    # imm = 0x270F
	jg	.LBB0_2
# %bb.1:
	movq	24(%r14), %rdi
	movq	32(%r14), %rsi
	movq	%rcx, %rdx
	jmp	.LBB0_12
.LBB0_2:                                # %.thread
	movq	64(%r14), %rsi
	movl	88(%r14), %edi
	movl	%r13d, %eax
	andl	$1, %eax
	addl	%r13d, %eax
	addl	$34, %eax
	movslq	%eax, %rdx
	addq	%rsi, %rdx
	cmpl	$100, %edi
	movl	$100, %eax
	cmovll	%edi, %eax
	testl	%edi, %edi
	jle	.LBB0_3
# %bb.4:                                # %select.true.sink
	addl	$-1, %eax
	cltq
	imulq	$1431655766, %rax, %r12         # imm = 0x55555556
	movq	%r12, %rax
	shrq	$63, %rax
	shrq	$32, %r12
	addl	%eax, %r12d
	jmp	.LBB0_5
.LBB0_3:
	xorl	%r12d, %r12d
.LBB0_5:                                # %select.end
	imull	%r13d, %r12d
	movl	%r12d, -44(%rbp)
	leaq	-44(%rbp), %rax
	movq	%rax, (%rsp)
	movq	%rbx, %rdi
	movq	%rcx, -56(%rbp)                 # 8-byte Spill
	movl	%r13d, %r8d
	movl	%r15d, %r9d
	callq	mainSort
	movl	%r15d, -48(%rbp)                # 4-byte Spill
	cmpl	$2, %r15d
	jg	.LBB0_7
# %bb.6:                                # %.thread._crit_edge
	movl	-44(%rbp), %r15d
	testl	%r15d, %r15d
	movq	-56(%rbp), %rdx                 # 8-byte Reload
	jns	.LBB0_13
.LBB0_9:
	movl	-48(%rbp), %r15d                # 4-byte Reload
	cmpl	$2, %r15d
	jge	.LBB0_10
.LBB0_11:
	movq	24(%r14), %rdi
	movq	32(%r14), %rsi
.LBB0_12:
	movl	%r13d, %ecx
	movl	%r15d, %r8d
	callq	fallbackSort
.LBB0_13:
	movl	$-1, 48(%r14)
	movslq	108(%r14), %rax
	testq	%rax, %rax
	jle	.LBB0_17
# %bb.14:                               # %.lr.ph.preheader
	xorl	%ecx, %ecx
	.p2align	4, 0x90
.LBB0_15:                               # %.lr.ph
                                        # =>This Inner Loop Header: Depth=1
	cmpl	$0, (%rbx,%rcx,4)
	je	.LBB0_18
# %bb.16:                               #   in Loop: Header=BB0_15 Depth=1
	addq	$1, %rcx
	cmpq	%rcx, %rax
	jne	.LBB0_15
.LBB0_17:                               # %.loopexit.thread
	movl	$1003, %edi                     # imm = 0x3EB
	callq	BZ2_bz__AssertH__fail
.LBB0_18:                               # %.loopexit
	movl	%ecx, 48(%r14)
	cmpl	$-1, %ecx
	je	.LBB0_17
# %bb.19:
	addq	$24, %rsp
	popq	%rbx
	popq	%r12
	popq	%r13
	popq	%r14
	popq	%r15
	popq	%rbp
	.cfi_def_cfa %rsp, 8
	retq
.LBB0_7:
	.cfi_def_cfa %rbp, 16
	movl	-44(%rbp), %r15d
	subl	%r15d, %r12d
	cvtsi2ss	%r12d, %xmm0
	cvtsi2ss	%r13d, %xmm1
	movq	stderr(%rip), %rdi
	divss	%xmm1, %xmm0
	cvtss2sd	%xmm0, %xmm0
	movl	$.L.str, %esi
	movl	%r12d, %edx
	movl	%r13d, %ecx
	movb	$1, %al
	callq	fprintf
	testl	%r15d, %r15d
	movq	-56(%rbp), %rdx                 # 8-byte Reload
	jns	.LBB0_13
	jmp	.LBB0_9
.LBB0_10:
	movq	stderr(%rip), %rcx
	movl	$.L.str.1, %edi
	movl	$53, %esi
	movl	$1, %edx
	callq	fwrite
	movq	-56(%rbp), %rdx                 # 8-byte Reload
	jmp	.LBB0_11
.Lfunc_end0:
	.size	BZ2_blockSort, .Lfunc_end0-BZ2_blockSort
	.cfi_endproc
                                        # -- End function
	.p2align	4, 0x90                         # -- Begin function fallbackSort
	.type	fallbackSort,@function
fallbackSort:                           # @fallbackSort
	.cfi_startproc
# %bb.0:
	pushq	%rbp
	.cfi_def_cfa_offset 16
	.cfi_offset %rbp, -16
	movq	%rsp, %rbp
	.cfi_def_cfa_register %rbp
	pushq	%r15
	pushq	%r14
	pushq	%r13
	pushq	%r12
	pushq	%rbx
	subq	$2104, %rsp                     # imm = 0x838
	.cfi_offset %rbx, -56
	.cfi_offset %r12, -48
	.cfi_offset %r13, -40
	.cfi_offset %r14, -32
	.cfi_offset %r15, -24
	movl	%ecx, %r12d
	movq	%rdx, %r14
	movq	%rsi, %r13
	movq	%rdi, -64(%rbp)                 # 8-byte Spill
	movl	%r8d, -68(%rbp)                 # 4-byte Spill
	cmpl	$4, %r8d
	jge	.LBB1_1
.LBB1_2:
	leaq	-1120(%rbp), %rdi
	xorl	%ebx, %ebx
	movl	$1028, %edx                     # imm = 0x404
	xorl	%esi, %esi
	callq	memset@PLT
	movl	$0, %r15d
	testl	%r12d, %r12d
	cmovnsl	%r12d, %r15d
	jle	.LBB1_9
# %bb.3:                                # %.lr.ph268.preheader
	leaq	-1(%r15), %rcx
	movl	%r15d, %eax
	andl	$3, %eax
	cmpq	$3, %rcx
	jae	.LBB1_14
# %bb.4:
	xorl	%ecx, %ecx
	jmp	.LBB1_5
.LBB1_14:                               # %.lr.ph268.preheader.new
	movl	%r15d, %edx
	andl	$2147483644, %edx               # imm = 0x7FFFFFFC
	xorl	%ecx, %ecx
	.p2align	4, 0x90
.LBB1_15:                               # %.lr.ph268
                                        # =>This Inner Loop Header: Depth=1
	movzbl	(%r13,%rcx), %esi
	addl	$1, -1120(%rbp,%rsi,4)
	movzbl	1(%r13,%rcx), %esi
	addl	$1, -1120(%rbp,%rsi,4)
	movzbl	2(%r13,%rcx), %esi
	addl	$1, -1120(%rbp,%rsi,4)
	movzbl	3(%r13,%rcx), %esi
	addl	$1, -1120(%rbp,%rsi,4)
	addq	$4, %rcx
	cmpq	%rcx, %rdx
	jne	.LBB1_15
.LBB1_5:                                # %.preheader232.loopexit.unr-lcssa
	testq	%rax, %rax
	je	.LBB1_8
# %bb.6:                                # %.lr.ph268.epil.preheader
	addq	%r13, %rcx
	xorl	%edx, %edx
	.p2align	4, 0x90
.LBB1_7:                                # %.lr.ph268.epil
                                        # =>This Inner Loop Header: Depth=1
	movzbl	(%rcx,%rdx), %esi
	addl	$1, -1120(%rbp,%rsi,4)
	addq	$1, %rdx
	cmpq	%rdx, %rax
	jne	.LBB1_7
.LBB1_8:                                # %.preheader232.loopexit
	movl	-1120(%rbp), %ebx
.LBB1_9:                                # %.preheader232
	movq	%r12, -56(%rbp)                 # 8-byte Spill
	leaq	-2144(%rbp), %rdi
	leaq	-1120(%rbp), %rsi
	movl	$1024, %edx                     # imm = 0x400
	callq	memcpy@PLT
	xorl	%eax, %eax
	.p2align	4, 0x90
.LBB1_10:                               # %.preheader231
                                        # =>This Inner Loop Header: Depth=1
	addl	-1116(%rbp,%rax,4), %ebx
	movl	%ebx, -1116(%rbp,%rax,4)
	addl	-1112(%rbp,%rax,4), %ebx
	movl	%ebx, -1112(%rbp,%rax,4)
	addl	-1108(%rbp,%rax,4), %ebx
	movl	%ebx, -1108(%rbp,%rax,4)
	addl	-1104(%rbp,%rax,4), %ebx
	movl	%ebx, -1104(%rbp,%rax,4)
	addq	$4, %rax
	cmpq	$256, %rax                      # imm = 0x100
	jne	.LBB1_10
# %bb.11:                               # %.preheader230
	movq	-56(%rbp), %r8                  # 8-byte Reload
	testl	%r8d, %r8d
	movq	-64(%rbp), %rdi                 # 8-byte Reload
	jle	.LBB1_20
# %bb.12:                               # %.lr.ph261.preheader
	cmpl	$1, %r15d
	jne	.LBB1_16
# %bb.13:
	xorl	%eax, %eax
	jmp	.LBB1_18
.LBB1_16:                               # %.lr.ph261.preheader.new
	movl	%r15d, %ecx
	andl	$2147483646, %ecx               # imm = 0x7FFFFFFE
	xorl	%eax, %eax
	.p2align	4, 0x90
.LBB1_17:                               # %.lr.ph261
                                        # =>This Inner Loop Header: Depth=1
	movzbl	(%r13,%rax), %edx
	movslq	-1120(%rbp,%rdx,4), %rsi
	leaq	-1(%rsi), %rbx
	movl	%ebx, -1120(%rbp,%rdx,4)
	movl	%eax, -4(%rdi,%rsi,4)
	movzbl	1(%r13,%rax), %edx
	movslq	-1120(%rbp,%rdx,4), %rsi
	leaq	-1(%rsi), %rbx
	movl	%ebx, -1120(%rbp,%rdx,4)
	leal	1(%rax), %edx
	movl	%edx, -4(%rdi,%rsi,4)
	addq	$2, %rax
	cmpq	%rax, %rcx
	jne	.LBB1_17
.LBB1_18:                               # %._crit_edge262.loopexit.unr-lcssa
	testb	$1, %r15b
	je	.LBB1_20
# %bb.19:                               # %.lr.ph261.epil.preheader
	movzbl	(%r13,%rax), %ecx
	movslq	-1120(%rbp,%rcx,4), %rdx
	leaq	-1(%rdx), %rsi
	movl	%esi, -1120(%rbp,%rcx,4)
	movl	%eax, -4(%rdi,%rdx,4)
.LBB1_20:                               # %._crit_edge262
	leal	31(%r8), %ecx
	testl	%r8d, %r8d
	cmovnsl	%r8d, %ecx
	sarl	$5, %ecx
	cmpl	$-2, %ecx
	movl	$-2, %eax
	cmovgl	%ecx, %eax
	addl	$2, %eax
	je	.LBB1_22
# %bb.21:                               # %.lr.ph258.preheader
	movl	%eax, %edx
	shlq	$2, %rdx
	movq	%r14, %rdi
	xorl	%esi, %esi
	callq	memset@PLT
	movq	-56(%rbp), %r8                  # 8-byte Reload
	movq	-64(%rbp), %rdi                 # 8-byte Reload
.LBB1_22:                               # %.preheader229
	xorl	%eax, %eax
	.p2align	4, 0x90
.LBB1_23:                               # =>This Inner Loop Header: Depth=1
	movl	-1120(%rbp,%rax,4), %ecx
	movl	$1, %edx
	shll	%cl, %edx
	sarl	$5, %ecx
	movslq	%ecx, %rcx
	orl	%edx, (%r14,%rcx,4)
	movl	-1116(%rbp,%rax,4), %ecx
	movl	$1, %edx
	shll	%cl, %edx
	sarl	$5, %ecx
	movslq	%ecx, %rcx
	orl	%edx, (%r14,%rcx,4)
	addq	$2, %rax
	cmpq	$256, %rax                      # imm = 0x100
	jne	.LBB1_23
# %bb.24:                               # %.preheader228.preheader
	leal	1(%r8), %eax
	xorl	%edx, %edx
	.p2align	4, 0x90
.LBB1_25:                               # %.preheader228
                                        # =>This Inner Loop Header: Depth=1
	leal	(%r8,%rdx), %ecx
	movl	$1, %esi
	shll	%cl, %esi
	sarl	$5, %ecx
	movslq	%ecx, %rcx
	orl	%esi, (%r14,%rcx,4)
	leal	(%rax,%rdx), %ecx
	movl	$-2, %esi
	roll	%cl, %esi
	sarl	$5, %ecx
	movslq	%ecx, %rcx
	andl	%esi, (%r14,%rcx,4)
	addl	$2, %edx
	cmpl	$64, %edx
	jne	.LBB1_25
# %bb.26:                               # %.preheader227.preheader
	movl	$1, %edx
	movq	%r15, -80(%rbp)                 # 8-byte Spill
	movq	%r13, -88(%rbp)                 # 8-byte Spill
	.p2align	4, 0x90
.LBB1_27:                               # %.preheader227
                                        # =>This Loop Header: Depth=1
                                        #     Child Loop BB1_31 Depth 2
                                        #     Child Loop BB1_33 Depth 2
                                        #       Child Loop BB1_37 Depth 3
                                        #       Child Loop BB1_38 Depth 3
                                        #       Child Loop BB1_42 Depth 3
                                        #       Child Loop BB1_48 Depth 3
                                        #       Child Loop BB1_49 Depth 3
                                        #       Child Loop BB1_53 Depth 3
	cmpl	$4, -68(%rbp)                   # 4-byte Folded Reload
	movl	%edx, -44(%rbp)                 # 4-byte Spill
	jge	.LBB1_28
# %bb.29:                               #   in Loop: Header=BB1_27 Depth=1
	testl	%r8d, %r8d
	jle	.LBB1_32
.LBB1_30:                               # %.lr.ph240.preheader
                                        #   in Loop: Header=BB1_27 Depth=1
	xorl	%eax, %eax
	xorl	%ecx, %ecx
	.p2align	4, 0x90
.LBB1_31:                               # %.lr.ph240
                                        #   Parent Loop BB1_27 Depth=1
                                        # =>  This Inner Loop Header: Depth=2
	movl	%ecx, %esi
	sarl	$5, %esi
	movslq	%esi, %rsi
	movl	(%r14,%rsi,4), %esi
	btl	%ecx, %esi
	cmovbl	%ecx, %eax
	movl	(%rdi,%rcx,4), %ebx
	subl	%edx, %ebx
	movl	%ebx, %esi
	sarl	$31, %esi
	andl	%r8d, %esi
	addl	%ebx, %esi
	movslq	%esi, %rsi
	movl	%eax, (%r13,%rsi,4)
	addq	$1, %rcx
	cmpq	%rcx, %r15
	jne	.LBB1_31
.LBB1_32:                               # %.preheader226
                                        #   in Loop: Header=BB1_27 Depth=1
	xorl	%r10d, %r10d
	movl	$-1, %r12d
	jmp	.LBB1_33
.LBB1_56:                               # %.loopexit
                                        #   in Loop: Header=BB1_33 Depth=2
	addl	%r11d, %r10d
	addl	%r12d, %r10d
	addl	$2, %r10d
	movq	-56(%rbp), %r8                  # 8-byte Reload
	movl	-44(%rbp), %edx                 # 4-byte Reload
	.p2align	4, 0x90
.LBB1_33:                               #   Parent Loop BB1_27 Depth=1
                                        # =>  This Loop Header: Depth=2
                                        #       Child Loop BB1_37 Depth 3
                                        #       Child Loop BB1_38 Depth 3
                                        #       Child Loop BB1_42 Depth 3
                                        #       Child Loop BB1_48 Depth 3
                                        #       Child Loop BB1_49 Depth 3
                                        #       Child Loop BB1_53 Depth 3
	movl	%r12d, %eax
	leal	1(%rax), %r12d
	movl	%r12d, %esi
	sarl	$5, %esi
	movl	%r12d, %ecx
	andl	$31, %ecx
	movl	$1, %ebx
	shll	%cl, %ebx
	movslq	%esi, %rsi
	andl	(%r14,%rsi,4), %ebx
	testl	%ecx, %ecx
	je	.LBB1_35
# %bb.34:                               #   in Loop: Header=BB1_33 Depth=2
	testl	%ebx, %ebx
	jne	.LBB1_33
.LBB1_35:                               # %.thread
                                        #   in Loop: Header=BB1_33 Depth=2
	testl	%ebx, %ebx
	je	.LBB1_36
	.p2align	4, 0x90
.LBB1_37:                               # %.preheader225
                                        #   Parent Loop BB1_27 Depth=1
                                        #     Parent Loop BB1_33 Depth=2
                                        # =>    This Inner Loop Header: Depth=3
	movl	%eax, %r15d
	movl	%r12d, %eax
	sarl	$5, %eax
	movslq	%eax, %rcx
	addl	$32, %r12d
	leal	32(%r15), %eax
	cmpl	$-1, (%r14,%rcx,4)
	je	.LBB1_37
	.p2align	4, 0x90
.LBB1_38:                               # %.preheader224
                                        #   Parent Loop BB1_27 Depth=1
                                        #     Parent Loop BB1_33 Depth=2
                                        # =>    This Inner Loop Header: Depth=3
	addl	$1, %r15d
	movl	%r15d, %eax
	sarl	$5, %eax
	cltq
	movl	(%r14,%rax,4), %eax
	btl	%r15d, %eax
	jb	.LBB1_38
# %bb.39:                               # %.loopexit167
                                        #   in Loop: Header=BB1_33 Depth=2
	cmpl	%r8d, %r15d
	jle	.LBB1_40
	jmp	.LBB1_57
.LBB1_36:                               #   in Loop: Header=BB1_33 Depth=2
	movl	%r12d, %r15d
	cmpl	%r8d, %r15d
	jg	.LBB1_57
.LBB1_40:                               #   in Loop: Header=BB1_33 Depth=2
	movl	%r15d, %r11d
	negl	%r11d
	movl	%r15d, %eax
	sarl	$5, %eax
	cltq
	movl	(%r14,%rax,4), %eax
	movl	%r15d, %ecx
	andl	$31, %ecx
	movl	$1, %ebx
	shll	%cl, %ebx
	btl	%ecx, %eax
	movl	%r15d, %esi
	jb	.LBB1_45
# %bb.41:                               # %.lr.ph244.preheader
                                        #   in Loop: Header=BB1_33 Depth=2
	movl	%r11d, %r9d
	andl	$31, %r9d
	addl	%r15d, %r9d
	movl	%r15d, %esi
	.p2align	4, 0x90
.LBB1_42:                               # %.lr.ph244
                                        #   Parent Loop BB1_27 Depth=1
                                        #     Parent Loop BB1_33 Depth=2
                                        # =>    This Inner Loop Header: Depth=3
	testl	%ecx, %ecx
	je	.LBB1_43
# %bb.44:                               #   in Loop: Header=BB1_42 Depth=3
	addl	$1, %esi
	movl	%esi, %ecx
	sarl	$5, %ecx
	movslq	%ecx, %rcx
	movl	(%r14,%rcx,4), %eax
	movl	%esi, %ecx
	andl	$31, %ecx
	movl	$1, %ebx
	shll	%cl, %ebx
	btl	%ecx, %eax
	jae	.LBB1_42
.LBB1_45:                               # %.thread165
                                        #   in Loop: Header=BB1_33 Depth=2
	testl	%eax, %ebx
	je	.LBB1_47
.LBB1_46:                               #   in Loop: Header=BB1_33 Depth=2
	movl	%esi, %eax
	jmp	.LBB1_50
.LBB1_43:                               # %.lr.ph244..thread165.loopexit_crit_edge
                                        #   in Loop: Header=BB1_33 Depth=2
	movl	%r9d, %ecx
	sarl	$5, %ecx
	movslq	%ecx, %rax
	movl	$1, %ebx
	movl	%r9d, %ecx
	shll	%cl, %ebx
	movl	(%r14,%rax,4), %eax
	movl	%r9d, %esi
	testl	%eax, %ebx
	jne	.LBB1_46
.LBB1_47:                               # %.preheader223.preheader
                                        #   in Loop: Header=BB1_33 Depth=2
	leal	-1(%rsi), %ecx
	.p2align	4, 0x90
.LBB1_48:                               # %.preheader223
                                        #   Parent Loop BB1_27 Depth=1
                                        #     Parent Loop BB1_33 Depth=2
                                        # =>    This Inner Loop Header: Depth=3
	movl	%ecx, %eax
	movl	%esi, %ecx
	sarl	$5, %ecx
	movslq	%ecx, %rbx
	addl	$32, %esi
	leal	32(%rax), %ecx
	cmpl	$0, (%r14,%rbx,4)
	je	.LBB1_48
	.p2align	4, 0x90
.LBB1_49:                               # %.preheader
                                        #   Parent Loop BB1_27 Depth=1
                                        #     Parent Loop BB1_33 Depth=2
                                        # =>    This Inner Loop Header: Depth=3
	addl	$1, %eax
	movl	%eax, %ecx
	sarl	$5, %ecx
	movslq	%ecx, %rcx
	movl	(%r14,%rcx,4), %ecx
	btl	%eax, %ecx
	jae	.LBB1_49
.LBB1_50:                               # %.loopexit166
                                        #   in Loop: Header=BB1_33 Depth=2
	cmpl	%r8d, %eax
	jg	.LBB1_57
# %bb.51:                               #   in Loop: Header=BB1_33 Depth=2
	leal	-1(%rax), %r12d
	cmpl	%r15d, %eax
	jle	.LBB1_33
# %bb.52:                               # %.lr.ph252.preheader
                                        #   in Loop: Header=BB1_33 Depth=2
	addl	$-1, %r15d
	movq	%r13, %rsi
	movl	%r15d, %edx
	movl	%r12d, %ecx
	movq	%r10, %rbx
	movl	%r11d, %r13d
	callq	fallbackQSort3
	movl	%r13d, %r11d
	movq	-88(%rbp), %r13                 # 8-byte Reload
	movq	%rbx, %r10
	movq	-64(%rbp), %rdi                 # 8-byte Reload
	movslq	%r12d, %r9
	movslq	%r15d, %rcx
	cmpq	%r9, %rcx
	cmovgq	%rcx, %r9
	subq	%rcx, %r9
	addq	$1, %r9
	leaq	(%rdi,%rcx,4), %r8
	movl	$-1, %ecx
	xorl	%esi, %esi
	jmp	.LBB1_53
	.p2align	4, 0x90
.LBB1_55:                               #   in Loop: Header=BB1_53 Depth=3
	addq	$1, %rsi
	cmpq	%rsi, %r9
	je	.LBB1_56
.LBB1_53:                               # %.lr.ph252
                                        #   Parent Loop BB1_27 Depth=1
                                        #     Parent Loop BB1_33 Depth=2
                                        # =>    This Inner Loop Header: Depth=3
	movl	(%r8,%rsi,4), %eax
	movl	(%r13,%rax,4), %eax
	cmpl	%eax, %ecx
	je	.LBB1_55
# %bb.54:                               #   in Loop: Header=BB1_53 Depth=3
	leaq	(%r15,%rsi), %rcx
	movl	%ecx, %ebx
	sarl	$5, %ebx
	movl	$1, %edx
                                        # kill: def $cl killed $cl killed $rcx
	shll	%cl, %edx
	movslq	%ebx, %rcx
	orl	%edx, (%r14,%rcx,4)
	movl	%eax, %ecx
	jmp	.LBB1_55
	.p2align	4, 0x90
.LBB1_57:                               #   in Loop: Header=BB1_27 Depth=1
	cmpl	$4, -68(%rbp)                   # 4-byte Folded Reload
	jge	.LBB1_58
# %bb.61:                               # %.thread220
                                        #   in Loop: Header=BB1_27 Depth=1
	addl	%edx, %edx
	cmpl	%r8d, %edx
	movq	-80(%rbp), %r15                 # 8-byte Reload
	jg	.LBB1_63
# %bb.62:                               # %.thread220
                                        #   in Loop: Header=BB1_27 Depth=1
	testl	%r10d, %r10d
	jne	.LBB1_27
	jmp	.LBB1_63
.LBB1_28:                               #   in Loop: Header=BB1_27 Depth=1
	movq	stderr(%rip), %rdi
	movl	$.L.str.3, %esi
	xorl	%eax, %eax
	callq	fprintf
	movl	-44(%rbp), %edx                 # 4-byte Reload
	movq	-56(%rbp), %r8                  # 8-byte Reload
	movq	-64(%rbp), %rdi                 # 8-byte Reload
	testl	%r8d, %r8d
	jg	.LBB1_30
	jmp	.LBB1_32
.LBB1_58:                               #   in Loop: Header=BB1_27 Depth=1
	movq	stderr(%rip), %rdi
	movl	$.L.str.4, %esi
	movl	%r10d, %edx
	xorl	%eax, %eax
	movq	%r10, %rbx
	callq	fprintf
	movl	-44(%rbp), %edx                 # 4-byte Reload
	movq	-56(%rbp), %r8                  # 8-byte Reload
	movq	-64(%rbp), %rdi                 # 8-byte Reload
	addl	%edx, %edx
	cmpl	%r8d, %edx
	movq	-80(%rbp), %r15                 # 8-byte Reload
	jg	.LBB1_60
# %bb.59:                               #   in Loop: Header=BB1_27 Depth=1
	movq	%rbx, %rax
	testl	%eax, %eax
	jne	.LBB1_27
.LBB1_60:
	movq	stderr(%rip), %rcx
	movl	$.L.str.5, %edi
	movl	$33, %esi
	movl	$1, %edx
	callq	fwrite
	movq	-56(%rbp), %r8                  # 8-byte Reload
	movq	-64(%rbp), %rdi                 # 8-byte Reload
.LBB1_63:                               # %.thread222
	testl	%r8d, %r8d
	jle	.LBB1_69
# %bb.64:                               # %.lr.ph.preheader
	xorl	%edx, %edx
	movabsq	$-4294967296, %rax              # imm = 0xFFFFFFFF00000000
	movabsq	$4294967296, %rcx               # imm = 0x100000000
	xorl	%esi, %esi
	.p2align	4, 0x90
.LBB1_65:                               # %.lr.ph
                                        # =>This Loop Header: Depth=1
                                        #     Child Loop BB1_66 Depth 2
	movslq	%edx, %rdx
	movq	%rdx, %rbx
	shlq	$32, %rbx
	addq	%rax, %rbx
	addq	$-1, %rdx
	.p2align	4, 0x90
.LBB1_66:                               #   Parent Loop BB1_65 Depth=1
                                        # =>  This Inner Loop Header: Depth=2
	addq	%rcx, %rbx
	cmpl	$0, -2140(%rbp,%rdx,4)
	leaq	1(%rdx), %rdx
	je	.LBB1_66
# %bb.67:                               #   in Loop: Header=BB1_65 Depth=1
	sarq	$30, %rbx
	addl	$-1, -2144(%rbp,%rbx)
	movl	(%rdi,%rsi,4), %ebx
	movb	%dl, (%r13,%rbx)
	addq	$1, %rsi
	cmpq	%r15, %rsi
	jne	.LBB1_65
# %bb.68:
	cmpl	$256, %edx                      # imm = 0x100
	jge	.LBB1_70
.LBB1_69:                               # %.thread287
	addq	$2104, %rsp                     # imm = 0x838
	popq	%rbx
	popq	%r12
	popq	%r13
	popq	%r14
	popq	%r15
	popq	%rbp
	.cfi_def_cfa %rsp, 8
	retq
.LBB1_1:
	.cfi_def_cfa %rbp, 16
	movq	stderr(%rip), %rcx
	movl	$.L.str.2, %edi
	movl	$27, %esi
	movl	$1, %edx
	callq	fwrite
	jmp	.LBB1_2
.LBB1_70:
	movl	$1005, %edi                     # imm = 0x3ED
	callq	BZ2_bz__AssertH__fail
.Lfunc_end1:
	.size	fallbackSort, .Lfunc_end1-fallbackSort
	.cfi_endproc
                                        # -- End function
	.p2align	4, 0x90                         # -- Begin function mainSort
	.type	mainSort,@function
mainSort:                               # @mainSort
	.cfi_startproc
# %bb.0:
	pushq	%rbp
	.cfi_def_cfa_offset 16
	.cfi_offset %rbp, -16
	movq	%rsp, %rbp
	.cfi_def_cfa_register %rbp
	pushq	%r15
	pushq	%r14
	pushq	%r13
	pushq	%r12
	pushq	%rbx
	subq	$3464, %rsp                     # imm = 0xD88
	.cfi_offset %rbx, -56
	.cfi_offset %r12, -48
	.cfi_offset %r13, -40
	.cfi_offset %r14, -32
	.cfi_offset %r15, -24
	movl	%r8d, %r15d
	movq	%rcx, %r14
	movq	%rdx, -72(%rbp)                 # 8-byte Spill
	movq	%rsi, %r12
	movq	%rdi, %r13
	movq	16(%rbp), %rax
	movq	%rax, -96(%rbp)                 # 8-byte Spill
	movl	%r8d, %eax
	movq	%rax, -120(%rbp)                # 8-byte Spill
	movl	%r9d, -44(%rbp)                 # 4-byte Spill
	cmpl	$4, %r9d
	jge	.LBB2_1
.LBB2_2:                                # %.lr.ph402.preheader
	xorl	%ebx, %ebx
	movl	$262148, %edx                   # imm = 0x40004
	movq	%r14, %rdi
	xorl	%esi, %esi
	callq	memset@PLT
	movzbl	(%r12), %eax
	shll	$8, %eax
	leal	-1(%r15), %r11d
	leal	-2(%r15), %r8d
	leal	-3(%r15), %r9d
	leal	-4(%r15), %r10d
	movq	-72(%rbp), %rsi                 # 8-byte Reload
	movq	-120(%rbp), %rdi                # 8-byte Reload
	.p2align	4, 0x90
.LBB2_3:                                # %.lr.ph402
                                        # =>This Inner Loop Header: Depth=1
	movq	%rbx, %rcx
	addl	%r11d, %ebx
	movw	$0, (%rsi,%rbx,2)
	sarl	$8, %eax
	movzbl	(%r12,%rbx), %ebx
	shlq	$8, %rbx
	cltq
	orq	%rbx, %rax
	addl	$1, (%r14,%rax,4)
	leal	(%r8,%rcx), %ebx
	movw	$0, (%rsi,%rbx,2)
	sarl	$8, %eax
	movzbl	(%r12,%rbx), %ebx
	shlq	$8, %rbx
	cltq
	orq	%rbx, %rax
	addl	$1, (%r14,%rax,4)
	leal	(%r9,%rcx), %ebx
	movw	$0, (%rsi,%rbx,2)
	sarl	$8, %eax
	movzbl	(%r12,%rbx), %ebx
	shlq	$8, %rbx
	cltq
	orq	%rbx, %rax
	addl	$1, (%r14,%rax,4)
	leal	(%r10,%rcx), %ebx
	movw	$0, (%rsi,%rbx,2)
	sarl	$8, %eax
	movzbl	(%r12,%rbx), %ebx
	shlq	$8, %rbx
	cltq
	orq	%rbx, %rax
	addl	$1, (%r14,%rax,4)
	leaq	-4(%rcx), %rbx
	leal	(%rdi,%rbx), %edx
	addl	$3, %edx
	cmpl	$6, %edx
	jg	.LBB2_3
# %bb.4:                                # %._crit_edge403
	leaq	(%rdi,%rbx), %rdx
	addl	$3, %edx
	cmpl	$4, %edx
	jl	.LBB2_10
# %bb.5:                                # %.lr.ph397.preheader
	leal	-5(%r15), %edx
	movslq	%edx, %r9
	leaq	(%r9,%rbx), %rdx
	addq	$4, %rdx
	leaq	(%rdi,%rbx), %r8
	addq	$-1, %r8
	testb	$1, %dl
	jne	.LBB2_7
# %bb.6:                                # %.lr.ph397.prol.preheader
	leaq	(%rsi,%r9,2), %rdx
	addq	$8, %rdx
	movw	$0, -8(%rdx,%rcx,2)
	sarl	$8, %eax
	leaq	(%r12,%r9), %rdx
	addq	$4, %rdx
	movzbl	-4(%rcx,%rdx), %ecx
	shlq	$8, %rcx
	cltq
	orq	%rcx, %rax
	addl	$1, (%r14,%rax,4)
	leaq	(%r9,%rbx), %rdx
	addq	$3, %rdx
.LBB2_7:                                # %.lr.ph397.prol.loopexit
	testl	%r8d, %r8d
	je	.LBB2_10
# %bb.8:                                # %.lr.ph397.preheader4
	addq	$2, %rdx
	.p2align	4, 0x90
.LBB2_9:                                # %.lr.ph397
                                        # =>This Inner Loop Header: Depth=1
	movw	$0, -4(%rsi,%rdx,2)
	sarl	$8, %eax
	movzbl	-2(%r12,%rdx), %ecx
	shlq	$8, %rcx
	cltq
	orq	%rcx, %rax
	addl	$1, (%r14,%rax,4)
	movw	$0, -6(%rsi,%rdx,2)
	sarl	$8, %eax
	movzbl	-3(%r12,%rdx), %ecx
	shlq	$8, %rcx
	cltq
	orq	%rcx, %rax
	addl	$1, (%r14,%rax,4)
	addq	$-2, %rdx
	cmpq	$1, %rdx
	jg	.LBB2_9
.LBB2_10:                               # %._crit_edge398
	movslq	%r15d, %rax
	leaq	1(%r12), %rcx
	leaq	(%rsi,%rax,2), %rdx
	movl	$2, %esi
	.p2align	4, 0x90
.LBB2_11:                               # =>This Inner Loop Header: Depth=1
	movzbl	-1(%rcx), %ebx
	movb	%bl, -1(%rcx,%rax)
	movw	$0, -2(%rdx,%rsi)
	movzbl	(%rcx), %ebx
	movb	%bl, (%rcx,%rax)
	movw	$0, (%rdx,%rsi)
	addq	$2, %rcx
	addq	$4, %rsi
	cmpq	$70, %rsi
	jne	.LBB2_11
# %bb.12:
	cmpl	$4, -44(%rbp)                   # 4-byte Folded Reload
	movq	%r15, -64(%rbp)                 # 8-byte Spill
	movq	%r11, -144(%rbp)                # 8-byte Spill
	jge	.LBB2_13
.LBB2_14:
	movl	(%r14), %eax
	xorl	%ecx, %ecx
	.p2align	4, 0x90
.LBB2_15:                               # =>This Inner Loop Header: Depth=1
	addl	4(%r14,%rcx,4), %eax
	movl	%eax, 4(%r14,%rcx,4)
	addl	8(%r14,%rcx,4), %eax
	movl	%eax, 8(%r14,%rcx,4)
	addl	12(%r14,%rcx,4), %eax
	movl	%eax, 12(%r14,%rcx,4)
	addl	16(%r14,%rcx,4), %eax
	movl	%eax, 16(%r14,%rcx,4)
	addq	$4, %rcx
	cmpq	$65536, %rcx                    # imm = 0x10000
	jne	.LBB2_15
# %bb.16:                               # %.lr.ph388.preheader
	movzbl	(%r12), %ecx
	shll	$8, %ecx
	leal	3(%r15), %eax
	.p2align	4, 0x90
.LBB2_17:                               # %.lr.ph388
                                        # =>This Inner Loop Header: Depth=1
	movl	%eax, %edx
	leal	-4(%rdx), %eax
	movzbl	(%r12,%rax), %esi
	shldw	$8, %cx, %si
	movzwl	%si, %ecx
	movl	(%r14,%rcx,4), %esi
	addl	$-1, %esi
	movl	%esi, (%r14,%rcx,4)
	movslq	%esi, %rsi
	movl	%eax, (%r13,%rsi,4)
	leal	-5(%rdx), %esi
	movzbl	(%r12,%rsi), %edi
	shrdw	$8, %di, %cx
	movzwl	%cx, %ecx
	movl	(%r14,%rcx,4), %edi
	addl	$-1, %edi
	movl	%edi, (%r14,%rcx,4)
	movslq	%edi, %rdi
	movl	%esi, (%r13,%rdi,4)
	leal	-6(%rdx), %esi
	movzbl	(%r12,%rsi), %edi
	shrdw	$8, %di, %cx
	movzwl	%cx, %ecx
	movl	(%r14,%rcx,4), %edi
	addl	$-1, %edi
	movl	%edi, (%r14,%rcx,4)
	movslq	%edi, %rdi
	movl	%esi, (%r13,%rdi,4)
	addl	$-7, %edx
	movzbl	(%r12,%rdx), %esi
	shrdw	$8, %si, %cx
	movzwl	%cx, %esi
	movl	(%r14,%rsi,4), %edi
	addl	$-1, %edi
	movl	%edi, (%r14,%rsi,4)
	movslq	%edi, %rsi
	movl	%edx, (%r13,%rsi,4)
	cmpl	$6, %eax
	jg	.LBB2_17
# %bb.18:                               # %._crit_edge389
	cmpl	$4, %eax
	jl	.LBB2_21
# %bb.19:                               # %.lr.ph384.preheader
	addl	$-4, %eax
	movl	%eax, %edx
	addq	$1, %rdx
	.p2align	4, 0x90
.LBB2_20:                               # %.lr.ph384
                                        # =>This Inner Loop Header: Depth=1
	movzbl	-1(%r12,%rdx), %esi
	shrdw	$8, %si, %cx
	movzwl	%cx, %esi
	movl	(%r14,%rsi,4), %edi
	addl	$-1, %edi
	movl	%edi, (%r14,%rsi,4)
	movslq	%edi, %rsi
	movl	%eax, (%r13,%rsi,4)
	addl	$-1, %eax
	addq	$-1, %rdx
	jg	.LBB2_20
.LBB2_21:                               # %.preheader349
	movq	%r13, -112(%rbp)                # 8-byte Spill
	movq	%r12, -88(%rbp)                 # 8-byte Spill
	xorps	%xmm0, %xmm0
	movaps	%xmm0, -176(%rbp)
	movaps	%xmm0, -192(%rbp)
	movaps	%xmm0, -208(%rbp)
	movaps	%xmm0, -224(%rbp)
	movaps	%xmm0, -240(%rbp)
	movaps	%xmm0, -256(%rbp)
	movaps	%xmm0, -272(%rbp)
	movaps	%xmm0, -288(%rbp)
	movaps	%xmm0, -304(%rbp)
	movaps	%xmm0, -320(%rbp)
	movaps	%xmm0, -336(%rbp)
	movaps	%xmm0, -352(%rbp)
	movaps	%xmm0, -368(%rbp)
	movaps	%xmm0, -384(%rbp)
	movaps	%xmm0, -400(%rbp)
	movaps	%xmm0, -416(%rbp)
	xorl	%eax, %eax
	.p2align	4, 0x90
.LBB2_22:                               # =>This Inner Loop Header: Depth=1
	movl	%eax, -1440(%rbp,%rax,4)
	leal	1(%rax), %ecx
	movl	%ecx, -1436(%rbp,%rax,4)
	leal	2(%rax), %ecx
	movl	%ecx, -1432(%rbp,%rax,4)
	leal	3(%rax), %ecx
	movl	%ecx, -1428(%rbp,%rax,4)
	leal	4(%rax), %ecx
	movl	%ecx, -1424(%rbp,%rax,4)
	leal	5(%rax), %ecx
	movl	%ecx, -1420(%rbp,%rax,4)
	leal	6(%rax), %ecx
	movl	%ecx, -1416(%rbp,%rax,4)
	leal	7(%rax), %ecx
	movl	%ecx, -1412(%rbp,%rax,4)
	addq	$8, %rax
	cmpq	$256, %rax                      # imm = 0x100
	jne	.LBB2_22
# %bb.23:                               # %.preheader348.preheader
	movl	$364, %r8d                      # imm = 0x16C
	jmp	.LBB2_24
	.p2align	4, 0x90
.LBB2_31:                               # %._crit_edge379
                                        #   in Loop: Header=BB2_24 Depth=1
	addl	$-3, %r8d
	cmpl	$2, %r8d
	movl	%r12d, %r8d
	jbe	.LBB2_32
.LBB2_24:                               # %.preheader348
                                        # =>This Loop Header: Depth=1
                                        #     Child Loop BB2_26 Depth 2
                                        #       Child Loop BB2_27 Depth 3
	movslq	%r8d, %rax
	imulq	$1431655766, %rax, %r12         # imm = 0x55555556
	movq	%r12, %rax
	shrq	$63, %rax
	shrq	$32, %r12
	addl	%eax, %r12d
	movslq	%r12d, %r15
	cmpl	$256, %r15d                     # imm = 0x100
	movl	$256, %r9d                      # imm = 0x100
	cmovgl	%r15d, %r9d
	cmpq	%r9, %r15
	je	.LBB2_31
# %bb.25:                               # %.lr.ph378.preheader
                                        #   in Loop: Header=BB2_24 Depth=1
	xorl	%r11d, %r11d
	jmp	.LBB2_26
	.p2align	4, 0x90
.LBB2_28:                               # %._crit_edge427
                                        #   in Loop: Header=BB2_26 Depth=2
	movslq	%edi, %rax
.LBB2_30:                               # %split
                                        #   in Loop: Header=BB2_26 Depth=2
	movl	%r10d, -1440(%rbp,%rax,4)
	addq	$1, %r15
	addl	$1, %r11d
	cmpq	%r9, %r15
	je	.LBB2_31
.LBB2_26:                               # %.lr.ph378
                                        #   Parent Loop BB2_24 Depth=1
                                        # =>  This Loop Header: Depth=2
                                        #       Child Loop BB2_27 Depth 3
	movl	-1440(%rbp,%r15,4), %r10d
	movl	%r10d, %eax
	shll	$8, %eax
	leal	256(%rax), %edx
	movslq	%edx, %rdx
	movl	(%r14,%rdx,4), %r13d
	cltq
	subl	(%r14,%rax,4), %r13d
	movl	%r11d, %ebx
	.p2align	4, 0x90
.LBB2_27:                               #   Parent Loop BB2_24 Depth=1
                                        #     Parent Loop BB2_26 Depth=2
                                        # =>    This Inner Loop Header: Depth=3
	leal	(%r12,%rbx), %edi
	movslq	%ebx, %rax
	movl	-1440(%rbp,%rax,4), %edx
	movl	%edx, %ecx
	shll	$8, %ecx
	leal	256(%rcx), %esi
	movslq	%esi, %rsi
	movl	(%r14,%rsi,4), %esi
	movslq	%ecx, %rcx
	subl	(%r14,%rcx,4), %esi
	cmpl	%r13d, %esi
	jbe	.LBB2_28
# %bb.29:                               #   in Loop: Header=BB2_27 Depth=3
	movslq	%edi, %rcx
	movl	%edx, -1440(%rbp,%rcx,4)
	subl	%r12d, %ebx
	jge	.LBB2_27
	jmp	.LBB2_30
.LBB2_32:                               # %.preheader347.preheader
	leaq	3072(%r14), %rax
	movq	%rax, -152(%rbp)                # 8-byte Spill
	movl	$-2097153, %edi                 # imm = 0xFFDFFFFF
	xorl	%eax, %eax
	movq	%rax, -56(%rbp)                 # 8-byte Spill
	xorl	%r15d, %r15d
	movq	-64(%rbp), %r10                 # 8-byte Reload
	movq	-72(%rbp), %r11                 # 8-byte Reload
	jmp	.LBB2_33
	.p2align	4, 0x90
.LBB2_84:                               # %._crit_edge372
                                        #   in Loop: Header=BB2_33 Depth=1
	addl	$-1, %eax
                                        # kill: def $cl killed $cl killed $ecx
	sarl	%cl, %eax
	cmpl	$65536, %eax                    # imm = 0x10000
	jge	.LBB2_90
.LBB2_85:                               #   in Loop: Header=BB2_33 Depth=1
	addq	$1, %r15
	cmpq	$256, %r15                      # imm = 0x100
	movl	$-2097153, %edi                 # imm = 0xFFDFFFFF
	je	.LBB2_86
.LBB2_33:                               # %.preheader347
                                        # =>This Loop Header: Depth=1
                                        #     Child Loop BB2_35 Depth 2
                                        #     Child Loop BB2_43 Depth 2
                                        #     Child Loop BB2_52 Depth 2
                                        #     Child Loop BB2_56 Depth 2
                                        #     Child Loop BB2_61 Depth 2
                                        #     Child Loop BB2_68 Depth 2
                                        #     Child Loop BB2_71 Depth 2
                                        #     Child Loop BB2_79 Depth 2
	movq	%r15, -160(%rbp)                # 8-byte Spill
	movl	-1440(%rbp,%r15,4), %r12d
	movl	%r12d, %eax
	shll	$8, %eax
	movl	%eax, -76(%rbp)                 # 4-byte Spill
	cltq
	cmpl	$3, -44(%rbp)                   # 4-byte Folded Reload
	movq	%rax, -128(%rbp)                # 8-byte Spill
	leaq	(%r14,%rax,4), %rcx
	jle	.LBB2_34
# %bb.42:                               # %.split.us.preheader
                                        #   in Loop: Header=BB2_33 Depth=1
	xorl	%r15d, %r15d
	jmp	.LBB2_43
	.p2align	4, 0x90
.LBB2_34:                               # %.split.preheader
                                        #   in Loop: Header=BB2_33 Depth=1
	xorl	%r13d, %r13d
	movq	%rcx, -104(%rbp)                # 8-byte Spill
	jmp	.LBB2_35
	.p2align	4, 0x90
.LBB2_40:                               #   in Loop: Header=BB2_35 Depth=2
	orl	$2097152, %eax                  # imm = 0x200000
	movl	%eax, (%rcx,%r13,4)
.LBB2_41:                               #   in Loop: Header=BB2_35 Depth=2
	addq	$1, %r13
	cmpq	$256, %r13                      # imm = 0x100
	je	.LBB2_50
.LBB2_35:                               # %.split
                                        #   Parent Loop BB2_33 Depth=1
                                        # =>  This Inner Loop Header: Depth=2
	cmpq	%r13, %r12
	je	.LBB2_41
# %bb.36:                               #   in Loop: Header=BB2_35 Depth=2
	movl	(%rcx,%r13,4), %eax
	testl	$2097152, %eax                  # imm = 0x200000
	jne	.LBB2_40
# %bb.37:                               #   in Loop: Header=BB2_35 Depth=2
	movl	%eax, %r15d
	andl	$-2097153, %r15d                # imm = 0xFFDFFFFF
	movl	4(%rcx,%r13,4), %ebx
	andl	%edi, %ebx
	addl	$-1, %ebx
	cmpl	%r15d, %ebx
	jle	.LBB2_40
# %bb.38:                               #   in Loop: Header=BB2_35 Depth=2
	movq	-96(%rbp), %rax                 # 8-byte Reload
	movq	%rax, (%rsp)
	movq	-112(%rbp), %rdi                # 8-byte Reload
	movq	-88(%rbp), %rsi                 # 8-byte Reload
	movq	%r11, %rdx
	movl	%r10d, %ecx
	movl	%r15d, %r8d
	movl	%ebx, %r9d
	callq	mainQSort3
	movq	-96(%rbp), %rax                 # 8-byte Reload
	cmpl	$0, (%rax)
	js	.LBB2_87
# %bb.39:                               # %._crit_edge421
                                        #   in Loop: Header=BB2_35 Depth=2
	movq	-56(%rbp), %rax                 # 8-byte Reload
	subl	%r15d, %eax
	addl	%ebx, %eax
	addl	$1, %eax
	movq	%rax, -56(%rbp)                 # 8-byte Spill
	movq	-104(%rbp), %rcx                # 8-byte Reload
	movl	(%rcx,%r13,4), %eax
	movq	-64(%rbp), %r10                 # 8-byte Reload
	movq	-72(%rbp), %r11                 # 8-byte Reload
	movl	$-2097153, %edi                 # imm = 0xFFDFFFFF
	jmp	.LBB2_40
.LBB2_47:                               # %._crit_edge423
                                        #   in Loop: Header=BB2_43 Depth=2
	movq	-56(%rbp), %rax                 # 8-byte Reload
	addl	-136(%rbp), %eax                # 4-byte Folded Reload
	addl	%ebx, %eax
	addl	$1, %eax
	movq	%rax, -56(%rbp)                 # 8-byte Spill
	movq	-104(%rbp), %rcx                # 8-byte Reload
	movl	(%rcx,%r15,4), %eax
	movq	-64(%rbp), %r10                 # 8-byte Reload
	movq	-72(%rbp), %r11                 # 8-byte Reload
	movl	$-2097153, %edi                 # imm = 0xFFDFFFFF
	.p2align	4, 0x90
.LBB2_48:                               #   in Loop: Header=BB2_43 Depth=2
	orl	$2097152, %eax                  # imm = 0x200000
	movl	%eax, (%rcx,%r15,4)
.LBB2_49:                               #   in Loop: Header=BB2_43 Depth=2
	addq	$1, %r15
	cmpq	$256, %r15                      # imm = 0x100
	je	.LBB2_50
.LBB2_43:                               # %.split.us
                                        #   Parent Loop BB2_33 Depth=1
                                        # =>  This Inner Loop Header: Depth=2
	cmpq	%r15, %r12
	je	.LBB2_49
# %bb.44:                               #   in Loop: Header=BB2_43 Depth=2
	movl	(%rcx,%r15,4), %eax
	testl	$2097152, %eax                  # imm = 0x200000
	jne	.LBB2_48
# %bb.45:                               #   in Loop: Header=BB2_43 Depth=2
	movl	%eax, %r13d
	andl	$-2097153, %r13d                # imm = 0xFFDFFFFF
	movl	4(%rcx,%r15,4), %ebx
	andl	%edi, %ebx
	addl	$-1, %ebx
	cmpl	%r13d, %ebx
	jle	.LBB2_48
# %bb.46:                               #   in Loop: Header=BB2_43 Depth=2
	movq	%rcx, -104(%rbp)                # 8-byte Spill
	movl	%r13d, %eax
	negl	%eax
	movq	%rax, -136(%rbp)                # 8-byte Spill
	leal	(%rax,%rbx), %r9d
	addl	$1, %r9d
	movq	stderr(%rip), %rdi
	movl	$.L.str.7, %esi
	movl	%r12d, %edx
	movl	%r15d, %ecx
	movq	-56(%rbp), %r8                  # 8-byte Reload
                                        # kill: def $r8d killed $r8d killed $r8
	xorl	%eax, %eax
	callq	fprintf
	movq	-96(%rbp), %rax                 # 8-byte Reload
	movq	%rax, (%rsp)
	movq	-112(%rbp), %rdi                # 8-byte Reload
	movq	-88(%rbp), %rsi                 # 8-byte Reload
	movq	-72(%rbp), %rdx                 # 8-byte Reload
	movq	-120(%rbp), %rcx                # 8-byte Reload
                                        # kill: def $ecx killed $ecx killed $rcx
	movl	%r13d, %r8d
	movl	%ebx, %r9d
	callq	mainQSort3
	movq	-96(%rbp), %rax                 # 8-byte Reload
	cmpl	$0, (%rax)
	jns	.LBB2_47
	jmp	.LBB2_87
	.p2align	4, 0x90
.LBB2_50:                               # %.us-lcssa.us
                                        #   in Loop: Header=BB2_33 Depth=1
	movslq	%r12d, %r9
	cmpb	$0, -416(%rbp,%r9)
	movq	-112(%rbp), %r13                # 8-byte Reload
	jne	.LBB2_88
# %bb.51:                               # %.preheader
                                        #   in Loop: Header=BB2_33 Depth=1
	addl	$1, %r12d
	leaq	(%r14,%r9,4), %rcx
	xorl	%edx, %edx
	movq	-128(%rbp), %rax                # 8-byte Reload
	.p2align	4, 0x90
.LBB2_52:                               #   Parent Loop BB2_33 Depth=1
                                        # =>  This Inner Loop Header: Depth=2
	movl	(%rcx), %esi
	andl	%edi, %esi
	movl	%esi, -3488(%rbp,%rdx,4)
	movslq	%r12d, %r12
	movl	(%r14,%r12,4), %esi
	andl	%edi, %esi
	addl	$-1, %esi
	movl	%esi, -2464(%rbp,%rdx,4)
	addq	$1, %rdx
	addq	$1024, %rcx                     # imm = 0x400
	addl	$256, %r12d                     # imm = 0x100
	cmpq	$256, %rdx                      # imm = 0x100
	jne	.LBB2_52
# %bb.53:                               #   in Loop: Header=BB2_33 Depth=1
	movslq	(%r14,%rax,4), %rdx
	andq	$-2097153, %rdx                 # imm = 0xFFDFFFFF
	movl	-3488(%rbp,%r9,4), %ecx
	movl	$-2097153, %r12d                # imm = 0xFFDFFFFF
	cmpl	%ecx, %edx
	jge	.LBB2_54
# %bb.55:                               # %.lr.ph.preheader
                                        #   in Loop: Header=BB2_33 Depth=1
	movq	-88(%rbp), %r15                 # 8-byte Reload
	movl	-76(%rbp), %eax                 # 4-byte Reload
	jmp	.LBB2_56
	.p2align	4, 0x90
.LBB2_58:                               #   in Loop: Header=BB2_56 Depth=2
	addq	$1, %rdx
	movslq	%ecx, %rsi
	cmpq	%rsi, %rdx
	jge	.LBB2_59
.LBB2_56:                               # %.lr.ph
                                        #   Parent Loop BB2_33 Depth=1
                                        # =>  This Inner Loop Header: Depth=2
	movl	(%r13,%rdx,4), %esi
	leal	-1(%rsi), %edi
	sarl	$31, %edi
	andl	%r10d, %edi
	addl	%edi, %esi
	addl	$-1, %esi
	movslq	%esi, %rdi
	movzbl	(%r15,%rdi), %edi
	cmpb	$0, -416(%rbp,%rdi)
	jne	.LBB2_58
# %bb.57:                               #   in Loop: Header=BB2_56 Depth=2
	movslq	-3488(%rbp,%rdi,4), %rcx
	leal	1(%rcx), %ebx
	movl	%ebx, -3488(%rbp,%rdi,4)
	movl	%esi, (%r13,%rcx,4)
	movl	-3488(%rbp,%r9,4), %ecx
	jmp	.LBB2_58
	.p2align	4, 0x90
.LBB2_54:                               #   in Loop: Header=BB2_33 Depth=1
	movq	-88(%rbp), %r15                 # 8-byte Reload
	movl	-76(%rbp), %eax                 # 4-byte Reload
.LBB2_59:                               # %._crit_edge
                                        #   in Loop: Header=BB2_33 Depth=1
	addl	$256, %eax                      # imm = 0x100
	movslq	%eax, %r8
	movl	(%r14,%r8,4), %edx
	andl	%r12d, %edx
	addl	$-1, %edx
	movl	-2464(%rbp,%r9,4), %esi
	cmpl	%esi, %edx
	jle	.LBB2_64
# %bb.60:                               # %.lr.ph365.preheader
                                        #   in Loop: Header=BB2_33 Depth=1
	movslq	%edx, %rdi
	jmp	.LBB2_61
	.p2align	4, 0x90
.LBB2_63:                               #   in Loop: Header=BB2_61 Depth=2
	addq	$-1, %rdi
	movslq	%esi, %rax
	cmpq	%rax, %rdi
	jle	.LBB2_64
.LBB2_61:                               # %.lr.ph365
                                        #   Parent Loop BB2_33 Depth=1
                                        # =>  This Inner Loop Header: Depth=2
	movl	(%r13,%rdi,4), %edx
	leal	-1(%rdx), %ebx
	sarl	$31, %ebx
	andl	%r10d, %ebx
	addl	%edx, %ebx
	addl	$-1, %ebx
	movslq	%ebx, %rdx
	movzbl	(%r15,%rdx), %edx
	cmpb	$0, -416(%rbp,%rdx)
	jne	.LBB2_63
# %bb.62:                               #   in Loop: Header=BB2_61 Depth=2
	movslq	-2464(%rbp,%rdx,4), %rsi
	leal	-1(%rsi), %eax
	movl	%eax, -2464(%rbp,%rdx,4)
	movl	%ebx, (%r13,%rsi,4)
	movl	-2464(%rbp,%r9,4), %esi
	jmp	.LBB2_63
	.p2align	4, 0x90
.LBB2_64:                               # %._crit_edge366
                                        #   in Loop: Header=BB2_33 Depth=1
	leal	-1(%rcx), %eax
	cmpl	%esi, %eax
	je	.LBB2_67
# %bb.65:                               #   in Loop: Header=BB2_33 Depth=1
	testl	%ecx, %ecx
	jne	.LBB2_89
# %bb.66:                               #   in Loop: Header=BB2_33 Depth=1
	cmpl	-144(%rbp), %esi                # 4-byte Folded Reload
	jne	.LBB2_89
.LBB2_67:                               #   in Loop: Header=BB2_33 Depth=1
	movq	-152(%rbp), %rax                # 8-byte Reload
	leaq	(%rax,%r9,4), %rcx
	xorl	%esi, %esi
	movq	-160(%rbp), %r15                # 8-byte Reload
	.p2align	4, 0x90
.LBB2_68:                               #   Parent Loop BB2_33 Depth=1
                                        # =>  This Inner Loop Header: Depth=2
	orb	$32, -3070(%rcx,%rsi)
	orb	$32, -2046(%rcx,%rsi)
	orb	$32, -1022(%rcx,%rsi)
	orb	$32, 2(%rcx,%rsi)
	addq	$4096, %rsi                     # imm = 0x1000
	cmpq	$262144, %rsi                   # imm = 0x40000
	jne	.LBB2_68
# %bb.69:                               #   in Loop: Header=BB2_33 Depth=1
	movb	$1, -416(%rbp,%r9)
	cmpq	$254, %r15
	ja	.LBB2_85
# %bb.70:                               #   in Loop: Header=BB2_33 Depth=1
	movq	-128(%rbp), %rax                # 8-byte Reload
	movslq	(%r14,%rax,4), %rsi
	andq	$-2097153, %rsi                 # imm = 0xFFDFFFFF
	movl	(%r14,%r8,4), %edi
	movl	$-2097153, %eax                 # imm = 0xFFDFFFFF
	andl	%eax, %edi
	movl	%edi, %eax
	subl	%esi, %eax
	movl	$-1, %ecx
	.p2align	4, 0x90
.LBB2_71:                               #   Parent Loop BB2_33 Depth=1
                                        # =>  This Inner Loop Header: Depth=2
	addl	$1, %ecx
	movl	%eax, %edx
	sarl	%cl, %edx
	cmpl	$65534, %edx                    # imm = 0xFFFE
	jg	.LBB2_71
# %bb.72:                               #   in Loop: Header=BB2_33 Depth=1
	movl	%esi, %edx
	notl	%edx
	addl	%edx, %edi
	js	.LBB2_84
# %bb.73:                               # %.lr.ph371.preheader
                                        #   in Loop: Header=BB2_33 Depth=1
	movslq	%edi, %rdx
	testb	$1, %dl
	jne	.LBB2_77
# %bb.74:                               # %.lr.ph371.prol.preheader
                                        #   in Loop: Header=BB2_33 Depth=1
	movl	%edx, %r8d
	shrl	%cl, %r8d
	leaq	(%rdx,%rsi), %rbx
	movslq	(%r13,%rbx,4), %rbx
	movw	%r8w, (%r11,%rbx,2)
	cmpq	$33, %rbx
	jg	.LBB2_76
# %bb.75:                               #   in Loop: Header=BB2_33 Depth=1
	addl	%r10d, %ebx
	movslq	%ebx, %rbx
	movw	%r8w, (%r11,%rbx,2)
.LBB2_76:                               #   in Loop: Header=BB2_33 Depth=1
	addq	$-1, %rdx
.LBB2_77:                               # %.lr.ph371.prol.loopexit.unr-lcssa
                                        #   in Loop: Header=BB2_33 Depth=1
	testl	%edi, %edi
	je	.LBB2_84
# %bb.78:                               # %.lr.ph371.preheader1
                                        #   in Loop: Header=BB2_33 Depth=1
	leaq	(,%rsi,4), %rsi
	addq	%r13, %rsi
	jmp	.LBB2_79
	.p2align	4, 0x90
.LBB2_83:                               #   in Loop: Header=BB2_79 Depth=2
	leaq	1(%rdx), %rdi
	addq	$-1, %rdx
	cmpq	$1, %rdi
	jle	.LBB2_84
.LBB2_79:                               # %.lr.ph371
                                        #   Parent Loop BB2_33 Depth=1
                                        # =>  This Inner Loop Header: Depth=2
	movl	%edx, %edi
	sarl	%cl, %edi
	movslq	(%rsi,%rdx,4), %rbx
	movw	%di, (%r11,%rbx,2)
	cmpq	$33, %rbx
	jg	.LBB2_81
# %bb.80:                               #   in Loop: Header=BB2_79 Depth=2
	addl	%r10d, %ebx
	movslq	%ebx, %rbx
	movw	%di, (%r11,%rbx,2)
.LBB2_81:                               # %.lr.ph371.1
                                        #   in Loop: Header=BB2_79 Depth=2
	movslq	-4(%rsi,%rdx,4), %rdi
	addq	$-1, %rdx
	movl	%edx, %ebx
	sarl	%cl, %ebx
	movw	%bx, (%r11,%rdi,2)
	cmpq	$34, %rdi
	jge	.LBB2_83
# %bb.82:                               #   in Loop: Header=BB2_79 Depth=2
	addl	%r10d, %edi
	movslq	%edi, %rdi
	movw	%bx, (%r11,%rdi,2)
	jmp	.LBB2_83
.LBB2_86:
	cmpl	$4, -44(%rbp)                   # 4-byte Folded Reload
	jge	.LBB2_91
.LBB2_87:                               # %.loopexit
	addq	$3464, %rsp                     # imm = 0xD88
	popq	%rbx
	popq	%r12
	popq	%r13
	popq	%r14
	popq	%r15
	popq	%rbp
	.cfi_def_cfa %rsp, 8
	retq
.LBB2_1:
	.cfi_def_cfa %rbp, 16
	movq	stderr(%rip), %rcx
	movl	$.L.str.6, %edi
	movl	$33, %esi
	movl	$1, %edx
	callq	fwrite
	jmp	.LBB2_2
.LBB2_13:
	movq	stderr(%rip), %rcx
	movl	$.L.str.2, %edi
	movl	$27, %esi
	movl	$1, %edx
	callq	fwrite
	movq	-64(%rbp), %r15                 # 8-byte Reload
	jmp	.LBB2_14
.LBB2_91:
	movq	-64(%rbp), %rdx                 # 8-byte Reload
	movl	%edx, %r8d
	movq	-56(%rbp), %rcx                 # 8-byte Reload
	subl	%ecx, %r8d
	movq	stderr(%rip), %rdi
	movl	$.L.str.8, %esi
                                        # kill: def $edx killed $edx killed $rdx
                                        # kill: def $ecx killed $ecx killed $rcx
	xorl	%eax, %eax
	addq	$3464, %rsp                     # imm = 0xD88
	popq	%rbx
	popq	%r12
	popq	%r13
	popq	%r14
	popq	%r15
	popq	%rbp
	.cfi_def_cfa %rsp, 8
	jmp	fprintf                         # TAILCALL
.LBB2_88:
	.cfi_def_cfa %rbp, 16
	movl	$1006, %edi                     # imm = 0x3EE
	callq	BZ2_bz__AssertH__fail
.LBB2_90:
	movl	$1002, %edi                     # imm = 0x3EA
	callq	BZ2_bz__AssertH__fail
.LBB2_89:
	movl	$1007, %edi                     # imm = 0x3EF
	callq	BZ2_bz__AssertH__fail
.Lfunc_end2:
	.size	mainSort, .Lfunc_end2-mainSort
	.cfi_endproc
                                        # -- End function
	.p2align	4, 0x90                         # -- Begin function mainQSort3
	.type	mainQSort3,@function
mainQSort3:                             # @mainQSort3
	.cfi_startproc
# %bb.0:
	pushq	%rbp
	.cfi_def_cfa_offset 16
	.cfi_offset %rbp, -16
	movq	%rsp, %rbp
	.cfi_def_cfa_register %rbp
	pushq	%r15
	pushq	%r14
	pushq	%r13
	pushq	%r12
	pushq	%rbx
	subq	$1272, %rsp                     # imm = 0x4F8
	.cfi_offset %rbx, -56
	.cfi_offset %r12, -48
	.cfi_offset %r13, -40
	.cfi_offset %r14, -32
	.cfi_offset %r15, -24
	movl	%ecx, -60(%rbp)                 # 4-byte Spill
	movq	%rdx, -104(%rbp)                # 8-byte Spill
	movq	%rsi, %r12
	movq	%rdi, %r15
	movl	%r8d, -1312(%rbp)
	movl	%r9d, -912(%rbp)
	movl	$2, -512(%rbp)
	leaq	4(%rdi), %rax
	movq	%rax, -72(%rbp)                 # 8-byte Spill
	movl	$1, %ecx
	jmp	.LBB3_1
	.p2align	4, 0x90
.LBB3_4:                                #   in Loop: Header=BB3_1 Depth=1
	movq	%r15, %rdi
	movq	%r12, %rsi
	movq	-104(%rbp), %rdx                # 8-byte Reload
	movl	-60(%rbp), %ecx                 # 4-byte Reload
	movl	%r13d, %r8d
                                        # kill: def $r9d killed $r9d killed $r9
	movq	16(%rbp), %rbx
	pushq	%rbx
	pushq	%r14
	callq	mainSimpleSort
	addq	$16, %rsp
	cmpl	$0, (%rbx)
	movq	-56(%rbp), %rdi                 # 8-byte Reload
	js	.LBB3_6
.LBB3_5:                                # %.backedge
                                        #   in Loop: Header=BB3_1 Depth=1
	movl	%edi, %ecx
	testl	%edi, %edi
	jle	.LBB3_6
.LBB3_1:                                # =>This Loop Header: Depth=1
                                        #     Child Loop BB3_11 Depth 2
                                        #       Child Loop BB3_12 Depth 3
                                        #     Child Loop BB3_20 Depth 2
                                        #       Child Loop BB3_21 Depth 3
                                        #     Child Loop BB3_36 Depth 2
                                        #     Child Loop BB3_42 Depth 2
	cmpl	$98, %ecx
	jge	.LBB3_53
# %bb.2:                                #   in Loop: Header=BB3_1 Depth=1
	leal	-1(%rcx), %eax
	movl	-1312(%rbp,%rax,4), %r13d
	movl	-912(%rbp,%rax,4), %r9d
	movq	%rax, -56(%rbp)                 # 8-byte Spill
	movl	-512(%rbp,%rax,4), %r14d
	movl	%r9d, %eax
	subl	%r13d, %eax
	cmpl	$20, %eax
	jl	.LBB3_4
# %bb.3:                                #   in Loop: Header=BB3_1 Depth=1
	cmpl	$15, %r14d
	jge	.LBB3_4
# %bb.7:                                #   in Loop: Header=BB3_1 Depth=1
	movq	%rcx, -96(%rbp)                 # 8-byte Spill
	movslq	%r13d, %rcx
	movslq	%r9d, %rax
	movq	%rcx, -48(%rbp)                 # 8-byte Spill
	movl	(%r15,%rcx,4), %ecx
	addl	%r14d, %ecx
	movzbl	(%r12,%rcx), %edi
	movl	(%r15,%rax,4), %eax
	addl	%r14d, %eax
	movzbl	(%r12,%rax), %esi
	leal	(%r9,%r13), %eax
	sarl	%eax
	cltq
	movl	(%r15,%rax,4), %eax
	addl	%r14d, %eax
	movzbl	(%r12,%rax), %edx
	movq	%r9, %rbx
	callq	mmed3
	movzbl	%al, %eax
	movl	%ebx, %r9d
	movl	%r13d, %r8d
	movq	%rbx, -88(%rbp)                 # 8-byte Spill
	movl	%ebx, %esi
	movq	%r13, %rcx
	movq	%r13, -80(%rbp)                 # 8-byte Spill
	movl	%r13d, %ebx
	movslq	%esi, %r11
	movslq	%ebx, %rdx
	cmpl	%r11d, %edx
	jle	.LBB3_10
	.p2align	4, 0x90
.LBB3_9:                                #   in Loop: Header=BB3_1 Depth=1
	movl	%ebx, %r10d
	movslq	%edx, %rdi
	cmpq	%r11, %rdi
	jle	.LBB3_19
	jmp	.LBB3_27
	.p2align	4, 0x90
.LBB3_10:                               # %.lr.ph.preheader
                                        #   in Loop: Header=BB3_1 Depth=1
	movslq	%r8d, %r8
.LBB3_11:                               # %.lr.ph
                                        #   Parent Loop BB3_1 Depth=1
                                        # =>  This Loop Header: Depth=2
                                        #       Child Loop BB3_12 Depth 3
	cmpq	%r11, %rdx
	movq	%r11, %r10
	cmovgq	%rdx, %r10
	addq	$1, %r10
	movq	%rdx, %rdi
	shlq	$32, %rdi
	.p2align	4, 0x90
.LBB3_12:                               #   Parent Loop BB3_1 Depth=1
                                        #     Parent Loop BB3_11 Depth=2
                                        # =>    This Inner Loop Header: Depth=3
	movl	(%r15,%rdx,4), %ecx
	addl	%r14d, %ecx
	movzbl	(%r12,%rcx), %ecx
	subl	%eax, %ecx
	je	.LBB3_13
# %bb.14:                               #   in Loop: Header=BB3_12 Depth=3
	testl	%ecx, %ecx
	jg	.LBB3_15
# %bb.16:                               #   in Loop: Header=BB3_12 Depth=3
	addq	$1, %rdx
	movabsq	$4294967296, %rcx               # imm = 0x100000000
	addq	%rcx, %rdi
	movl	%edx, %ebx
	cmpq	%rdx, %r10
	jne	.LBB3_12
	jmp	.LBB3_17
	.p2align	4, 0x90
.LBB3_13:                               # %.outer237
                                        #   in Loop: Header=BB3_11 Depth=2
	sarq	$30, %rdi
	movl	(%r15,%rdi), %ecx
	movl	(%r15,%r8,4), %edx
	movl	%edx, (%r15,%rdi)
	movl	%ecx, (%r15,%r8,4)
	addq	$1, %r8
	leal	1(%rbx), %r10d
	movslq	%r10d, %rdx
	cmpl	%esi, %ebx
	movl	%r10d, %ebx
	jl	.LBB3_11
	jmp	.LBB3_18
	.p2align	4, 0x90
.LBB3_15:                               #   in Loop: Header=BB3_1 Depth=1
	movl	%ebx, %r10d
.LBB3_18:                               # %.outer237._crit_edge
                                        #   in Loop: Header=BB3_1 Depth=1
	movslq	%edx, %rdi
	cmpq	%r11, %rdi
	jg	.LBB3_27
.LBB3_19:                               # %.lr.ph27.preheader
                                        #   in Loop: Header=BB3_1 Depth=1
	movslq	%r9d, %r9
.LBB3_20:                               # %.lr.ph27
                                        #   Parent Loop BB3_1 Depth=1
                                        # =>  This Loop Header: Depth=2
                                        #       Child Loop BB3_21 Depth 3
	movq	%r11, %rdx
	shlq	$32, %rdx
	movq	%r11, %rcx
	.p2align	4, 0x90
.LBB3_21:                               #   Parent Loop BB3_1 Depth=1
                                        #     Parent Loop BB3_20 Depth=2
                                        # =>    This Inner Loop Header: Depth=3
	movl	(%r15,%rcx,4), %ebx
	addl	%r14d, %ebx
	movzbl	(%r12,%rbx), %ebx
	subl	%eax, %ebx
	je	.LBB3_22
# %bb.23:                               #   in Loop: Header=BB3_21 Depth=3
	testl	%ebx, %ebx
	js	.LBB3_24
# %bb.25:                               #   in Loop: Header=BB3_21 Depth=3
	leaq	-1(%rcx), %rsi
	movabsq	$-4294967296, %rbx              # imm = 0xFFFFFFFF00000000
	addq	%rbx, %rdx
	cmpq	%rcx, %rdi
	movq	%rsi, %rcx
	jl	.LBB3_21
	jmp	.LBB3_26
	.p2align	4, 0x90
.LBB3_22:                               # %.outer
                                        #   in Loop: Header=BB3_20 Depth=2
	sarq	$30, %rdx
	movl	(%r15,%rdx), %ecx
	movl	(%r15,%r9,4), %ebx
	movl	%ebx, (%r15,%rdx)
	movl	%ecx, (%r15,%r9,4)
	addq	$-1, %r9
	addl	$-1, %esi
	movslq	%esi, %r11
	cmpq	%r11, %rdi
	jle	.LBB3_20
	jmp	.LBB3_27
	.p2align	4, 0x90
.LBB3_24:                               #   in Loop: Header=BB3_1 Depth=1
	movq	%rcx, %r11
	jmp	.LBB3_27
	.p2align	4, 0x90
.LBB3_17:                               # %._crit_edge18
                                        #   in Loop: Header=BB3_1 Depth=1
	movq	%r10, %rdx
	movslq	%edx, %rdi
	cmpq	%r11, %rdi
	jle	.LBB3_19
	jmp	.LBB3_27
	.p2align	4, 0x90
.LBB3_26:                               # %._crit_edge35
                                        #   in Loop: Header=BB3_1 Depth=1
	cmpq	%rdi, %r11
	cmovgeq	%rdi, %r11
	addq	$-1, %r11
	movl	%r11d, %esi
.LBB3_27:                               # %.outer._crit_edge
                                        #   in Loop: Header=BB3_1 Depth=1
	cmpl	%esi, %r10d
	jg	.LBB3_29
# %bb.28:                               #   in Loop: Header=BB3_1 Depth=1
	movl	(%r15,%rdi,4), %ecx
	movslq	%r11d, %rdx
	movl	(%r15,%rdx,4), %ebx
	movl	%ebx, (%r15,%rdi,4)
	movl	%ecx, (%r15,%rdx,4)
	addl	$1, %r10d
	addl	$-1, %esi
	movl	%r10d, %ebx
	movslq	%esi, %r11
	movslq	%ebx, %rdx
	cmpl	%r11d, %edx
	jle	.LBB3_10
	jmp	.LBB3_9
	.p2align	4, 0x90
.LBB3_29:                               #   in Loop: Header=BB3_1 Depth=1
	cmpl	%r8d, %r9d
	jge	.LBB3_31
# %bb.30:                               #   in Loop: Header=BB3_1 Depth=1
	addl	$1, %r14d
	movq	-56(%rbp), %rax                 # 8-byte Reload
	movl	%r14d, -512(%rbp,%rax,4)
	movq	-96(%rbp), %rax                 # 8-byte Reload
	movl	%eax, %edi
	jmp	.LBB3_5
	.p2align	4, 0x90
.LBB3_31:                               #   in Loop: Header=BB3_1 Depth=1
	movl	%r8d, %ecx
	subl	-80(%rbp), %ecx                 # 4-byte Folded Reload
	movl	%r10d, %eax
	subl	%r8d, %eax
	cmpl	%eax, %ecx
	cmovll	%ecx, %eax
	testl	%eax, %eax
	movq	-48(%rbp), %r13                 # 8-byte Reload
	jle	.LBB3_37
# %bb.32:                               # %.lr.ph47.preheader
                                        #   in Loop: Header=BB3_1 Depth=1
	movl	%r10d, %ecx
	subl	%eax, %ecx
	movslq	%ecx, %r11
	leal	-1(%rax), %ecx
	testb	$1, %al
	je	.LBB3_34
# %bb.33:                               # %.lr.ph47.prol.preheader
                                        #   in Loop: Header=BB3_1 Depth=1
	movl	(%r15,%r13,4), %eax
	movl	(%r15,%r11,4), %ebx
	movl	%ebx, (%r15,%r13,4)
	movl	%eax, (%r15,%r11,4)
	addq	$1, %r13
	addq	$1, %r11
	movl	%ecx, %eax
.LBB3_34:                               # %.lr.ph47.prol.loopexit.unr-lcssa
                                        #   in Loop: Header=BB3_1 Depth=1
	testl	%ecx, %ecx
	je	.LBB3_37
# %bb.35:                               # %.lr.ph47.preheader4
                                        #   in Loop: Header=BB3_1 Depth=1
	addl	$2, %eax
	movq	-72(%rbp), %rcx                 # 8-byte Reload
	.p2align	4, 0x90
.LBB3_36:                               # %.lr.ph47
                                        #   Parent Loop BB3_1 Depth=1
                                        # =>  This Inner Loop Header: Depth=2
	movl	-4(%rcx,%r13,4), %ebx
	movl	-4(%rcx,%r11,4), %edx
	movl	%edx, -4(%rcx,%r13,4)
	movl	%ebx, -4(%rcx,%r11,4)
	movl	(%rcx,%r13,4), %edx
	movl	(%rcx,%r11,4), %ebx
	movl	%ebx, (%rcx,%r13,4)
	movl	%edx, (%rcx,%r11,4)
	addl	$-2, %eax
	addq	$8, %rcx
	cmpl	$2, %eax
	jg	.LBB3_36
.LBB3_37:                               # %._crit_edge48
                                        #   in Loop: Header=BB3_1 Depth=1
	movq	-88(%rbp), %rcx                 # 8-byte Reload
	movl	%ecx, %eax
	subl	%r9d, %eax
	movl	%r9d, %edx
	subl	%esi, %edx
	cmpl	%edx, %eax
	cmovll	%eax, %edx
	leal	1(%rcx), %eax
	movq	%rax, -48(%rbp)                 # 8-byte Spill
	testl	%edx, %edx
	jle	.LBB3_43
# %bb.38:                               # %.lr.ph53.preheader
                                        #   in Loop: Header=BB3_1 Depth=1
	movq	-48(%rbp), %rax                 # 8-byte Reload
	movl	%eax, %ecx
	subl	%edx, %ecx
	movslq	%ecx, %r13
	leal	-1(%rdx), %ebx
	testb	$1, %dl
	je	.LBB3_40
# %bb.39:                               # %.lr.ph53.prol.preheader
                                        #   in Loop: Header=BB3_1 Depth=1
	movl	(%r15,%rdi,4), %eax
	movl	(%r15,%r13,4), %edx
	movl	%edx, (%r15,%rdi,4)
	movl	%eax, (%r15,%r13,4)
	addq	$1, %rdi
	addq	$1, %r13
	movl	%ebx, %edx
.LBB3_40:                               # %.lr.ph53.prol.loopexit.unr-lcssa
                                        #   in Loop: Header=BB3_1 Depth=1
	testl	%ebx, %ebx
	je	.LBB3_43
# %bb.41:                               # %.lr.ph53.preheader3
                                        #   in Loop: Header=BB3_1 Depth=1
	addl	$2, %edx
	movq	-72(%rbp), %rbx                 # 8-byte Reload
	.p2align	4, 0x90
.LBB3_42:                               # %.lr.ph53
                                        #   Parent Loop BB3_1 Depth=1
                                        # =>  This Inner Loop Header: Depth=2
	movl	-4(%rbx,%rdi,4), %eax
	movl	-4(%rbx,%r13,4), %r11d
	movl	%r11d, -4(%rbx,%rdi,4)
	movl	%eax, -4(%rbx,%r13,4)
	movl	(%rbx,%rdi,4), %eax
	movl	(%rbx,%r13,4), %ecx
	movl	%ecx, (%rbx,%rdi,4)
	movl	%eax, (%rbx,%r13,4)
	addl	$-2, %edx
	addq	$8, %rbx
	cmpl	$2, %edx
	jg	.LBB3_42
.LBB3_43:                               # %._crit_edge54
                                        #   in Loop: Header=BB3_1 Depth=1
	notl	%r8d
	movq	-80(%rbp), %rax                 # 8-byte Reload
	addl	%eax, %r8d
	leal	(%r8,%r10), %ebx
	movq	-48(%rbp), %rdx                 # 8-byte Reload
	subl	%r9d, %edx
	leal	(%rsi,%rdx), %r13d
	movl	%ebx, %ecx
	subl	%eax, %ecx
	movq	-88(%rbp), %r11                 # 8-byte Reload
	movl	%r11d, %edi
	subl	%r13d, %edi
	cmpl	%edi, %ecx
	jge	.LBB3_44
# %bb.45:                               #   in Loop: Header=BB3_1 Depth=1
                                        # kill: def $eax killed $eax killed $rax
	movl	%eax, -48(%rbp)                 # 4-byte Spill
	movl	%ebx, %r9d
	jmp	.LBB3_46
.LBB3_44:                               #   in Loop: Header=BB3_1 Depth=1
	movl	%edi, %ecx
	movl	%r13d, -48(%rbp)                # 4-byte Spill
	movl	%eax, %r13d
	movl	%r11d, %r9d
	movl	%ebx, %r11d
.LBB3_46:                               #   in Loop: Header=BB3_1 Depth=1
	leal	(%r10,%r8), %edi
	addl	$1, %edi
	leal	(%rsi,%rdx), %ebx
	addl	$-1, %ebx
	leal	1(%r14), %esi
	movl	%ebx, %eax
	subl	%edi, %eax
	cmpl	%eax, %ecx
	jge	.LBB3_47
# %bb.48:                               #   in Loop: Header=BB3_1 Depth=1
	movl	%edi, %r10d
	movl	%r9d, %r8d
	movl	%r14d, %r9d
	movl	%r11d, %ecx
	subl	%r13d, %ecx
	cmpl	%eax, %ecx
	jl	.LBB3_51
.LBB3_50:                               #   in Loop: Header=BB3_1 Depth=1
	movl	%r10d, %eax
	movl	%r13d, %r10d
	movl	%ebx, %edx
	movl	%r11d, %ebx
	movl	%esi, %ecx
	movl	%r14d, %esi
	jmp	.LBB3_52
.LBB3_47:                               #   in Loop: Header=BB3_1 Depth=1
	movl	%ecx, %eax
	movl	-48(%rbp), %r10d                # 4-byte Reload
	movl	%ebx, %r8d
	movl	%r9d, %ebx
	movl	%esi, %r9d
	movl	%r14d, %esi
	movl	%edi, -48(%rbp)                 # 4-byte Spill
	movl	%r11d, %ecx
	subl	%r13d, %ecx
	cmpl	%eax, %ecx
	jge	.LBB3_50
.LBB3_51:                               #   in Loop: Header=BB3_1 Depth=1
	movl	%r13d, %eax
	movl	%r11d, %edx
	movl	%r14d, %ecx
.LBB3_52:                               #   in Loop: Header=BB3_1 Depth=1
	movq	-56(%rbp), %rdi                 # 8-byte Reload
	movl	%r10d, -1312(%rbp,%rdi,4)
	movl	%ebx, -912(%rbp,%rdi,4)
	movl	%esi, -512(%rbp,%rdi,4)
	movq	-96(%rbp), %rdi                 # 8-byte Reload
	movslq	%edi, %rsi
	movl	%eax, -1312(%rbp,%rsi,4)
	movl	%edx, -912(%rbp,%rsi,4)
	movl	%ecx, -512(%rbp,%rsi,4)
	movl	-48(%rbp), %eax                 # 4-byte Reload
	movl	%eax, -1308(%rbp,%rsi,4)
	movl	%r8d, -908(%rbp,%rsi,4)
	movl	%r9d, -508(%rbp,%rsi,4)
	addl	$2, %edi
                                        # kill: def $edi killed $edi killed $rdi def $rdi
	jmp	.LBB3_5
.LBB3_6:
	addq	$1272, %rsp                     # imm = 0x4F8
	popq	%rbx
	popq	%r12
	popq	%r13
	popq	%r14
	popq	%r15
	popq	%rbp
	.cfi_def_cfa %rsp, 8
	retq
.LBB3_53:
	.cfi_def_cfa %rbp, 16
	movl	$1001, %edi                     # imm = 0x3E9
	callq	BZ2_bz__AssertH__fail
.Lfunc_end3:
	.size	mainQSort3, .Lfunc_end3-mainQSort3
	.cfi_endproc
                                        # -- End function
	.p2align	4, 0x90                         # -- Begin function mainSimpleSort
	.type	mainSimpleSort,@function
mainSimpleSort:                         # @mainSimpleSort
	.cfi_startproc
# %bb.0:
	pushq	%rbp
	.cfi_def_cfa_offset 16
	.cfi_offset %rbp, -16
	movq	%rsp, %rbp
	.cfi_def_cfa_register %rbp
	pushq	%r15
	pushq	%r14
	pushq	%r13
	pushq	%r12
	pushq	%rbx
	subq	$104, %rsp
	.cfi_offset %rbx, -56
	.cfi_offset %r12, -48
	.cfi_offset %r13, -40
	.cfi_offset %r14, -32
	.cfi_offset %r15, -24
                                        # kill: def $r8d killed $r8d def $r8
	movl	%ecx, -48(%rbp)                 # 4-byte Spill
	movq	%rdx, -104(%rbp)                # 8-byte Spill
	movq	%rsi, -96(%rbp)                 # 8-byte Spill
	movl	%r9d, %eax
	movq	%r8, -120(%rbp)                 # 8-byte Spill
	subl	%r8d, %eax
	jle	.LBB4_23
# %bb.1:                                # %.preheader.preheader
	movq	%rdi, %r12
	movq	$-1, %rdx
	.p2align	4, 0x90
.LBB4_2:                                # %.preheader
                                        # =>This Inner Loop Header: Depth=1
	movq	%rdx, %rcx
	addq	$1, %rdx
	cmpl	%eax, incs+4(,%rcx,4)
	jle	.LBB4_2
# %bb.3:
	movl	$4294967295, %eax               # imm = 0xFFFFFFFF
	andq	%rax, %rdx
	movq	%rdx, -128(%rbp)                # 8-byte Spill
	je	.LBB4_23
# %bb.4:                                # %.lr.ph.preheader
	movslq	%r9d, %rax
	movq	%rax, -80(%rbp)                 # 8-byte Spill
	movq	-120(%rbp), %rax                # 8-byte Reload
	leal	1(%rax), %ecx
	movl	%ecx, -112(%rbp)                # 4-byte Spill
	addl	$2, %eax
	movl	%eax, -108(%rbp)                # 4-byte Spill
	jmp	.LBB4_5
	.p2align	4, 0x90
.LBB4_22:                               #   in Loop: Header=BB4_5 Depth=1
	cmpq	$1, -136(%rbp)                  # 8-byte Folded Reload
	jle	.LBB4_23
.LBB4_5:                                # %.lr.ph
                                        # =>This Loop Header: Depth=1
                                        #     Child Loop BB4_6 Depth 2
                                        #       Child Loop BB4_8 Depth 3
                                        #       Child Loop BB4_13 Depth 3
                                        #       Child Loop BB4_18 Depth 3
	movq	-128(%rbp), %rcx                # 8-byte Reload
	leaq	-1(%rcx), %rax
	movq	%rax, -128(%rbp)                # 8-byte Spill
	movq	%rcx, -136(%rbp)                # 8-byte Spill
	movl	incs-4(,%rcx,4), %r15d
	movq	-120(%rbp), %rcx                # 8-byte Reload
	leal	(%r15,%rcx), %eax
	leal	-1(%r15,%rcx), %edx
	movl	%edx, -44(%rbp)                 # 4-byte Spill
	movslq	%eax, %rdx
	movl	-108(%rbp), %eax                # 4-byte Reload
	movl	%eax, -60(%rbp)                 # 4-byte Spill
	movl	-112(%rbp), %eax                # 4-byte Reload
	movl	%eax, -64(%rbp)                 # 4-byte Spill
	movl	%ecx, %eax
	movl	%ecx, -68(%rbp)                 # 4-byte Spill
	jmp	.LBB4_6
	.p2align	4, 0x90
.LBB4_19:                               # %._crit_edge
                                        #   in Loop: Header=BB4_6 Depth=2
	movslq	%r13d, %rbx
.LBB4_21:                               # %split
                                        #   in Loop: Header=BB4_6 Depth=2
	movq	-56(%rbp), %rax                 # 8-byte Reload
	movl	%eax, (%r12,%rbx,4)
	movq	-88(%rbp), %rdx                 # 8-byte Reload
	addq	$3, %rdx
	addl	$3, -68(%rbp)                   # 4-byte Folded Spill
	addl	$3, -64(%rbp)                   # 4-byte Folded Spill
	addl	$3, -60(%rbp)                   # 4-byte Folded Spill
	movq	24(%rbp), %rax
	cmpl	$0, (%rax)
	js	.LBB4_23
.LBB4_6:                                #   Parent Loop BB4_5 Depth=1
                                        # =>  This Loop Header: Depth=2
                                        #       Child Loop BB4_8 Depth 3
                                        #       Child Loop BB4_13 Depth 3
                                        #       Child Loop BB4_18 Depth 3
	cmpq	-80(%rbp), %rdx                 # 8-byte Folded Reload
	jg	.LBB4_22
# %bb.7:                                #   in Loop: Header=BB4_6 Depth=2
	movq	%rdx, -88(%rbp)                 # 8-byte Spill
	movl	(%r12,%rdx,4), %ecx
	movl	16(%rbp), %eax
	movq	%rcx, -56(%rbp)                 # 8-byte Spill
	leal	(%rcx,%rax), %r14d
	movl	-68(%rbp), %eax                 # 4-byte Reload
                                        # kill: def $eax killed $eax def $rax
	.p2align	4, 0x90
.LBB4_8:                                #   Parent Loop BB4_5 Depth=1
                                        #     Parent Loop BB4_6 Depth=2
                                        # =>    This Inner Loop Header: Depth=3
	leal	(%r15,%rax), %ebx
	movslq	%eax, %r13
	movl	(%r12,%r13,4), %edi
	movl	16(%rbp), %eax
	addl	%eax, %edi
	movl	%r14d, %esi
	movq	-96(%rbp), %rdx                 # 8-byte Reload
	movq	-104(%rbp), %rcx                # 8-byte Reload
	movl	-48(%rbp), %r8d                 # 4-byte Reload
	movq	24(%rbp), %r9
	callq	mainGtU
	testb	%al, %al
	je	.LBB4_9
# %bb.10:                               #   in Loop: Header=BB4_8 Depth=3
	movl	(%r12,%r13,4), %eax
	movslq	%ebx, %rcx
	movl	%eax, (%r12,%rcx,4)
	movl	%r13d, %eax
	subl	%r15d, %eax
	cmpl	-44(%rbp), %r13d                # 4-byte Folded Reload
	jg	.LBB4_8
	jmp	.LBB4_11
	.p2align	4, 0x90
.LBB4_9:                                # %._crit_edge126
                                        #   in Loop: Header=BB4_6 Depth=2
	movslq	%ebx, %r13
.LBB4_11:                               # %split127
                                        #   in Loop: Header=BB4_6 Depth=2
	movq	-56(%rbp), %rax                 # 8-byte Reload
	movl	%eax, (%r12,%r13,4)
	movq	-88(%rbp), %rax                 # 8-byte Reload
	cmpq	-80(%rbp), %rax                 # 8-byte Folded Reload
	jge	.LBB4_22
# %bb.12:                               #   in Loop: Header=BB4_6 Depth=2
	movl	4(%r12,%rax,4), %ecx
	movl	16(%rbp), %eax
	movq	%rcx, -56(%rbp)                 # 8-byte Spill
	leal	(%rcx,%rax), %r14d
	movl	-64(%rbp), %eax                 # 4-byte Reload
                                        # kill: def $eax killed $eax def $rax
	.p2align	4, 0x90
.LBB4_13:                               #   Parent Loop BB4_5 Depth=1
                                        #     Parent Loop BB4_6 Depth=2
                                        # =>    This Inner Loop Header: Depth=3
	leal	(%r15,%rax), %r13d
	movslq	%eax, %rbx
	movl	(%r12,%rbx,4), %edi
	movl	16(%rbp), %eax
	addl	%eax, %edi
	movl	%r14d, %esi
	movq	-96(%rbp), %rdx                 # 8-byte Reload
	movq	-104(%rbp), %rcx                # 8-byte Reload
	movl	-48(%rbp), %r8d                 # 4-byte Reload
	movq	24(%rbp), %r9
	callq	mainGtU
	testb	%al, %al
	je	.LBB4_14
# %bb.15:                               #   in Loop: Header=BB4_13 Depth=3
	movl	(%r12,%rbx,4), %eax
	movslq	%r13d, %rcx
	movl	%eax, (%r12,%rcx,4)
	movl	%ebx, %eax
	subl	%r15d, %eax
	cmpl	-44(%rbp), %ebx                 # 4-byte Folded Reload
	jg	.LBB4_13
	jmp	.LBB4_16
	.p2align	4, 0x90
.LBB4_14:                               # %._crit_edge124
                                        #   in Loop: Header=BB4_6 Depth=2
	movslq	%r13d, %rbx
.LBB4_16:                               # %split125
                                        #   in Loop: Header=BB4_6 Depth=2
	movq	-56(%rbp), %rax                 # 8-byte Reload
	movl	%eax, (%r12,%rbx,4)
	movq	-88(%rbp), %rcx                 # 8-byte Reload
	leaq	2(%rcx), %rax
	cmpq	-80(%rbp), %rax                 # 8-byte Folded Reload
	jg	.LBB4_22
# %bb.17:                               #   in Loop: Header=BB4_6 Depth=2
	movl	8(%r12,%rcx,4), %ecx
	movl	16(%rbp), %eax
	movq	%rcx, -56(%rbp)                 # 8-byte Spill
	leal	(%rcx,%rax), %r14d
	movl	-60(%rbp), %eax                 # 4-byte Reload
                                        # kill: def $eax killed $eax def $rax
	.p2align	4, 0x90
.LBB4_18:                               #   Parent Loop BB4_5 Depth=1
                                        #     Parent Loop BB4_6 Depth=2
                                        # =>    This Inner Loop Header: Depth=3
	leal	(%r15,%rax), %r13d
	movslq	%eax, %rbx
	movl	(%r12,%rbx,4), %edi
	movl	16(%rbp), %eax
	addl	%eax, %edi
	movl	%r14d, %esi
	movq	-96(%rbp), %rdx                 # 8-byte Reload
	movq	-104(%rbp), %rcx                # 8-byte Reload
	movl	-48(%rbp), %r8d                 # 4-byte Reload
	movq	24(%rbp), %r9
	callq	mainGtU
	testb	%al, %al
	je	.LBB4_19
# %bb.20:                               #   in Loop: Header=BB4_18 Depth=3
	movl	(%r12,%rbx,4), %eax
	movslq	%r13d, %rcx
	movl	%eax, (%r12,%rcx,4)
	movl	%ebx, %eax
	subl	%r15d, %eax
	cmpl	-44(%rbp), %ebx                 # 4-byte Folded Reload
	jg	.LBB4_18
	jmp	.LBB4_21
.LBB4_23:                               # %.loopexit
	addq	$104, %rsp
	popq	%rbx
	popq	%r12
	popq	%r13
	popq	%r14
	popq	%r15
	popq	%rbp
	.cfi_def_cfa %rsp, 8
	retq
.Lfunc_end4:
	.size	mainSimpleSort, .Lfunc_end4-mainSimpleSort
	.cfi_endproc
                                        # -- End function
	.p2align	4, 0x90                         # -- Begin function mmed3
	.type	mmed3,@function
mmed3:                                  # @mmed3
	.cfi_startproc
# %bb.0:
	pushq	%rbp
	.cfi_def_cfa_offset 16
	.cfi_offset %rbp, -16
	movq	%rsp, %rbp
	.cfi_def_cfa_register %rbp
	cmpb	%sil, %dil
	movl	%esi, %eax
	cmoval	%edi, %eax
	cmoval	%esi, %edi
	cmpb	%dl, %al
	jbe	.LBB5_2
# %bb.1:
	cmpb	%dl, %dil
	movzbl	%dil, %ecx
	movzbl	%dl, %eax
	cmoval	%ecx, %eax
.LBB5_2:
                                        # kill: def $al killed $al killed $eax
	popq	%rbp
	.cfi_def_cfa %rsp, 8
	retq
.Lfunc_end5:
	.size	mmed3, .Lfunc_end5-mmed3
	.cfi_endproc
                                        # -- End function
	.p2align	4, 0x90                         # -- Begin function mainGtU
	.type	mainGtU,@function
mainGtU:                                # @mainGtU
	.cfi_startproc
# %bb.0:
	pushq	%rbp
	.cfi_def_cfa_offset 16
	.cfi_offset %rbp, -16
	movq	%rsp, %rbp
	.cfi_def_cfa_register %rbp
	pushq	%rbx
	.cfi_offset %rbx, -24
                                        # kill: def $r8d killed $r8d def $r8
                                        # kill: def $esi killed $esi def $rsi
                                        # kill: def $edi killed $edi def $rdi
	movl	%edi, %r10d
	movl	%esi, %eax
	movb	(%rdx,%rax), %al
	cmpb	%al, (%rdx,%r10)
	jne	.LBB6_30
# %bb.1:
	leal	1(%rdi), %r10d
	leal	1(%rsi), %eax
	movb	(%rdx,%rax), %al
	cmpb	%al, (%rdx,%r10)
	jne	.LBB6_32
# %bb.2:
	leal	2(%rdi), %r10d
	leal	2(%rsi), %eax
	movb	(%rdx,%rax), %al
	cmpb	%al, (%rdx,%r10)
	jne	.LBB6_32
# %bb.3:
	leal	3(%rdi), %r10d
	leal	3(%rsi), %eax
	movb	(%rdx,%rax), %al
	cmpb	%al, (%rdx,%r10)
	jne	.LBB6_32
# %bb.4:
	leal	4(%rdi), %r10d
	leal	4(%rsi), %eax
	movb	(%rdx,%rax), %al
	cmpb	%al, (%rdx,%r10)
	jne	.LBB6_32
# %bb.5:
	leal	5(%rdi), %r10d
	leal	5(%rsi), %eax
	movb	(%rdx,%rax), %al
	cmpb	%al, (%rdx,%r10)
	jne	.LBB6_32
# %bb.6:
	leal	6(%rdi), %r10d
	leal	6(%rsi), %eax
	movb	(%rdx,%rax), %al
	cmpb	%al, (%rdx,%r10)
	jne	.LBB6_32
# %bb.7:
	leal	7(%rdi), %r10d
	leal	7(%rsi), %eax
	movb	(%rdx,%rax), %al
	cmpb	%al, (%rdx,%r10)
	jne	.LBB6_32
# %bb.8:
	leal	8(%rdi), %r10d
	leal	8(%rsi), %eax
	movb	(%rdx,%rax), %al
	cmpb	%al, (%rdx,%r10)
	jne	.LBB6_32
# %bb.9:
	leal	9(%rdi), %r10d
	leal	9(%rsi), %eax
	movb	(%rdx,%rax), %al
	cmpb	%al, (%rdx,%r10)
	jne	.LBB6_32
# %bb.10:
	leal	10(%rdi), %r10d
	leal	10(%rsi), %eax
	movb	(%rdx,%rax), %al
	cmpb	%al, (%rdx,%r10)
	jne	.LBB6_32
# %bb.11:
	leal	11(%rdi), %r10d
	leal	11(%rsi), %eax
	movb	(%rdx,%rax), %al
	cmpb	%al, (%rdx,%r10)
	jne	.LBB6_32
# %bb.12:
	addl	$12, %edi
	addl	$12, %esi
	leal	16(%r8), %r10d
.LBB6_13:                               # =>This Inner Loop Header: Depth=1
	movl	%edi, %edi
	movl	%esi, %esi
	movzbl	(%rdx,%rsi), %eax
	cmpb	%al, (%rdx,%rdi)
	jne	.LBB6_32
# %bb.14:                               #   in Loop: Header=BB6_13 Depth=1
	movzwl	(%rcx,%rsi,2), %eax
	cmpw	%ax, (%rcx,%rdi,2)
	jne	.LBB6_32
# %bb.15:                               #   in Loop: Header=BB6_13 Depth=1
	leal	1(%rdi), %r11d
	leal	1(%rsi), %eax
	movzbl	(%rdx,%rax), %ebx
	cmpb	%bl, (%rdx,%r11)
	jne	.LBB6_32
# %bb.16:                               #   in Loop: Header=BB6_13 Depth=1
	movzwl	(%rcx,%rax,2), %eax
	cmpw	%ax, (%rcx,%r11,2)
	jne	.LBB6_32
# %bb.17:                               #   in Loop: Header=BB6_13 Depth=1
	leal	2(%rdi), %r11d
	leal	2(%rsi), %eax
	movzbl	(%rdx,%rax), %ebx
	cmpb	%bl, (%rdx,%r11)
	jne	.LBB6_32
# %bb.18:                               #   in Loop: Header=BB6_13 Depth=1
	movzwl	(%rcx,%rax,2), %eax
	cmpw	%ax, (%rcx,%r11,2)
	jne	.LBB6_32
# %bb.19:                               #   in Loop: Header=BB6_13 Depth=1
	leal	3(%rdi), %r11d
	leal	3(%rsi), %eax
	movzbl	(%rdx,%rax), %ebx
	cmpb	%bl, (%rdx,%r11)
	jne	.LBB6_32
# %bb.20:                               #   in Loop: Header=BB6_13 Depth=1
	movzwl	(%rcx,%rax,2), %eax
	cmpw	%ax, (%rcx,%r11,2)
	jne	.LBB6_32
# %bb.21:                               #   in Loop: Header=BB6_13 Depth=1
	leal	4(%rdi), %r11d
	leal	4(%rsi), %eax
	movzbl	(%rdx,%rax), %ebx
	cmpb	%bl, (%rdx,%r11)
	jne	.LBB6_32
# %bb.22:                               #   in Loop: Header=BB6_13 Depth=1
	movzwl	(%rcx,%rax,2), %eax
	cmpw	%ax, (%rcx,%r11,2)
	jne	.LBB6_32
# %bb.23:                               #   in Loop: Header=BB6_13 Depth=1
	leal	5(%rdi), %r11d
	leal	5(%rsi), %eax
	movzbl	(%rdx,%rax), %ebx
	cmpb	%bl, (%rdx,%r11)
	jne	.LBB6_32
# %bb.24:                               #   in Loop: Header=BB6_13 Depth=1
	movzwl	(%rcx,%rax,2), %eax
	cmpw	%ax, (%rcx,%r11,2)
	jne	.LBB6_32
# %bb.25:                               #   in Loop: Header=BB6_13 Depth=1
	leal	6(%rdi), %r11d
	leal	6(%rsi), %eax
	movzbl	(%rdx,%rax), %ebx
	cmpb	%bl, (%rdx,%r11)
	jne	.LBB6_32
# %bb.26:                               #   in Loop: Header=BB6_13 Depth=1
	movzwl	(%rcx,%rax,2), %eax
	cmpw	%ax, (%rcx,%r11,2)
	jne	.LBB6_32
# %bb.27:                               #   in Loop: Header=BB6_13 Depth=1
	leal	7(%rdi), %r11d
	leal	7(%rsi), %eax
	movzbl	(%rdx,%rax), %ebx
	cmpb	%bl, (%rdx,%r11)
	jne	.LBB6_32
# %bb.28:                               #   in Loop: Header=BB6_13 Depth=1
	movzwl	(%rcx,%rax,2), %eax
	cmpw	%ax, (%rcx,%r11,2)
	jne	.LBB6_32
# %bb.29:                               #   in Loop: Header=BB6_13 Depth=1
	addl	$8, %edi
	addl	$8, %esi
	xorl	%eax, %eax
	cmpl	%r8d, %edi
	movl	%r8d, %ebx
	cmovbl	%eax, %ebx
	subl	%ebx, %edi
	cmpl	%r8d, %esi
	movl	%r8d, %ebx
	cmovbl	%eax, %ebx
	addl	$-1, (%r9)
	subl	%ebx, %esi
	addl	$-8, %r10d
	cmpl	$7, %r10d
	jg	.LBB6_13
	jmp	.LBB6_31
.LBB6_30:
	seta	%al
.LBB6_31:                               # %.loopexit
                                        # kill: def $al killed $al killed $eax
	popq	%rbx
	popq	%rbp
	.cfi_def_cfa %rsp, 8
	retq
.LBB6_32:
	.cfi_def_cfa %rbp, 16
	seta	%al
                                        # kill: def $al killed $al killed $eax
	popq	%rbx
	popq	%rbp
	.cfi_def_cfa %rsp, 8
	retq
.Lfunc_end6:
	.size	mainGtU, .Lfunc_end6-mainGtU
	.cfi_endproc
                                        # -- End function
	.p2align	4, 0x90                         # -- Begin function fallbackQSort3
	.type	fallbackQSort3,@function
fallbackQSort3:                         # @fallbackQSort3
	.cfi_startproc
# %bb.0:
	pushq	%rbp
	.cfi_def_cfa_offset 16
	.cfi_offset %rbp, -16
	movq	%rsp, %rbp
	.cfi_def_cfa_register %rbp
	pushq	%r15
	pushq	%r14
	pushq	%r13
	pushq	%r12
	pushq	%rbx
	subq	$856, %rsp                      # imm = 0x358
	.cfi_offset %rbx, -56
	.cfi_offset %r12, -48
	.cfi_offset %r13, -40
	.cfi_offset %r14, -32
	.cfi_offset %r15, -24
	movq	%rsi, %r14
	movq	%rdi, %r15
	movl	%edx, -896(%rbp)
	movl	%ecx, -496(%rbp)
	leaq	4(%rdi), %rax
	movq	%rax, -80(%rbp)                 # 8-byte Spill
	xorl	%ebx, %ebx
	movl	$1, %r12d
.LBB7_1:                                # %.lr.ph
                                        # =>This Loop Header: Depth=1
                                        #     Child Loop BB7_3 Depth 2
                                        #     Child Loop BB7_14 Depth 2
                                        #       Child Loop BB7_15 Depth 3
                                        #     Child Loop BB7_22 Depth 2
                                        #       Child Loop BB7_23 Depth 3
                                        #     Child Loop BB7_38 Depth 2
                                        #     Child Loop BB7_44 Depth 2
	cmpq	$98, %r12
	jg	.LBB7_51
# %bb.2:                                # %.lr.ph..lr.ph.split_crit_edge.preheader
                                        #   in Loop: Header=BB7_1 Depth=1
	movq	%r12, %r13
	shlq	$32, %r13
	addq	$-1, %r12
	.p2align	4, 0x90
.LBB7_3:                                # %.lr.ph..lr.ph.split_crit_edge
                                        #   Parent Loop BB7_1 Depth=1
                                        # =>  This Inner Loop Header: Depth=2
	movl	-896(%rbp,%r12,4), %edx
	movl	-496(%rbp,%r12,4), %ecx
	movl	%ecx, %eax
	subl	%edx, %eax
	cmpl	$10, %eax
	jge	.LBB7_5
# %bb.4:                                #   in Loop: Header=BB7_3 Depth=2
	movq	%r15, %rdi
	movq	%r14, %rsi
                                        # kill: def $edx killed $edx killed $rdx
                                        # kill: def $ecx killed $ecx killed $rcx
	callq	fallbackSimpleSort
	movabsq	$-4294967296, %rax              # imm = 0xFFFFFFFF00000000
	addq	%rax, %r13
	leaq	-1(%r12), %rax
	addq	$1, %r12
	cmpq	$1, %r12
	movq	%rax, %r12
	jg	.LBB7_3
	jmp	.LBB7_50
	.p2align	4, 0x90
.LBB7_5:                                #   in Loop: Header=BB7_1 Depth=1
	movslq	%edx, %rdi
	imull	$7621, %ebx, %ebx               # imm = 0x1DC5
	addl	$1, %ebx
	andl	$32767, %ebx                    # imm = 0x7FFF
	imull	$43691, %ebx, %eax              # imm = 0xAAAB
	shrl	$17, %eax
	leal	(%rax,%rax,2), %esi
	movl	%ebx, %eax
	subl	%esi, %eax
	cmpw	$1, %ax
	movl	%ebx, -52(%rbp)                 # 4-byte Spill
	movq	%rdi, -72(%rbp)                 # 8-byte Spill
	je	.LBB7_8
# %bb.6:                                #   in Loop: Header=BB7_1 Depth=1
	movzwl	%ax, %eax
	testl	%eax, %eax
	jne	.LBB7_9
# %bb.7:                                #   in Loop: Header=BB7_1 Depth=1
	movl	(%r15,%rdi,4), %eax
	jmp	.LBB7_11
.LBB7_8:                                #   in Loop: Header=BB7_1 Depth=1
	leal	(%rcx,%rdx), %eax
	sarl	%eax
	cltq
	jmp	.LBB7_10
.LBB7_9:                                #   in Loop: Header=BB7_1 Depth=1
	movslq	%ecx, %rax
.LBB7_10:                               #   in Loop: Header=BB7_1 Depth=1
	movl	(%r15,%rax,4), %eax
.LBB7_11:                               #   in Loop: Header=BB7_1 Depth=1
	leaq	(%r14,%rax,4), %rax
	movl	(%rax), %ebx
	movl	%ecx, %eax
	movq	%rax, -48(%rbp)                 # 8-byte Spill
	movl	%edx, %eax
	movq	%rax, -64(%rbp)                 # 8-byte Spill
	movl	%ecx, %r9d
	movl	%edx, %r11d
	movslq	%r9d, %r10
	movslq	%r11d, %rax
	cmpl	%r10d, %eax
	jg	.LBB7_12
	.p2align	4, 0x90
.LBB7_13:                               # %.lr.ph235.preheader
                                        #   in Loop: Header=BB7_1 Depth=1
	movq	-64(%rbp), %rsi                 # 8-byte Reload
	movslq	%esi, %rsi
	movq	%rsi, -64(%rbp)                 # 8-byte Spill
.LBB7_14:                               # %.lr.ph235
                                        #   Parent Loop BB7_1 Depth=1
                                        # =>  This Loop Header: Depth=2
                                        #       Child Loop BB7_15 Depth 3
	cmpq	%r10, %rax
	movq	%r10, %r8
	cmovgq	%rax, %r8
	addq	$1, %r8
	movq	%rax, %rdi
	shlq	$32, %rdi
	.p2align	4, 0x90
.LBB7_15:                               #   Parent Loop BB7_1 Depth=1
                                        #     Parent Loop BB7_14 Depth=2
                                        # =>    This Inner Loop Header: Depth=3
	movl	(%r15,%rax,4), %esi
	movl	(%r14,%rsi,4), %esi
	subl	%ebx, %esi
	je	.LBB7_18
# %bb.16:                               #   in Loop: Header=BB7_15 Depth=3
	testl	%esi, %esi
	jg	.LBB7_19
# %bb.17:                               #   in Loop: Header=BB7_15 Depth=3
	addq	$1, %rax
	movabsq	$4294967296, %rsi               # imm = 0x100000000
	addq	%rsi, %rdi
	movl	%eax, %r11d
	cmpq	%rax, %r8
	jne	.LBB7_15
	jmp	.LBB7_28
	.p2align	4, 0x90
.LBB7_18:                               # %.outer184
                                        #   in Loop: Header=BB7_14 Depth=2
	sarq	$30, %rdi
	movl	(%r15,%rdi), %r8d
	movq	-64(%rbp), %rax                 # 8-byte Reload
	movl	(%r15,%rax,4), %esi
	movl	%esi, (%r15,%rdi)
	movl	%r8d, (%r15,%rax,4)
	addq	$1, %rax
	movq	%rax, -64(%rbp)                 # 8-byte Spill
	leal	1(%r11), %r8d
	movslq	%r8d, %rax
	cmpl	%r9d, %r11d
	movl	%r8d, %r11d
	jl	.LBB7_14
	jmp	.LBB7_20
	.p2align	4, 0x90
.LBB7_19:                               #   in Loop: Header=BB7_1 Depth=1
	movl	%r11d, %r8d
.LBB7_20:                               # %.outer184._crit_edge
                                        #   in Loop: Header=BB7_1 Depth=1
	movslq	%eax, %r11
	cmpq	%r10, %r11
	jg	.LBB7_30
	jmp	.LBB7_21
	.p2align	4, 0x90
.LBB7_28:                               # %._crit_edge242
                                        #   in Loop: Header=BB7_1 Depth=1
	movq	%r8, %rax
	movslq	%eax, %r11
	cmpq	%r10, %r11
	jle	.LBB7_21
	jmp	.LBB7_30
	.p2align	4, 0x90
.LBB7_12:                               #   in Loop: Header=BB7_1 Depth=1
	movl	%r11d, %r8d
	movslq	%eax, %r11
	cmpq	%r10, %r11
	jg	.LBB7_30
.LBB7_21:                               # %.lr.ph251.preheader
                                        #   in Loop: Header=BB7_1 Depth=1
	movq	-48(%rbp), %rax                 # 8-byte Reload
	cltq
	movq	%rax, -48(%rbp)                 # 8-byte Spill
.LBB7_22:                               # %.lr.ph251
                                        #   Parent Loop BB7_1 Depth=1
                                        # =>  This Loop Header: Depth=2
                                        #       Child Loop BB7_23 Depth 3
	movq	%r10, %rax
	shlq	$32, %rax
	movq	%r10, %rsi
	.p2align	4, 0x90
.LBB7_23:                               #   Parent Loop BB7_1 Depth=1
                                        #     Parent Loop BB7_22 Depth=2
                                        # =>    This Inner Loop Header: Depth=3
	movl	(%r15,%rsi,4), %edi
	movl	(%r14,%rdi,4), %edi
	subl	%ebx, %edi
	je	.LBB7_26
# %bb.24:                               #   in Loop: Header=BB7_23 Depth=3
	testl	%edi, %edi
	js	.LBB7_27
# %bb.25:                               #   in Loop: Header=BB7_23 Depth=3
	leaq	-1(%rsi), %r9
	movabsq	$-4294967296, %rdi              # imm = 0xFFFFFFFF00000000
	addq	%rdi, %rax
	cmpq	%rsi, %r11
	movq	%r9, %rsi
	jl	.LBB7_23
	jmp	.LBB7_29
	.p2align	4, 0x90
.LBB7_26:                               # %.outer
                                        #   in Loop: Header=BB7_22 Depth=2
	sarq	$30, %rax
	movl	(%r15,%rax), %r10d
	movq	-48(%rbp), %rsi                 # 8-byte Reload
	movl	(%r15,%rsi,4), %edi
	movl	%edi, (%r15,%rax)
	movl	%r10d, (%r15,%rsi,4)
	addq	$-1, %rsi
	movq	%rsi, -48(%rbp)                 # 8-byte Spill
	addl	$-1, %r9d
	movslq	%r9d, %r10
	cmpq	%r10, %r11
	jle	.LBB7_22
	jmp	.LBB7_30
	.p2align	4, 0x90
.LBB7_27:                               #   in Loop: Header=BB7_1 Depth=1
	movq	%rsi, %r10
.LBB7_30:                               # %.outer._crit_edge
                                        #   in Loop: Header=BB7_1 Depth=1
	cmpl	%r9d, %r8d
	jg	.LBB7_32
.LBB7_31:                               #   in Loop: Header=BB7_1 Depth=1
	movl	(%r15,%r11,4), %eax
	movslq	%r10d, %rsi
	movl	(%r15,%rsi,4), %edi
	movl	%edi, (%r15,%r11,4)
	movl	%eax, (%r15,%rsi,4)
	addl	$1, %r8d
	addl	$-1, %r9d
	movl	%r8d, %r11d
	movslq	%r9d, %r10
	movslq	%r11d, %rax
	cmpl	%r10d, %eax
	jle	.LBB7_13
	jmp	.LBB7_12
	.p2align	4, 0x90
.LBB7_29:                               # %._crit_edge259
                                        #   in Loop: Header=BB7_1 Depth=1
	cmpq	%r11, %r10
	cmovgeq	%r11, %r10
	addq	$-1, %r10
	movl	%r10d, %r9d
	cmpl	%r9d, %r8d
	jle	.LBB7_31
.LBB7_32:                               #   in Loop: Header=BB7_1 Depth=1
	movq	-64(%rbp), %rdi                 # 8-byte Reload
	cmpl	%edi, -48(%rbp)                 # 4-byte Folded Reload
	jl	.LBB7_49
# %bb.33:                               #   in Loop: Header=BB7_1 Depth=1
	movq	%r13, -88(%rbp)                 # 8-byte Spill
	movl	%edi, %esi
	subl	%edx, %esi
	movl	%r8d, %eax
	subl	%edi, %eax
	cmpl	%eax, %esi
	cmovll	%esi, %eax
	testl	%eax, %eax
	movq	-72(%rbp), %r10                 # 8-byte Reload
	jle	.LBB7_39
# %bb.34:                               # %.lr.ph271.preheader
                                        #   in Loop: Header=BB7_1 Depth=1
	movl	%r8d, %esi
	subl	%eax, %esi
	movslq	%esi, %r13
	leal	-1(%rax), %esi
	testb	$1, %al
	je	.LBB7_36
# %bb.35:                               # %.lr.ph271.prol.preheader
                                        #   in Loop: Header=BB7_1 Depth=1
	movl	(%r15,%r10,4), %eax
	movl	(%r15,%r13,4), %edi
	movl	%edi, (%r15,%r10,4)
	movl	%eax, (%r15,%r13,4)
	addq	$1, %r10
	addq	$1, %r13
	movl	%esi, %eax
.LBB7_36:                               # %.lr.ph271.prol.loopexit.unr-lcssa
                                        #   in Loop: Header=BB7_1 Depth=1
	testl	%esi, %esi
	je	.LBB7_39
# %bb.37:                               # %.lr.ph271.preheader4
                                        #   in Loop: Header=BB7_1 Depth=1
	addl	$2, %eax
	movq	-80(%rbp), %rsi                 # 8-byte Reload
	.p2align	4, 0x90
.LBB7_38:                               # %.lr.ph271
                                        #   Parent Loop BB7_1 Depth=1
                                        # =>  This Inner Loop Header: Depth=2
	movl	-4(%rsi,%r10,4), %edi
	movl	-4(%rsi,%r13,4), %ebx
	movl	%ebx, -4(%rsi,%r10,4)
	movl	%edi, -4(%rsi,%r13,4)
	movl	(%rsi,%r10,4), %edi
	movl	(%rsi,%r13,4), %ebx
	movl	%ebx, (%rsi,%r10,4)
	movl	%edi, (%rsi,%r13,4)
	addl	$-2, %eax
	addq	$8, %rsi
	cmpl	$2, %eax
	jg	.LBB7_38
.LBB7_39:                               # %._crit_edge272
                                        #   in Loop: Header=BB7_1 Depth=1
	movl	%ecx, %eax
	movq	-48(%rbp), %rbx                 # 8-byte Reload
	subl	%ebx, %eax
                                        # kill: def $ebx killed $ebx killed $rbx def $rbx
	subl	%r9d, %ebx
	cmpl	%ebx, %eax
	cmovll	%eax, %ebx
	leal	1(%rcx), %eax
	movl	%eax, -72(%rbp)                 # 4-byte Spill
	testl	%ebx, %ebx
	movq	-88(%rbp), %r13                 # 8-byte Reload
	jle	.LBB7_45
# %bb.40:                               # %.lr.ph277.preheader
                                        #   in Loop: Header=BB7_1 Depth=1
	movl	-72(%rbp), %eax                 # 4-byte Reload
	subl	%ebx, %eax
	cltq
	leal	-1(%rbx), %edi
	testb	$1, %bl
	je	.LBB7_42
# %bb.41:                               # %.lr.ph277.prol.preheader
                                        #   in Loop: Header=BB7_1 Depth=1
	movl	(%r15,%r11,4), %esi
	movl	(%r15,%rax,4), %ebx
	movl	%ebx, (%r15,%r11,4)
	movl	%esi, (%r15,%rax,4)
	addq	$1, %r11
	addq	$1, %rax
	movl	%edi, %ebx
.LBB7_42:                               # %.lr.ph277.prol.loopexit.unr-lcssa
                                        #   in Loop: Header=BB7_1 Depth=1
	testl	%edi, %edi
	je	.LBB7_45
# %bb.43:                               # %.lr.ph277.preheader3
                                        #   in Loop: Header=BB7_1 Depth=1
	addl	$2, %ebx
	movq	-80(%rbp), %rsi                 # 8-byte Reload
	.p2align	4, 0x90
.LBB7_44:                               # %.lr.ph277
                                        #   Parent Loop BB7_1 Depth=1
                                        # =>  This Inner Loop Header: Depth=2
	movl	-4(%rsi,%r11,4), %edi
	movl	-4(%rsi,%rax,4), %r10d
	movl	%r10d, -4(%rsi,%r11,4)
	movl	%edi, -4(%rsi,%rax,4)
	movl	(%rsi,%r11,4), %r10d
	movq	%rax, %rdi
	movl	(%rsi,%rax,4), %eax
	movl	%eax, (%rsi,%r11,4)
	movq	%rdi, %rax
	movl	%r10d, (%rsi,%rdi,4)
	addl	$-2, %ebx
	addq	$8, %rsi
	cmpl	$2, %ebx
	jg	.LBB7_44
.LBB7_45:                               # %._crit_edge278
                                        #   in Loop: Header=BB7_1 Depth=1
	movq	-64(%rbp), %rdi                 # 8-byte Reload
	notl	%edi
	addl	%edx, %edi
	addl	%r8d, %edi
	movl	-72(%rbp), %eax                 # 4-byte Reload
	subl	-48(%rbp), %eax                 # 4-byte Folded Reload
	addl	%eax, %r9d
	movl	%edi, %eax
	subl	%edx, %eax
	movl	%ecx, %esi
	subl	%r9d, %esi
	cmpl	%esi, %eax
	jle	.LBB7_47
# %bb.46:                               #   in Loop: Header=BB7_1 Depth=1
	movabsq	$-4294967296, %rax              # imm = 0xFFFFFFFF00000000
	addq	%r13, %rax
	sarq	$30, %rax
	movl	%edx, -896(%rbp,%rax)
	movl	%edi, -496(%rbp,%rax)
	sarq	$30, %r13
	movl	%r9d, -896(%rbp,%r13)
	movl	%ecx, -496(%rbp,%r13)
	jmp	.LBB7_48
.LBB7_47:                               #   in Loop: Header=BB7_1 Depth=1
	movabsq	$-4294967296, %rax              # imm = 0xFFFFFFFF00000000
	addq	%r13, %rax
	sarq	$30, %rax
	movl	%r9d, -896(%rbp,%rax)
	movl	%ecx, -496(%rbp,%rax)
	sarq	$30, %r13
	movl	%edx, -896(%rbp,%r13)
	movl	%edi, -496(%rbp,%r13)
.LBB7_48:                               #   in Loop: Header=BB7_1 Depth=1
	addq	$2, %r12
.LBB7_49:                               #   in Loop: Header=BB7_1 Depth=1
	movl	-52(%rbp), %ebx                 # 4-byte Reload
	movq	%r12, %rax
	shlq	$32, %rax
	movslq	%r12d, %r12
	testq	%rax, %rax
	jg	.LBB7_1
.LBB7_50:                               # %.outer185._crit_edge
	addq	$856, %rsp                      # imm = 0x358
	popq	%rbx
	popq	%r12
	popq	%r13
	popq	%r14
	popq	%r15
	popq	%rbp
	.cfi_def_cfa %rsp, 8
	retq
.LBB7_51:                               # %.split
	.cfi_def_cfa %rbp, 16
	movl	$1004, %edi                     # imm = 0x3EC
	callq	BZ2_bz__AssertH__fail
.Lfunc_end7:
	.size	fallbackQSort3, .Lfunc_end7-fallbackQSort3
	.cfi_endproc
                                        # -- End function
	.p2align	4, 0x90                         # -- Begin function fallbackSimpleSort
	.type	fallbackSimpleSort,@function
fallbackSimpleSort:                     # @fallbackSimpleSort
	.cfi_startproc
# %bb.0:
	pushq	%rbp
	.cfi_def_cfa_offset 16
	.cfi_offset %rbp, -16
	movq	%rsp, %rbp
	.cfi_def_cfa_register %rbp
	pushq	%r15
	pushq	%r14
	pushq	%r13
	pushq	%r12
	pushq	%rbx
	.cfi_offset %rbx, -56
	.cfi_offset %r12, -48
	.cfi_offset %r13, -40
	.cfi_offset %r14, -32
	.cfi_offset %r15, -24
                                        # kill: def $ecx killed $ecx def $rcx
	movl	%ecx, %eax
	subl	%edx, %eax
	je	.LBB8_11
# %bb.1:
	movslq	%ecx, %r12
	cmpl	$3, %eax
	jle	.LBB8_9
# %bb.2:
	leal	-4(%rcx), %eax
	movslq	%edx, %r8
	cmpl	%edx, %eax
	jl	.LBB8_10
# %bb.3:                                # %.lr.ph85.preheader
	movabsq	$4294967296, %r9                # imm = 0x100000000
	movslq	%eax, %r14
	movabsq	$-17179869184, %r10             # imm = 0xFFFFFFFC00000000
	movl	%ecx, %r11d
	jmp	.LBB8_5
	.p2align	4, 0x90
.LBB8_4:                                # %.thread
                                        #   in Loop: Header=BB8_5 Depth=1
	imulq	%r9, %rbx
	addq	%r10, %rbx
	sarq	$30, %rbx
	movl	%r15d, (%rdi,%rbx)
	leaq	-1(%r14), %rax
	addl	$-1, %r11d
	cmpq	%r8, %r14
	movq	%rax, %r14
	jle	.LBB8_10
.LBB8_5:                                # %.lr.ph85
                                        # =>This Loop Header: Depth=1
                                        #     Child Loop BB8_7 Depth 2
	movslq	%r11d, %rbx
	movslq	(%rdi,%r14,4), %r15
	cmpl	%ecx, %ebx
	jg	.LBB8_4
# %bb.6:                                # %.lr.ph78.preheader
                                        #   in Loop: Header=BB8_5 Depth=1
	movl	(%rsi,%r15,4), %r13d
	.p2align	4, 0x90
.LBB8_7:                                # %.lr.ph78
                                        #   Parent Loop BB8_5 Depth=1
                                        # =>  This Inner Loop Header: Depth=2
	movl	(%rdi,%rbx,4), %eax
	cmpl	(%rsi,%rax,4), %r13d
	jbe	.LBB8_4
# %bb.8:                                #   in Loop: Header=BB8_7 Depth=2
	movl	%eax, -16(%rdi,%rbx,4)
	addq	$4, %rbx
	cmpq	%r12, %rbx
	jle	.LBB8_7
	jmp	.LBB8_4
.LBB8_9:                                # %..loopexit52_crit_edge
	movslq	%edx, %r8
.LBB8_10:                               # %.loopexit52
	leal	-1(%rcx), %eax
	cmpl	%edx, %eax
	jge	.LBB8_12
.LBB8_11:                               # %.loopexit
	popq	%rbx
	popq	%r12
	popq	%r13
	popq	%r14
	popq	%r15
	popq	%rbp
	.cfi_def_cfa %rsp, 8
	retq
.LBB8_12:                               # %.lr.ph75.preheader
	.cfi_def_cfa %rbp, 16
	movabsq	$4294967296, %r9                # imm = 0x100000000
	movslq	%eax, %r14
	movabsq	$-4294967296, %r10              # imm = 0xFFFFFFFF00000000
	movl	%ecx, %r15d
	jmp	.LBB8_15
	.p2align	4, 0x90
.LBB8_13:                               #   in Loop: Header=BB8_15 Depth=1
	movq	%rax, %rdx
.LBB8_14:                               # %.thread51
                                        #   in Loop: Header=BB8_15 Depth=1
	imulq	%r9, %rdx
	addq	%r10, %rdx
	sarq	$30, %rdx
	movl	%r11d, (%rdi,%rdx)
	leaq	-1(%r14), %rax
	addl	$-1, %r15d
	cmpq	%r8, %r14
	movq	%rax, %r14
	jle	.LBB8_11
.LBB8_15:                               # %.lr.ph75
                                        # =>This Loop Header: Depth=1
                                        #     Child Loop BB8_17 Depth 2
	movslq	%r15d, %rax
	movslq	(%rdi,%r14,4), %r11
	cmpl	%ecx, %eax
	jg	.LBB8_13
# %bb.16:                               # %.lr.ph.preheader
                                        #   in Loop: Header=BB8_15 Depth=1
	movl	(%rsi,%r11,4), %ebx
	.p2align	4, 0x90
.LBB8_17:                               # %.lr.ph
                                        #   Parent Loop BB8_15 Depth=1
                                        # =>  This Inner Loop Header: Depth=2
	movl	(%rdi,%rax,4), %edx
	cmpl	(%rsi,%rdx,4), %ebx
	jbe	.LBB8_13
# %bb.18:                               #   in Loop: Header=BB8_17 Depth=2
	movl	%edx, -4(%rdi,%rax,4)
	leaq	1(%rax), %rdx
	cmpq	%r12, %rax
	movq	%rdx, %rax
	jl	.LBB8_17
	jmp	.LBB8_14
.Lfunc_end8:
	.size	fallbackSimpleSort, .Lfunc_end8-fallbackSimpleSort
	.cfi_endproc
                                        # -- End function
	.globl	main1                           # -- Begin function main1
	.p2align	4, 0x90
	.type	main1,@function
main1:                                  # @main1
	.cfi_startproc
# %bb.0:
	pushq	%rbp
	.cfi_def_cfa_offset 16
	.cfi_offset %rbp, -16
	movq	%rsp, %rbp
	.cfi_def_cfa_register %rbp
	pushq	%r15
	pushq	%r14
	pushq	%r13
	pushq	%r12
	pushq	%rbx
	subq	$24, %rsp
	.cfi_offset %rbx, -56
	.cfi_offset %r12, -48
	.cfi_offset %r13, -40
	.cfi_offset %r14, -32
	.cfi_offset %r15, -24
	movq	%rsi, %r15
	movl	%edi, %r12d
	movq	$0, outputHandleJustInCase(%rip)
	movb	$0, smallMode(%rip)
	movb	$0, keepInputFiles(%rip)
	movb	$0, forceOverwrite(%rip)
	movb	$1, noisy(%rip)
	movl	$0, verbosity(%rip)
	movl	$9, blockSize100k(%rip)
	movb	$0, testFailsExist(%rip)
	movb	$0, unzFailsExist(%rip)
	movl	$0, numFileNames(%rip)
	movl	$0, numFilesProcessed(%rip)
	movl	$30, workFactor(%rip)
	movb	$0, deleteOutputOnInterrupt(%rip)
	movl	$0, exitValue(%rip)
	movl	$mySIGSEGVorSIGBUScatcher, %esi
	movl	$11, %edi
	callq	signal
	movl	$mySIGSEGVorSIGBUScatcher, %esi
	movl	$7, %edi
	callq	signal
	movl	$inName, %edi
	movl	$.L.str.6.15, %esi
	callq	copyFileName
	movl	$outName, %edi
	movl	$.L.str.6.15, %esi
	callq	copyFileName
	movq	(%r15), %rsi
	movl	$progNameReally, %edi
	callq	copyFileName
	movq	$progNameReally, progName(%rip)
	movl	$progNameReally+1, %eax
	jmp	.LBB9_3
	.p2align	4, 0x90
.LBB9_1:                                #   in Loop: Header=BB9_3 Depth=1
	movq	%rax, progName(%rip)
.LBB9_2:                                #   in Loop: Header=BB9_3 Depth=1
	addq	$1, %rax
.LBB9_3:                                # =>This Inner Loop Header: Depth=1
	movzbl	-1(%rax), %ecx
	cmpb	$47, %cl
	je	.LBB9_1
# %bb.4:                                #   in Loop: Header=BB9_3 Depth=1
	testb	%cl, %cl
	jne	.LBB9_2
# %bb.5:
	movq	$0, -48(%rbp)
	leaq	-48(%rbp), %r14
	movl	$.L.str.7.16, %esi
	movq	%r14, %rdi
	callq	addFlagsFromEnvVar
	movl	$.L.str.8.17, %esi
	movq	%r14, %rdi
	callq	addFlagsFromEnvVar
	leal	-1(%r12), %eax
	testl	%eax, %eax
	movl	$1, %eax
	cmovlel	%eax, %r12d
	cmpl	$1, %r12d
	jne	.LBB9_7
# %bb.6:                                # %._crit_edge190
	movq	-48(%rbp), %rax
	jmp	.LBB9_10
.LBB9_7:                                # %.lr.ph183
	movl	$1, %ebx
	movq	-48(%rbp), %rax
	.p2align	4, 0x90
.LBB9_8:                                # =>This Inner Loop Header: Depth=1
	movq	(%r15,%rbx,8), %rsi
	movq	%rax, %rdi
	callq	snocString
	addq	$1, %rbx
	cmpq	%rbx, %r12
	jne	.LBB9_8
# %bb.9:                                # %._crit_edge184
	movq	%rax, -48(%rbp)
.LBB9_10:
	movl	$7, longestFileName(%rip)
	movl	$0, numFileNames(%rip)
	testq	%rax, %rax
	movq	%rax, -56(%rbp)                 # 8-byte Spill
	je	.LBB9_20
# %bb.11:                               # %.lr.ph178.preheader
	movb	$1, %r13b
	xorl	%r15d, %r15d
	movl	$7, %r12d
	movq	%rax, %r14
	jmp	.LBB9_14
	.p2align	4, 0x90
.LBB9_12:                               #   in Loop: Header=BB9_14 Depth=1
	xorl	%r13d, %r13d
.LBB9_13:                               #   in Loop: Header=BB9_14 Depth=1
	movq	8(%r14), %r14
	testq	%r14, %r14
	je	.LBB9_21
.LBB9_14:                               # %.lr.ph178
                                        # =>This Inner Loop Header: Depth=1
	movq	(%r14), %rbx
	movl	$.L.str.9.18, %esi
	movq	%rbx, %rdi
	callq	strcmp
	testl	%eax, %eax
	je	.LBB9_12
# %bb.15:                               #   in Loop: Header=BB9_14 Depth=1
	testb	%r13b, %r13b
	je	.LBB9_18
# %bb.16:                               #   in Loop: Header=BB9_14 Depth=1
	cmpb	$45, (%rbx)
	jne	.LBB9_18
# %bb.17:                               #   in Loop: Header=BB9_14 Depth=1
	movb	$1, %r13b
	jmp	.LBB9_13
	.p2align	4, 0x90
.LBB9_18:                               #   in Loop: Header=BB9_14 Depth=1
	addl	$1, %r15d
	movl	%r15d, numFileNames(%rip)
	movq	%rbx, %rdi
	callq	strlen
	cmpl	%eax, %r12d
	jge	.LBB9_13
# %bb.19:                               #   in Loop: Header=BB9_14 Depth=1
	movl	%eax, longestFileName(%rip)
	movl	%eax, %r12d
	jmp	.LBB9_13
.LBB9_20:
	xorl	%r15d, %r15d
.LBB9_21:                               # %._crit_edge179
	xorl	%eax, %eax
	testl	%r15d, %r15d
	setne	%al
	leal	1(%rax,%rax), %eax
	movl	%eax, srcMode(%rip)
	movl	$1, opMode(%rip)
	movq	progName(%rip), %rbx
	movl	$.L.str.10, %esi
	movq	%rbx, %rdi
	callq	strstr
	testq	%rax, %rax
	jne	.LBB9_23
# %bb.22:
	movl	$.L.str.11, %esi
	movq	%rbx, %rdi
	callq	strstr
	testq	%rax, %rax
	je	.LBB9_24
.LBB9_23:
	movl	$2, opMode(%rip)
.LBB9_24:
	movl	$.L.str.12, %esi
	movq	%rbx, %rdi
	callq	strstr
	testq	%rax, %rax
	movq	-56(%rbp), %r13                 # 8-byte Reload
	jne	.LBB9_28
# %bb.25:
	movl	$.L.str.13, %esi
	movq	%rbx, %rdi
	callq	strstr
	testq	%rax, %rax
	jne	.LBB9_28
# %bb.26:
	movl	$.L.str.14, %esi
	movq	%rbx, %rdi
	callq	strstr
	testq	%rax, %rax
	jne	.LBB9_28
# %bb.27:
	movl	$.L.str.15, %esi
	movq	%rbx, %rdi
	callq	strstr
	testq	%rax, %rax
	je	.LBB9_29
.LBB9_28:
	movl	$2, opMode(%rip)
	cmpl	$1, %r15d
	movl	$2, %eax
	sbbl	$0, %eax
	movl	%eax, srcMode(%rip)
.LBB9_29:
	testq	%r13, %r13
	je	.LBB9_95
# %bb.30:                               # %.lr.ph170.preheader
	movq	%r13, %r15
	jmp	.LBB9_32
	.p2align	4, 0x90
.LBB9_31:                               # %.loopexit89
                                        #   in Loop: Header=BB9_32 Depth=1
	movq	8(%r15), %r15
	testq	%r15, %r15
	je	.LBB9_59
.LBB9_32:                               # %.lr.ph170
                                        # =>This Loop Header: Depth=1
                                        #     Child Loop BB9_39 Depth 2
	movq	(%r15), %r12
	movl	$.L.str.9.18, %esi
	movq	%r12, %rdi
	callq	strcmp
	testl	%eax, %eax
	je	.LBB9_59
# %bb.33:                               #   in Loop: Header=BB9_32 Depth=1
	cmpb	$45, (%r12)
	jne	.LBB9_31
# %bb.34:                               #   in Loop: Header=BB9_32 Depth=1
	movb	1(%r12), %al
	testb	%al, %al
	je	.LBB9_31
# %bb.35:                               #   in Loop: Header=BB9_32 Depth=1
	cmpb	$45, %al
	je	.LBB9_31
# %bb.36:                               # %.lr.ph165.preheader
                                        #   in Loop: Header=BB9_32 Depth=1
	movl	$2, %ebx
	jmp	.LBB9_39
.LBB9_37:                               #   in Loop: Header=BB9_39 Depth=2
	addl	$1, verbosity(%rip)
	.p2align	4, 0x90
.LBB9_38:                               #   in Loop: Header=BB9_39 Depth=2
	movzbl	(%r12,%rbx), %eax
	addq	$1, %rbx
	testb	%al, %al
	je	.LBB9_31
.LBB9_39:                               # %.lr.ph165
                                        #   Parent Loop BB9_32 Depth=1
                                        # =>  This Inner Loop Header: Depth=2
	movsbl	%al, %eax
	addl	$-49, %eax
	cmpl	$73, %eax
	ja	.LBB9_152
# %bb.40:                               # %.lr.ph165
                                        #   in Loop: Header=BB9_39 Depth=2
	jmpq	*.LJTI9_0(,%rax,8)
.LBB9_41:                               #   in Loop: Header=BB9_39 Depth=2
	callq	license
	movq	(%r15), %r12
	jmp	.LBB9_38
.LBB9_42:                               #   in Loop: Header=BB9_39 Depth=2
	movb	$1, forceOverwrite(%rip)
	jmp	.LBB9_38
.LBB9_43:                               #   in Loop: Header=BB9_39 Depth=2
	movl	$2, srcMode(%rip)
	jmp	.LBB9_38
.LBB9_44:                               #   in Loop: Header=BB9_39 Depth=2
	movl	$3, opMode(%rip)
	jmp	.LBB9_38
.LBB9_45:                               #   in Loop: Header=BB9_39 Depth=2
	movl	$1, opMode(%rip)
	jmp	.LBB9_38
.LBB9_46:                               #   in Loop: Header=BB9_39 Depth=2
	movl	$3, blockSize100k(%rip)
	jmp	.LBB9_38
.LBB9_47:                               #   in Loop: Header=BB9_39 Depth=2
	movl	$4, blockSize100k(%rip)
	jmp	.LBB9_38
.LBB9_48:                               #   in Loop: Header=BB9_39 Depth=2
	movl	$7, blockSize100k(%rip)
	jmp	.LBB9_38
.LBB9_49:                               #   in Loop: Header=BB9_39 Depth=2
	movl	$2, opMode(%rip)
	jmp	.LBB9_38
.LBB9_50:                               #   in Loop: Header=BB9_39 Depth=2
	movl	$1, blockSize100k(%rip)
	jmp	.LBB9_38
.LBB9_51:                               #   in Loop: Header=BB9_39 Depth=2
	movl	$2, blockSize100k(%rip)
	jmp	.LBB9_38
.LBB9_52:                               #   in Loop: Header=BB9_39 Depth=2
	movb	$1, keepInputFiles(%rip)
	jmp	.LBB9_38
.LBB9_53:                               #   in Loop: Header=BB9_39 Depth=2
	movb	$1, smallMode(%rip)
	jmp	.LBB9_38
.LBB9_54:                               #   in Loop: Header=BB9_39 Depth=2
	movl	$5, blockSize100k(%rip)
	jmp	.LBB9_38
.LBB9_55:                               #   in Loop: Header=BB9_39 Depth=2
	movl	$8, blockSize100k(%rip)
	jmp	.LBB9_38
.LBB9_56:                               #   in Loop: Header=BB9_39 Depth=2
	movl	$6, blockSize100k(%rip)
	jmp	.LBB9_38
.LBB9_57:                               #   in Loop: Header=BB9_39 Depth=2
	movb	$0, noisy(%rip)
	jmp	.LBB9_38
.LBB9_58:                               #   in Loop: Header=BB9_39 Depth=2
	movl	$9, blockSize100k(%rip)
	jmp	.LBB9_38
.LBB9_59:                               # %.lr.ph160.preheader
	movq	%r13, %r15
	jmp	.LBB9_62
	.p2align	4, 0x90
.LBB9_60:                               #   in Loop: Header=BB9_62 Depth=1
	movl	$2, srcMode(%rip)
.LBB9_61:                               #   in Loop: Header=BB9_62 Depth=1
	movq	8(%r15), %r15
	testq	%r15, %r15
	je	.LBB9_95
.LBB9_62:                               # %.lr.ph160
                                        # =>This Inner Loop Header: Depth=1
	movq	(%r15), %rbx
	movl	$.L.str.9.18, %esi
	movq	%rbx, %rdi
	callq	strcmp
	testl	%eax, %eax
	je	.LBB9_95
# %bb.63:                               #   in Loop: Header=BB9_62 Depth=1
	movl	$.L.str.17, %esi
	movq	%rbx, %rdi
	callq	strcmp
	testl	%eax, %eax
	je	.LBB9_60
# %bb.64:                               #   in Loop: Header=BB9_62 Depth=1
	movl	$.L.str.18, %esi
	movq	%rbx, %rdi
	callq	strcmp
	testl	%eax, %eax
	je	.LBB9_81
# %bb.65:                               #   in Loop: Header=BB9_62 Depth=1
	movl	$.L.str.19, %esi
	movq	%rbx, %rdi
	callq	strcmp
	testl	%eax, %eax
	je	.LBB9_82
# %bb.66:                               #   in Loop: Header=BB9_62 Depth=1
	movl	$.L.str.20, %esi
	movq	%rbx, %rdi
	callq	strcmp
	testl	%eax, %eax
	je	.LBB9_83
# %bb.67:                               #   in Loop: Header=BB9_62 Depth=1
	movl	$.L.str.21, %esi
	movq	%rbx, %rdi
	callq	strcmp
	testl	%eax, %eax
	je	.LBB9_84
# %bb.68:                               #   in Loop: Header=BB9_62 Depth=1
	movl	$.L.str.22, %esi
	movq	%rbx, %rdi
	callq	strcmp
	testl	%eax, %eax
	je	.LBB9_85
# %bb.69:                               #   in Loop: Header=BB9_62 Depth=1
	movl	$.L.str.23, %esi
	movq	%rbx, %rdi
	callq	strcmp
	testl	%eax, %eax
	je	.LBB9_86
# %bb.70:                               #   in Loop: Header=BB9_62 Depth=1
	movl	$.L.str.24, %esi
	movq	%rbx, %rdi
	callq	strcmp
	testl	%eax, %eax
	je	.LBB9_87
# %bb.71:                               #   in Loop: Header=BB9_62 Depth=1
	movl	$.L.str.25, %esi
	movq	%rbx, %rdi
	callq	strcmp
	testl	%eax, %eax
	je	.LBB9_89
# %bb.72:                               #   in Loop: Header=BB9_62 Depth=1
	movl	$.L.str.26, %esi
	movq	%rbx, %rdi
	callq	strcmp
	testl	%eax, %eax
	je	.LBB9_89
# %bb.73:                               #   in Loop: Header=BB9_62 Depth=1
	movl	$.L.str.27, %esi
	movq	%rbx, %rdi
	callq	strcmp
	testl	%eax, %eax
	je	.LBB9_91
# %bb.74:                               #   in Loop: Header=BB9_62 Depth=1
	movl	$.L.str.28, %esi
	movq	%rbx, %rdi
	callq	strcmp
	testl	%eax, %eax
	je	.LBB9_90
# %bb.75:                               #   in Loop: Header=BB9_62 Depth=1
	movl	$.L.str.29, %esi
	movq	%rbx, %rdi
	callq	strcmp
	testl	%eax, %eax
	je	.LBB9_90
# %bb.76:                               #   in Loop: Header=BB9_62 Depth=1
	movl	$.L.str.30, %esi
	movq	%rbx, %rdi
	callq	strcmp
	testl	%eax, %eax
	je	.LBB9_92
# %bb.77:                               #   in Loop: Header=BB9_62 Depth=1
	movl	$.L.str.31, %esi
	movq	%rbx, %rdi
	callq	strcmp
	testl	%eax, %eax
	je	.LBB9_93
# %bb.78:                               #   in Loop: Header=BB9_62 Depth=1
	movl	$.L.str.32, %esi
	movq	%rbx, %rdi
	callq	strcmp
	testl	%eax, %eax
	je	.LBB9_94
# %bb.79:                               #   in Loop: Header=BB9_62 Depth=1
	movl	$.L.str.33, %esi
	movq	%rbx, %rdi
	callq	strcmp
	testl	%eax, %eax
	je	.LBB9_151
# %bb.80:                               #   in Loop: Header=BB9_62 Depth=1
	movl	$.L.str.9.18, %esi
	movl	$2, %edx
	movq	%rbx, %rdi
	callq	strncmp
	testl	%eax, %eax
	jne	.LBB9_61
	jmp	.LBB9_156
	.p2align	4, 0x90
.LBB9_81:                               #   in Loop: Header=BB9_62 Depth=1
	movl	$2, opMode(%rip)
	jmp	.LBB9_61
.LBB9_82:                               #   in Loop: Header=BB9_62 Depth=1
	movl	$1, opMode(%rip)
	jmp	.LBB9_61
.LBB9_83:                               #   in Loop: Header=BB9_62 Depth=1
	movb	$1, forceOverwrite(%rip)
	jmp	.LBB9_61
.LBB9_84:                               #   in Loop: Header=BB9_62 Depth=1
	movl	$3, opMode(%rip)
	jmp	.LBB9_61
.LBB9_85:                               #   in Loop: Header=BB9_62 Depth=1
	movb	$1, keepInputFiles(%rip)
	jmp	.LBB9_61
.LBB9_86:                               #   in Loop: Header=BB9_62 Depth=1
	movb	$1, smallMode(%rip)
	jmp	.LBB9_61
.LBB9_89:                               #   in Loop: Header=BB9_62 Depth=1
	callq	license
	jmp	.LBB9_61
.LBB9_87:                               #   in Loop: Header=BB9_62 Depth=1
	movb	$0, noisy(%rip)
	jmp	.LBB9_61
.LBB9_90:                               #   in Loop: Header=BB9_62 Depth=1
	movq	%rbx, %rdi
	callq	redundant
	jmp	.LBB9_61
.LBB9_91:                               #   in Loop: Header=BB9_62 Depth=1
	movl	$1, workFactor(%rip)
	jmp	.LBB9_61
.LBB9_92:                               #   in Loop: Header=BB9_62 Depth=1
	movl	$1, blockSize100k(%rip)
	jmp	.LBB9_61
.LBB9_93:                               #   in Loop: Header=BB9_62 Depth=1
	movl	$9, blockSize100k(%rip)
	jmp	.LBB9_61
.LBB9_94:                               #   in Loop: Header=BB9_62 Depth=1
	addl	$1, verbosity(%rip)
	jmp	.LBB9_61
.LBB9_95:                               # %._crit_edge161
	cmpl	$5, verbosity(%rip)
	jl	.LBB9_97
# %bb.96:
	movl	$4, verbosity(%rip)
.LBB9_97:
	movl	opMode(%rip), %eax
	cmpl	$1, %eax
	jne	.LBB9_101
# %bb.98:
	cmpb	$0, smallMode(%rip)
	je	.LBB9_104
# %bb.99:
	cmpl	$3, blockSize100k(%rip)
	jl	.LBB9_104
# %bb.100:
	movl	$2, blockSize100k(%rip)
	jmp	.LBB9_104
.LBB9_101:                              # %thread-pre-split
	cmpl	$3, %eax
	jne	.LBB9_104
# %bb.102:
	movl	srcMode(%rip), %ecx
	cmpl	$2, %ecx
	jne	.LBB9_113
# %bb.103:
	movq	stderr(%rip), %rdi
	movq	progName(%rip), %rdx
	movl	$.L.str.34, %esi
	xorl	%eax, %eax
	callq	fprintf
	movl	$1, %edi
	callq	exit
.LBB9_104:                              # %thread-pre-split.thread
	movl	srcMode(%rip), %ecx
	cmpl	$2, %ecx
	jne	.LBB9_107
# %bb.105:                              # %thread-pre-split.thread
	cmpl	$0, numFileNames(%rip)
	jne	.LBB9_107
# %bb.106:
	movl	$1, srcMode(%rip)
	movl	$1, %ecx
.LBB9_107:                              # %.thread
	cmpl	$1, %eax
	jne	.LBB9_113
# %bb.108:
	cmpl	$3, %ecx
	jne	.LBB9_109
.LBB9_114:
	movl	$mySignalCatcher, %esi
	movl	$2, %edi
	callq	signal
	movl	$mySignalCatcher, %esi
	movl	$15, %edi
	callq	signal
	movl	$mySignalCatcher, %esi
	movl	$1, %edi
	callq	signal
	movl	opMode(%rip), %eax
	cmpl	$2, %eax
	jne	.LBB9_110
.LBB9_115:
	movb	$0, unzFailsExist(%rip)
	cmpl	$1, srcMode(%rip)
	jne	.LBB9_128
# %bb.116:
	xorl	%edi, %edi
	callq	uncompress
.LBB9_117:                              # %.loopexit87
	cmpb	$0, unzFailsExist(%rip)
	je	.LBB9_146
	jmp	.LBB9_155
.LBB9_113:                              # %.thread.thread
	movl	$0, blockSize100k(%rip)
	cmpl	$3, %ecx
	je	.LBB9_114
.LBB9_109:
	cmpl	$2, %eax
	je	.LBB9_115
.LBB9_110:
	cmpl	$1, %eax
	jne	.LBB9_118
# %bb.111:
	cmpl	$1, srcMode(%rip)
	jne	.LBB9_120
# %bb.112:
	xorl	%edi, %edi
	callq	compress
	jmp	.LBB9_146
.LBB9_118:
	movb	$0, testFailsExist(%rip)
	cmpl	$1, srcMode(%rip)
	jne	.LBB9_136
# %bb.119:
	xorl	%edi, %edi
	callq	testf
	jmp	.LBB9_144
.LBB9_128:                              # %.preheader134
	testq	%r13, %r13
	je	.LBB9_147
# %bb.129:                              # %.lr.ph155.preheader
	movb	$1, %r15b
	movq	%r13, %rbx
	jmp	.LBB9_132
	.p2align	4, 0x90
.LBB9_130:                              #   in Loop: Header=BB9_132 Depth=1
	xorl	%eax, %eax
.LBB9_131:                              #   in Loop: Header=BB9_132 Depth=1
	movq	8(%rbx), %rbx
	movl	%eax, %r15d
	testq	%rbx, %rbx
	je	.LBB9_117
.LBB9_132:                              # %.lr.ph155
                                        # =>This Inner Loop Header: Depth=1
	movq	(%rbx), %r14
	movl	$.L.str.9.18, %esi
	movq	%r14, %rdi
	callq	strcmp
	testl	%eax, %eax
	je	.LBB9_130
# %bb.133:                              #   in Loop: Header=BB9_132 Depth=1
	testb	%r15b, %r15b
	je	.LBB9_135
# %bb.134:                              #   in Loop: Header=BB9_132 Depth=1
	movb	$1, %al
	cmpb	$45, (%r14)
	je	.LBB9_131
.LBB9_135:                              #   in Loop: Header=BB9_132 Depth=1
	addl	$1, numFilesProcessed(%rip)
	movq	%r14, %rdi
	callq	uncompress
	movl	%r15d, %eax
	jmp	.LBB9_131
.LBB9_120:                              # %.preheader133
	testq	%r13, %r13
	je	.LBB9_147
# %bb.121:                              # %.lr.ph150.preheader
	movb	$1, %r15b
	movq	%r13, %rbx
	jmp	.LBB9_124
	.p2align	4, 0x90
.LBB9_122:                              #   in Loop: Header=BB9_124 Depth=1
	xorl	%eax, %eax
.LBB9_123:                              #   in Loop: Header=BB9_124 Depth=1
	movq	8(%rbx), %rbx
	movl	%eax, %r15d
	testq	%rbx, %rbx
	je	.LBB9_146
.LBB9_124:                              # %.lr.ph150
                                        # =>This Inner Loop Header: Depth=1
	movq	(%rbx), %r14
	movl	$.L.str.9.18, %esi
	movq	%r14, %rdi
	callq	strcmp
	testl	%eax, %eax
	je	.LBB9_122
# %bb.125:                              #   in Loop: Header=BB9_124 Depth=1
	testb	%r15b, %r15b
	je	.LBB9_127
# %bb.126:                              #   in Loop: Header=BB9_124 Depth=1
	movb	$1, %al
	cmpb	$45, (%r14)
	je	.LBB9_123
.LBB9_127:                              #   in Loop: Header=BB9_124 Depth=1
	addl	$1, numFilesProcessed(%rip)
	movq	%r14, %rdi
	callq	compress
	movl	%r15d, %eax
	jmp	.LBB9_123
.LBB9_136:                              # %.preheader
	testq	%r13, %r13
	je	.LBB9_144
# %bb.137:                              # %.lr.ph145.preheader
	movb	$1, %r15b
	movq	%r13, %rbx
	jmp	.LBB9_140
	.p2align	4, 0x90
.LBB9_138:                              #   in Loop: Header=BB9_140 Depth=1
	xorl	%eax, %eax
.LBB9_139:                              #   in Loop: Header=BB9_140 Depth=1
	movq	8(%rbx), %rbx
	movl	%eax, %r15d
	testq	%rbx, %rbx
	je	.LBB9_144
.LBB9_140:                              # %.lr.ph145
                                        # =>This Inner Loop Header: Depth=1
	movq	(%rbx), %r14
	movl	$.L.str.9.18, %esi
	movq	%r14, %rdi
	callq	strcmp
	testl	%eax, %eax
	je	.LBB9_138
# %bb.141:                              #   in Loop: Header=BB9_140 Depth=1
	testb	%r15b, %r15b
	je	.LBB9_143
# %bb.142:                              #   in Loop: Header=BB9_140 Depth=1
	movb	$1, %al
	cmpb	$45, (%r14)
	je	.LBB9_139
.LBB9_143:                              #   in Loop: Header=BB9_140 Depth=1
	addl	$1, numFilesProcessed(%rip)
	movq	%r14, %rdi
	callq	testf
	movl	%r15d, %eax
	jmp	.LBB9_139
.LBB9_144:                              # %.loopexit88
	cmpb	$0, testFailsExist(%rip)
	je	.LBB9_146
# %bb.145:                              # %.loopexit88
	cmpb	$0, noisy(%rip)
	jne	.LBB9_154
.LBB9_146:                              # %.loopexit
	testq	%r13, %r13
	jne	.LBB9_149
.LBB9_147:                              # %._crit_edge
	movl	exitValue(%rip), %eax
	addq	$24, %rsp
	popq	%rbx
	popq	%r12
	popq	%r13
	popq	%r14
	popq	%r15
	popq	%rbp
	.cfi_def_cfa %rsp, 8
	retq
	.p2align	4, 0x90
.LBB9_148:                              #   in Loop: Header=BB9_149 Depth=1
	.cfi_def_cfa %rbp, 16
	movq	%r13, %rdi
	callq	free
	movq	%rbx, %r13
	testq	%rbx, %rbx
	je	.LBB9_147
.LBB9_149:                              # %.lr.ph
                                        # =>This Inner Loop Header: Depth=1
	movq	(%r13), %rdi
	movq	8(%r13), %rbx
	testq	%rdi, %rdi
	je	.LBB9_148
# %bb.150:                              #   in Loop: Header=BB9_149 Depth=1
	callq	free
	jmp	.LBB9_148
.LBB9_151:
	movq	progName(%rip), %rdi
	callq	usage
	xorl	%edi, %edi
	callq	exit
.LBB9_152:
	movq	stderr(%rip), %rdi
	movq	progName(%rip), %rdx
	movl	$.L.str.16, %esi
	movq	%r12, %rcx
.LBB9_153:
	xorl	%eax, %eax
	callq	fprintf
	movq	progName(%rip), %rdi
	callq	usage
	movl	$1, %edi
	callq	exit
.LBB9_154:
	movq	stderr(%rip), %rcx
	movl	$.L.str.35, %edi
	movl	$112, %esi
	movl	$1, %edx
	callq	fwrite
.LBB9_155:
	movl	$2, %edi
	callq	setExit
	movl	exitValue(%rip), %edi
	callq	exit
.LBB9_156:
	movq	stderr(%rip), %rdi
	movq	progName(%rip), %rdx
	movl	$.L.str.16, %esi
	movq	%rbx, %rcx
	jmp	.LBB9_153
.Lfunc_end9:
	.size	main1, .Lfunc_end9-main1
	.cfi_endproc
	.section	.rodata,"a",@progbits
	.p2align	3
.LJTI9_0:
	.quad	.LBB9_50
	.quad	.LBB9_51
	.quad	.LBB9_46
	.quad	.LBB9_47
	.quad	.LBB9_54
	.quad	.LBB9_56
	.quad	.LBB9_48
	.quad	.LBB9_55
	.quad	.LBB9_58
	.quad	.LBB9_152
	.quad	.LBB9_152
	.quad	.LBB9_152
	.quad	.LBB9_152
	.quad	.LBB9_152
	.quad	.LBB9_152
	.quad	.LBB9_152
	.quad	.LBB9_152
	.quad	.LBB9_152
	.quad	.LBB9_152
	.quad	.LBB9_152
	.quad	.LBB9_152
	.quad	.LBB9_152
	.quad	.LBB9_152
	.quad	.LBB9_152
	.quad	.LBB9_152
	.quad	.LBB9_152
	.quad	.LBB9_152
	.quad	.LBB9_41
	.quad	.LBB9_152
	.quad	.LBB9_152
	.quad	.LBB9_152
	.quad	.LBB9_152
	.quad	.LBB9_152
	.quad	.LBB9_152
	.quad	.LBB9_152
	.quad	.LBB9_152
	.quad	.LBB9_152
	.quad	.LBB9_41
	.quad	.LBB9_152
	.quad	.LBB9_152
	.quad	.LBB9_152
	.quad	.LBB9_152
	.quad	.LBB9_152
	.quad	.LBB9_152
	.quad	.LBB9_152
	.quad	.LBB9_152
	.quad	.LBB9_152
	.quad	.LBB9_152
	.quad	.LBB9_152
	.quad	.LBB9_152
	.quad	.LBB9_43
	.quad	.LBB9_49
	.quad	.LBB9_152
	.quad	.LBB9_42
	.quad	.LBB9_152
	.quad	.LBB9_151
	.quad	.LBB9_152
	.quad	.LBB9_152
	.quad	.LBB9_52
	.quad	.LBB9_152
	.quad	.LBB9_152
	.quad	.LBB9_152
	.quad	.LBB9_152
	.quad	.LBB9_152
	.quad	.LBB9_57
	.quad	.LBB9_152
	.quad	.LBB9_53
	.quad	.LBB9_44
	.quad	.LBB9_152
	.quad	.LBB9_37
	.quad	.LBB9_152
	.quad	.LBB9_152
	.quad	.LBB9_152
	.quad	.LBB9_45
                                        # -- End function
	.text
	.p2align	4, 0x90                         # -- Begin function mySIGSEGVorSIGBUScatcher
	.type	mySIGSEGVorSIGBUScatcher,@function
mySIGSEGVorSIGBUScatcher:               # @mySIGSEGVorSIGBUScatcher
	.cfi_startproc
# %bb.0:
	pushq	%rbp
	.cfi_def_cfa_offset 16
	.cfi_offset %rbp, -16
	movq	%rsp, %rbp
	.cfi_def_cfa_register %rbp
	cmpl	$1, opMode(%rip)
	jne	.LBB10_2
# %bb.1:
	movq	stderr(%rip), %rdi
	movq	progName(%rip), %rdx
	movl	$.L.str.36, %esi
	jmp	.LBB10_3
.LBB10_2:
	movq	stderr(%rip), %rdi
	movq	progName(%rip), %rdx
	movl	$.L.str.37, %esi
.LBB10_3:
	xorl	%eax, %eax
	callq	fprintf
	callq	showFileNames
	cmpl	$1, opMode(%rip)
	jne	.LBB10_5
# %bb.4:
	movl	$3, %edi
	callq	cleanUpAndFail
.LBB10_5:
	callq	cadvise
	movl	$2, %edi
	callq	cleanUpAndFail
.Lfunc_end10:
	.size	mySIGSEGVorSIGBUScatcher, .Lfunc_end10-mySIGSEGVorSIGBUScatcher
	.cfi_endproc
                                        # -- End function
	.p2align	4, 0x90                         # -- Begin function copyFileName
	.type	copyFileName,@function
copyFileName:                           # @copyFileName
	.cfi_startproc
# %bb.0:
	pushq	%rbp
	.cfi_def_cfa_offset 16
	.cfi_offset %rbp, -16
	movq	%rsp, %rbp
	.cfi_def_cfa_register %rbp
	pushq	%r14
	pushq	%rbx
	.cfi_offset %rbx, -32
	.cfi_offset %r14, -24
	movq	%rsi, %r14
	movq	%rdi, %rbx
	movq	%rsi, %rdi
	callq	strlen
	cmpq	$1025, %rax                     # imm = 0x401
	jae	.LBB11_2
# %bb.1:
	movl	$1024, %edx                     # imm = 0x400
	movq	%rbx, %rdi
	movq	%r14, %rsi
	callq	strncpy
	movb	$0, 1024(%rbx)
	popq	%rbx
	popq	%r14
	popq	%rbp
	.cfi_def_cfa %rsp, 8
	retq
.LBB11_2:
	.cfi_def_cfa %rbp, 16
	movq	stderr(%rip), %rdi
	movl	$.L.str.47, %esi
	movq	%r14, %rdx
	movl	$1024, %ecx                     # imm = 0x400
	xorl	%eax, %eax
	callq	fprintf
	movl	$1, %edi
	callq	setExit
	movl	exitValue(%rip), %edi
	callq	exit
.Lfunc_end11:
	.size	copyFileName, .Lfunc_end11-copyFileName
	.cfi_endproc
                                        # -- End function
	.p2align	4, 0x90                         # -- Begin function addFlagsFromEnvVar
	.type	addFlagsFromEnvVar,@function
addFlagsFromEnvVar:                     # @addFlagsFromEnvVar
	.cfi_startproc
# %bb.0:
	pushq	%rbp
	.cfi_def_cfa_offset 16
	.cfi_offset %rbp, -16
	movq	%rsp, %rbp
	.cfi_def_cfa_register %rbp
	pushq	%r15
	pushq	%r14
	pushq	%r13
	pushq	%r12
	pushq	%rbx
	pushq	%rax
	.cfi_offset %rbx, -56
	.cfi_offset %r12, -48
	.cfi_offset %r13, -40
	.cfi_offset %r14, -32
	.cfi_offset %r15, -24
	movq	%rdi, %r14
	movq	%rsi, %rdi
	callq	getenv
	testq	%rax, %rax
	je	.LBB12_23
# %bb.1:                                # %.preheader38
	movq	%rax, %rbx
	movb	(%rax), %r12b
	testb	%r12b, %r12b
	je	.LBB12_23
# %bb.2:                                # %.preheader37.lr.ph
	callq	__ctype_b_loc
	movq	%rax, %r15
	jmp	.LBB12_5
	.p2align	4, 0x90
.LBB12_3:                               #   in Loop: Header=BB12_5 Depth=1
	xorl	%r13d, %r13d
.LBB12_4:                               # %.thread.thread
                                        #   in Loop: Header=BB12_5 Depth=1
	movslq	%r13d, %rax
	movb	(%rbx,%rax), %r12b
	addq	%rax, %rbx
	testb	%r12b, %r12b
	je	.LBB12_23
.LBB12_5:                               # %.preheader37
                                        # =>This Loop Header: Depth=1
                                        #     Child Loop BB12_6 Depth 2
                                        #     Child Loop BB12_10 Depth 2
                                        #     Child Loop BB12_21 Depth 2
                                        #     Child Loop BB12_17 Depth 2
	movq	(%r15), %rcx
	movsbq	%r12b, %rax
	movzwl	(%rcx,%rax,2), %eax
	testl	$8192, %eax                     # imm = 0x2000
	je	.LBB12_8
	.p2align	4, 0x90
.LBB12_6:                               # %._crit_edge
                                        #   Parent Loop BB12_5 Depth=1
                                        # =>  This Inner Loop Header: Depth=2
	movsbq	1(%rbx), %r12
	addq	$1, %rbx
	movzwl	(%rcx,%r12,2), %eax
	testl	$8192, %eax                     # imm = 0x2000
	jne	.LBB12_6
# %bb.7:                                # %.preheader
                                        #   in Loop: Header=BB12_5 Depth=1
	testb	%r12b, %r12b
	je	.LBB12_3
.LBB12_8:                               # %.lr.ph.preheader
                                        #   in Loop: Header=BB12_5 Depth=1
	testl	$8192, %eax                     # imm = 0x2000
	jne	.LBB12_3
# %bb.9:                                # %.lr.ph70.preheader
                                        #   in Loop: Header=BB12_5 Depth=1
	movl	$1, %edx
	movl	$1, %esi
	.p2align	4, 0x90
.LBB12_10:                              # %.lr.ph70
                                        #   Parent Loop BB12_5 Depth=1
                                        # =>  This Inner Loop Header: Depth=2
	movq	%rdx, %r13
	movl	%esi, %eax
	movsbq	(%rbx,%rdx), %rdi
	testq	%rdi, %rdi
	je	.LBB12_12
# %bb.11:                               # %..lr.ph_crit_edge
                                        #   in Loop: Header=BB12_10 Depth=2
	leaq	1(%r13), %rdx
	leal	1(%rax), %esi
	testb	$32, 1(%rcx,%rdi,2)
	je	.LBB12_10
.LBB12_12:                              # %.thread
                                        #   in Loop: Header=BB12_5 Depth=1
	testl	%r13d, %r13d
	jle	.LBB12_4
# %bb.13:                               #   in Loop: Header=BB12_5 Depth=1
	cmpl	$1024, %r13d                    # imm = 0x400
	movl	$1024, %r8d                     # imm = 0x400
	cmovll	%r13d, %r8d
	leaq	-1(%r8), %rdx
	cmpq	$3, %rdx
	jae	.LBB12_20
# %bb.14:                               #   in Loop: Header=BB12_5 Depth=1
	xorl	%edx, %edx
.LBB12_15:                              # %.unr-lcssa
                                        #   in Loop: Header=BB12_5 Depth=1
	testb	$3, %r8b
	je	.LBB12_18
# %bb.16:                               # %.epil.preheader.preheader
                                        #   in Loop: Header=BB12_5 Depth=1
	leaq	(%rbx,%rdx), %rsi
	cmpl	$1024, %eax                     # imm = 0x400
	movl	$1024, %ecx                     # imm = 0x400
	cmovgel	%ecx, %eax
	andl	$3, %eax
	xorl	%edi, %edi
	.p2align	4, 0x90
.LBB12_17:                              # %.epil.preheader
                                        #   Parent Loop BB12_5 Depth=1
                                        # =>  This Inner Loop Header: Depth=2
	movzbl	(%rsi,%rdi), %ecx
	movb	%cl, tmpName(%rdx,%rdi)
	addq	$1, %rdi
	cmpq	%rdi, %rax
	jne	.LBB12_17
.LBB12_18:                              # %.epilog-lcssa
                                        #   in Loop: Header=BB12_5 Depth=1
	movslq	%r8d, %rax
	movb	$0, tmpName(%rax)
	movq	(%r14), %rdi
	movl	$tmpName, %esi
	callq	snocString
	movq	%rax, (%r14)
	jmp	.LBB12_4
.LBB12_20:                              # %.new
                                        #   in Loop: Header=BB12_5 Depth=1
	cmpl	$1024, %eax                     # imm = 0x400
	movl	$1024, %esi                     # imm = 0x400
	cmovll	%eax, %esi
	andl	$-4, %esi
	movl	$4, %edx
	.p2align	4, 0x90
.LBB12_21:                              #   Parent Loop BB12_5 Depth=1
                                        # =>  This Inner Loop Header: Depth=2
	movb	%r12b, tmpName-4(%rdx)
	movzbl	-3(%rbx,%rdx), %ecx
	movb	%cl, tmpName-3(%rdx)
	movzbl	-2(%rbx,%rdx), %ecx
	movb	%cl, tmpName-2(%rdx)
	movzbl	-1(%rbx,%rdx), %ecx
	movb	%cl, tmpName-1(%rdx)
	cmpq	%rdx, %rsi
	je	.LBB12_15
# %bb.22:                               # %._crit_edge51
                                        #   in Loop: Header=BB12_21 Depth=2
	movzbl	(%rbx,%rdx), %r12d
	addq	$4, %rdx
	jmp	.LBB12_21
.LBB12_23:                              # %.loopexit
	addq	$8, %rsp
	popq	%rbx
	popq	%r12
	popq	%r13
	popq	%r14
	popq	%r15
	popq	%rbp
	.cfi_def_cfa %rsp, 8
	retq
.Lfunc_end12:
	.size	addFlagsFromEnvVar, .Lfunc_end12-addFlagsFromEnvVar
	.cfi_endproc
                                        # -- End function
	.p2align	4, 0x90                         # -- Begin function snocString
	.type	snocString,@function
snocString:                             # @snocString
	.cfi_startproc
# %bb.0:
	pushq	%rbp
	.cfi_def_cfa_offset 16
	.cfi_offset %rbp, -16
	movq	%rsp, %rbp
	.cfi_def_cfa_register %rbp
	pushq	%r15
	pushq	%r14
	pushq	%rbx
	pushq	%rax
	.cfi_offset %rbx, -40
	.cfi_offset %r14, -32
	.cfi_offset %r15, -24
	movq	%rsi, %r14
	testq	%rdi, %rdi
	je	.LBB13_5
# %bb.1:
	movq	%rdi, %r15
	movq	%rdi, %rax
	.p2align	4, 0x90
.LBB13_2:                               # %.preheader
                                        # =>This Inner Loop Header: Depth=1
	movq	%rax, %rbx
	movq	8(%rax), %rax
	testq	%rax, %rax
	jne	.LBB13_2
# %bb.3:
	xorl	%edi, %edi
	movq	%r14, %rsi
	callq	snocString
	movq	%rax, 8(%rbx)
	movq	%r15, %rax
	jmp	.LBB13_4
.LBB13_5:
	callq	mkCell
	movq	%rax, %rbx
	movq	%r14, %rdi
	callq	strlen
	leal	5(%rax), %edi
	callq	myMalloc
	movq	%rax, (%rbx)
	movq	%rax, %rdi
	movq	%r14, %rsi
	callq	strcpy
	movq	%rbx, %rax
.LBB13_4:
	addq	$8, %rsp
	popq	%rbx
	popq	%r14
	popq	%r15
	popq	%rbp
	.cfi_def_cfa %rsp, 8
	retq
.Lfunc_end13:
	.size	snocString, .Lfunc_end13-snocString
	.cfi_endproc
                                        # -- End function
	.p2align	4, 0x90                         # -- Begin function license
	.type	license,@function
license:                                # @license
	.cfi_startproc
# %bb.0:
	pushq	%rbp
	.cfi_def_cfa_offset 16
	.cfi_offset %rbp, -16
	movq	%rsp, %rbp
	.cfi_def_cfa_register %rbp
	movq	stderr(%rip), %rdi
	movl	$.L.str.49, %esi
	movl	$.L.str.5.107, %edx
	xorl	%eax, %eax
	popq	%rbp
	.cfi_def_cfa %rsp, 8
	jmp	fprintf                         # TAILCALL
.Lfunc_end14:
	.size	license, .Lfunc_end14-license
	.cfi_endproc
                                        # -- End function
	.p2align	4, 0x90                         # -- Begin function usage
	.type	usage,@function
usage:                                  # @usage
	.cfi_startproc
# %bb.0:
	pushq	%rbp
	.cfi_def_cfa_offset 16
	.cfi_offset %rbp, -16
	movq	%rsp, %rbp
	.cfi_def_cfa_register %rbp
	movq	%rdi, %rcx
	movq	stderr(%rip), %rdi
	movl	$.L.str.50, %esi
	movl	$.L.str.5.107, %edx
	xorl	%eax, %eax
	popq	%rbp
	.cfi_def_cfa %rsp, 8
	jmp	fprintf                         # TAILCALL
.Lfunc_end15:
	.size	usage, .Lfunc_end15-usage
	.cfi_endproc
                                        # -- End function
	.p2align	4, 0x90                         # -- Begin function redundant
	.type	redundant,@function
redundant:                              # @redundant
	.cfi_startproc
# %bb.0:
	pushq	%rbp
	.cfi_def_cfa_offset 16
	.cfi_offset %rbp, -16
	movq	%rsp, %rbp
	.cfi_def_cfa_register %rbp
	movq	%rdi, %rcx
	movq	stderr(%rip), %rdi
	movq	progName(%rip), %rdx
	movl	$.L.str.51, %esi
	xorl	%eax, %eax
	popq	%rbp
	.cfi_def_cfa %rsp, 8
	jmp	fprintf                         # TAILCALL
.Lfunc_end16:
	.size	redundant, .Lfunc_end16-redundant
	.cfi_endproc
                                        # -- End function
	.p2align	4, 0x90                         # -- Begin function mySignalCatcher
	.type	mySignalCatcher,@function
mySignalCatcher:                        # @mySignalCatcher
	.cfi_startproc
# %bb.0:
	pushq	%rbp
	.cfi_def_cfa_offset 16
	.cfi_offset %rbp, -16
	movq	%rsp, %rbp
	.cfi_def_cfa_register %rbp
	movq	stderr(%rip), %rdi
	movq	progName(%rip), %rdx
	movl	$.L.str.52, %esi
	xorl	%eax, %eax
	callq	fprintf
	movl	$1, %edi
	callq	cleanUpAndFail
.Lfunc_end17:
	.size	mySignalCatcher, .Lfunc_end17-mySignalCatcher
	.cfi_endproc
                                        # -- End function
	.p2align	4, 0x90                         # -- Begin function compress
	.type	compress,@function
compress:                               # @compress
	.cfi_startproc
# %bb.0:
	pushq	%rbp
	.cfi_def_cfa_offset 16
	.cfi_offset %rbp, -16
	movq	%rsp, %rbp
	.cfi_def_cfa_register %rbp
	pushq	%r15
	pushq	%r14
	pushq	%rbx
	subq	$152, %rsp
	.cfi_offset %rbx, -40
	.cfi_offset %r14, -32
	.cfi_offset %r15, -24
	movb	$0, deleteOutputOnInterrupt(%rip)
	testq	%rdi, %rdi
	je	.LBB18_1
# %bb.3:
	movq	%rdi, %rbx
	movl	srcMode(%rip), %eax
	cmpl	$3, %eax
	je	.LBB18_7
# %bb.4:
	cmpl	$2, %eax
	je	.LBB18_8
# %bb.5:
	cmpl	$1, %eax
	je	.LBB18_6
# %bb.11:                               # %thread-pre-split24
	cmpl	$1, %eax
	jne	.LBB18_12
	jmp	.LBB18_14
.LBB18_1:
	cmpl	$1, srcMode(%rip)
	jne	.LBB18_2
.LBB18_6:                               # %.thread
	movl	$inName, %edi
	movl	$.L.str.54, %esi
	jmp	.LBB18_9
.LBB18_7:
	movl	$inName, %edi
	movq	%rbx, %rsi
	callq	copyFileName
	movl	$outName, %edi
	movq	%rbx, %rsi
	callq	copyFileName
	movl	$outName, %edi
	callq	strlen
	movl	$846881326, outName(%rax)       # imm = 0x327A622E
	movb	$0, outName+4(%rax)
	movl	srcMode(%rip), %eax
	cmpl	$1, %eax
	jne	.LBB18_12
	jmp	.LBB18_14
.LBB18_8:
	movl	$inName, %edi
	movq	%rbx, %rsi
.LBB18_9:                               # %thread-pre-split24thread-pre-split
	callq	copyFileName
	movl	$outName, %edi
	movl	$.L.str.55, %esi
	callq	copyFileName
	movl	srcMode(%rip), %eax
	cmpl	$1, %eax
	je	.LBB18_14
.LBB18_12:
	movl	$inName, %edi
	callq	fileExists
	testb	%al, %al
	je	.LBB18_13
.LBB18_14:
	movq	zSuffix(%rip), %rbx
	movl	$inName, %edi
	movq	%rbx, %rsi
	callq	hasSuffix
	testb	%al, %al
	jne	.LBB18_15
# %bb.63:
	movq	zSuffix+8(%rip), %rbx
	movl	$inName, %edi
	movq	%rbx, %rsi
	callq	hasSuffix
	testb	%al, %al
	jne	.LBB18_15
# %bb.64:
	movq	zSuffix+16(%rip), %rbx
	movl	$inName, %edi
	movq	%rbx, %rsi
	callq	hasSuffix
	testb	%al, %al
	jne	.LBB18_15
# %bb.65:
	movq	zSuffix+24(%rip), %rbx
	movl	$inName, %edi
	movq	%rbx, %rsi
	callq	hasSuffix
	testb	%al, %al
	je	.LBB18_66
.LBB18_15:
	cmpb	$0, noisy(%rip)
	jne	.LBB18_16
.LBB18_18:
	movl	$1, %edi
	addq	$152, %rsp
	popq	%rbx
	popq	%r14
	popq	%r15
	popq	%rbp
	.cfi_def_cfa %rsp, 8
	jmp	setExit                         # TAILCALL
.LBB18_16:
	.cfi_def_cfa %rbp, 16
	movq	stderr(%rip), %rdi
	movq	progName(%rip), %rdx
	movl	$.L.str.58, %esi
	movl	$inName, %ecx
	movq	%rbx, %r8
	jmp	.LBB18_17
.LBB18_66:
	movl	srcMode(%rip), %eax
	movl	%eax, %ecx
	andl	$-2, %ecx
	cmpl	$2, %ecx
	jne	.LBB18_24
# %bb.19:
	leaq	-168(%rbp), %rsi
	movl	$inName, %edi
	callq	stat
	movl	$61440, %eax                    # imm = 0xF000
	andl	-144(%rbp), %eax
	cmpl	$16384, %eax                    # imm = 0x4000
	je	.LBB18_20
# %bb.23:                               # %thread-pre-split26
	movl	srcMode(%rip), %eax
.LBB18_24:
	cmpl	$3, %eax
	jne	.LBB18_28
# %bb.25:
	cmpb	$0, forceOverwrite(%rip)
	jne	.LBB18_28
# %bb.26:
	callq	notAStandardFile
	testb	%al, %al
	je	.LBB18_27
# %bb.32:
	cmpb	$0, noisy(%rip)
	je	.LBB18_18
# %bb.33:
	movq	stderr(%rip), %rdi
	movq	progName(%rip), %rdx
	movl	$.L.str.60, %esi
	jmp	.LBB18_21
.LBB18_27:                              # %._crit_edge
	movl	srcMode(%rip), %eax
.LBB18_28:
	cmpl	$3, %eax
	jne	.LBB18_41
# %bb.29:
	movl	$outName, %edi
	callq	fileExists
	testb	%al, %al
	je	.LBB18_35
# %bb.30:
	cmpb	$0, forceOverwrite(%rip)
	je	.LBB18_31
# %bb.34:
	movl	$outName, %edi
	callq	remove
.LBB18_35:
	movl	srcMode(%rip), %eax
	cmpl	$3, %eax
	jne	.LBB18_41
# %bb.36:
	cmpb	$0, forceOverwrite(%rip)
	jne	.LBB18_40
# %bb.37:
	callq	countHardLinks
	testl	%eax, %eax
	jg	.LBB18_38
# %bb.39:
	movl	srcMode(%rip), %eax
	cmpl	$3, %eax
	jne	.LBB18_41
.LBB18_40:                              # %.thread34
	callq	saveInputFileMetaInfo
	movl	srcMode(%rip), %eax
.LBB18_41:                              # %thread-pre-split35
	cmpl	$3, %eax
	je	.LBB18_57
# %bb.42:                               # %thread-pre-split35
	cmpl	$2, %eax
	je	.LBB18_46
# %bb.43:                               # %thread-pre-split35
	cmpl	$1, %eax
	jne	.LBB18_61
# %bb.44:
	movq	stdin(%rip), %r14
	movq	stdout(%rip), %rbx
	movq	%rbx, %rdi
	callq	fileno
	movl	%eax, %edi
	callq	isatty
	testl	%eax, %eax
	je	.LBB18_51
# %bb.45:
	movq	stderr(%rip), %rdi
	movq	progName(%rip), %rdx
	movl	$.L.str.64, %esi
	xorl	%eax, %eax
	callq	fprintf
	movq	stderr(%rip), %rdi
	movq	progName(%rip), %rcx
	movl	$.L.str.65, %esi
	movq	%rcx, %rdx
	jmp	.LBB18_22
.LBB18_57:
	movl	$inName, %edi
	movl	$.L.str.66, %esi
	callq	fopen
	movq	%rax, %r14
	callq	fopen_output_safely
	testq	%rax, %rax
	je	.LBB18_58
# %bb.59:
	movq	%rax, %rbx
	testq	%r14, %r14
	jne	.LBB18_51
# %bb.60:
	movq	stderr(%rip), %r14
	movq	progName(%rip), %r15
	callq	__errno_location
	movl	(%rax), %edi
	callq	strerror
	movl	$.L.str.57, %esi
	movl	$inName, %ecx
	movq	%r14, %rdi
	movq	%r15, %rdx
	movq	%rax, %r8
	xorl	%eax, %eax
	callq	fprintf
	movq	%rbx, %rdi
	callq	fclose
	jmp	.LBB18_18
.LBB18_46:
	movl	$inName, %edi
	movl	$.L.str.66, %esi
	callq	fopen
	movq	%rax, %r14
	movq	stdout(%rip), %rbx
	movq	%rbx, %rdi
	callq	fileno
	movl	%eax, %edi
	callq	isatty
	testl	%eax, %eax
	jne	.LBB18_47
# %bb.50:
	testq	%r14, %r14
	je	.LBB18_13
.LBB18_51:
	cmpl	$0, verbosity(%rip)
	jg	.LBB18_52
.LBB18_53:
	movq	%rbx, outputHandleJustInCase(%rip)
	movb	$1, deleteOutputOnInterrupt(%rip)
	movq	%r14, %rdi
	movq	%rbx, %rsi
	callq	compressStream
	movq	$0, outputHandleJustInCase(%rip)
	cmpl	$3, srcMode(%rip)
	jne	.LBB18_62
# %bb.54:
	callq	applySavedTimeInfoToOutputFile
	movb	$0, deleteOutputOnInterrupt(%rip)
	cmpb	$0, keepInputFiles(%rip)
	jne	.LBB18_62
# %bb.55:
	movl	$inName, %edi
	callq	remove
	testl	%eax, %eax
	jne	.LBB18_56
.LBB18_62:
	movb	$0, deleteOutputOnInterrupt(%rip)
	addq	$152, %rsp
	popq	%rbx
	popq	%r14
	popq	%r15
	popq	%rbp
	.cfi_def_cfa %rsp, 8
	retq
.LBB18_13:
	.cfi_def_cfa %rbp, 16
	movq	stderr(%rip), %r14
	movq	progName(%rip), %rbx
	callq	__errno_location
	movl	(%rax), %edi
	callq	strerror
	movl	$.L.str.57, %esi
	movl	$inName, %ecx
	movq	%r14, %rdi
	movq	%rbx, %rdx
	movq	%rax, %r8
.LBB18_17:
	xorl	%eax, %eax
	callq	fprintf
	jmp	.LBB18_18
.LBB18_52:
	movq	stderr(%rip), %rdi
	movl	$.L.str.70, %esi
	movl	$inName, %edx
	xorl	%eax, %eax
	callq	fprintf
	callq	pad
	movq	stderr(%rip), %rdi
	callq	fflush
	jmp	.LBB18_53
.LBB18_20:
	movq	stderr(%rip), %rdi
	movq	progName(%rip), %rdx
	movl	$.L.str.59, %esi
.LBB18_21:
	movl	$inName, %ecx
	jmp	.LBB18_22
.LBB18_58:
	movq	stderr(%rip), %r15
	movq	progName(%rip), %rbx
	callq	__errno_location
	movl	(%rax), %edi
	callq	strerror
	movl	$.L.str.68, %esi
	movl	$outName, %ecx
	movq	%r15, %rdi
	movq	%rbx, %rdx
	movq	%rax, %r8
	xorl	%eax, %eax
	callq	fprintf
	jmp	.LBB18_48
.LBB18_47:
	movq	stderr(%rip), %rdi
	movq	progName(%rip), %rdx
	movl	$.L.str.64, %esi
	xorl	%eax, %eax
	callq	fprintf
	movq	stderr(%rip), %rdi
	movq	progName(%rip), %rcx
	movl	$.L.str.65, %esi
	movq	%rcx, %rdx
	xorl	%eax, %eax
	callq	fprintf
.LBB18_48:
	testq	%r14, %r14
	je	.LBB18_18
# %bb.49:
	movq	%r14, %rdi
	callq	fclose
	jmp	.LBB18_18
.LBB18_31:
	movq	stderr(%rip), %rdi
	movq	progName(%rip), %rdx
	movl	$.L.str.61, %esi
	movl	$outName, %ecx
.LBB18_22:
	xorl	%eax, %eax
	callq	fprintf
	jmp	.LBB18_18
.LBB18_38:
	movq	stderr(%rip), %rdi
	movq	progName(%rip), %rdx
	cmpl	$1, %eax
	movl	$.L.str.4.13, %ecx
	movl	$.L.str.63, %r9d
	cmoveq	%rcx, %r9
	movl	$.L.str.62, %esi
	movl	$inName, %ecx
	movl	%eax, %r8d
	xorl	%eax, %eax
	callq	fprintf
	jmp	.LBB18_18
.LBB18_2:
	movl	$.L.str.53, %edi
	callq	panic
.LBB18_61:
	movl	$.L.str.69, %edi
	callq	panic
.LBB18_56:
	callq	ioError
.Lfunc_end18:
	.size	compress, .Lfunc_end18-compress
	.cfi_endproc
                                        # -- End function
	.p2align	4, 0x90                         # -- Begin function uncompress
	.type	uncompress,@function
uncompress:                             # @uncompress
	.cfi_startproc
# %bb.0:
	pushq	%rbp
	.cfi_def_cfa_offset 16
	.cfi_offset %rbp, -16
	movq	%rsp, %rbp
	.cfi_def_cfa_register %rbp
	pushq	%r15
	pushq	%r14
	pushq	%rbx
	subq	$152, %rsp
	.cfi_offset %rbx, -40
	.cfi_offset %r14, -32
	.cfi_offset %r15, -24
	movb	$0, deleteOutputOnInterrupt(%rip)
	testq	%rdi, %rdi
	je	.LBB19_1
# %bb.3:
	movq	%rdi, %rbx
	movl	srcMode(%rip), %eax
	cmpl	$3, %eax
	je	.LBB19_8
# %bb.4:
	cmpl	$2, %eax
	je	.LBB19_13
# %bb.5:
	cmpl	$1, %eax
	je	.LBB19_7
# %bb.6:
	xorl	%ebx, %ebx
	cmpl	$1, %eax
	jne	.LBB19_18
	jmp	.LBB19_32
.LBB19_1:
	cmpl	$1, srcMode(%rip)
	jne	.LBB19_2
.LBB19_7:                               # %.thread
	movl	$inName, %edi
	movl	$.L.str.54, %esi
	jmp	.LBB19_14
.LBB19_8:
	movl	$inName, %edi
	movq	%rbx, %rsi
	callq	copyFileName
	movl	$outName, %edi
	movq	%rbx, %rsi
	callq	copyFileName
	movq	zSuffix(%rip), %rdi
	movq	unzSuffix(%rip), %rsi
	callq	mapSuffix
	testb	%al, %al
	jne	.LBB19_15
# %bb.9:
	movq	zSuffix+8(%rip), %rdi
	movq	unzSuffix+8(%rip), %rsi
	callq	mapSuffix
	testb	%al, %al
	jne	.LBB19_15
# %bb.10:
	movq	zSuffix+16(%rip), %rdi
	movq	unzSuffix+16(%rip), %rsi
	callq	mapSuffix
	testb	%al, %al
	jne	.LBB19_15
# %bb.11:
	movq	zSuffix+24(%rip), %rdi
	movq	unzSuffix+24(%rip), %rsi
	callq	mapSuffix
	testb	%al, %al
	jne	.LBB19_15
# %bb.12:
	movl	$outName, %edi
	callq	strlen
	movl	$1953853230, outName(%rax)      # imm = 0x74756F2E
	movb	$0, outName+4(%rax)
	movb	$1, %bl
	jmp	.LBB19_16
.LBB19_13:
	movl	$inName, %edi
	movq	%rbx, %rsi
.LBB19_14:                              # %thread-pre-split29thread-pre-split
	callq	copyFileName
	movl	$outName, %edi
	movl	$.L.str.55, %esi
	callq	copyFileName
.LBB19_15:                              # %thread-pre-split29thread-pre-split
	xorl	%ebx, %ebx
.LBB19_16:                              # %thread-pre-split29thread-pre-split
	movl	srcMode(%rip), %eax
	cmpl	$1, %eax
	je	.LBB19_32
.LBB19_18:
	movl	$inName, %edi
	callq	fileExists
	testb	%al, %al
	je	.LBB19_19
# %bb.21:
	movl	srcMode(%rip), %eax
	andl	$-2, %eax
	cmpl	$2, %eax
	jne	.LBB19_32
# %bb.22:
	leaq	-168(%rbp), %rsi
	movl	$inName, %edi
	callq	stat
	movl	$61440, %eax                    # imm = 0xF000
	andl	-144(%rbp), %eax
	cmpl	$16384, %eax                    # imm = 0x4000
	je	.LBB19_23
# %bb.24:
	cmpl	$3, srcMode(%rip)
	jne	.LBB19_32
# %bb.25:
	cmpb	$0, forceOverwrite(%rip)
	jne	.LBB19_32
# %bb.26:
	callq	notAStandardFile
	testb	%al, %al
	je	.LBB19_32
# %bb.27:
	cmpb	$0, noisy(%rip)
	je	.LBB19_31
# %bb.28:
	movq	stderr(%rip), %rdi
	movq	progName(%rip), %rdx
	movl	$.L.str.60, %esi
	jmp	.LBB19_29
.LBB19_32:                              # %.thread37
	cmpb	$0, noisy(%rip)
	sete	%al
	xorb	$1, %bl
	orb	%al, %bl
	je	.LBB19_33
# %bb.34:
	movl	srcMode(%rip), %eax
	cmpl	$3, %eax
	jne	.LBB19_45
.LBB19_35:
	movl	$outName, %edi
	callq	fileExists
	testb	%al, %al
	je	.LBB19_39
# %bb.36:
	cmpb	$0, forceOverwrite(%rip)
	je	.LBB19_37
# %bb.38:
	movl	$outName, %edi
	callq	remove
.LBB19_39:
	movl	srcMode(%rip), %eax
	cmpl	$3, %eax
	jne	.LBB19_45
# %bb.40:
	cmpb	$0, forceOverwrite(%rip)
	jne	.LBB19_44
# %bb.41:
	callq	countHardLinks
	testl	%eax, %eax
	jg	.LBB19_42
# %bb.43:
	movl	srcMode(%rip), %eax
	cmpl	$3, %eax
	jne	.LBB19_45
.LBB19_44:                              # %.thread45
	callq	saveInputFileMetaInfo
	movl	srcMode(%rip), %eax
.LBB19_45:                              # %thread-pre-split46
	cmpl	$3, %eax
	je	.LBB19_60
# %bb.46:                               # %thread-pre-split46
	cmpl	$2, %eax
	je	.LBB19_50
# %bb.47:                               # %thread-pre-split46
	cmpl	$1, %eax
	jne	.LBB19_65
# %bb.48:
	movq	stdin(%rip), %r14
	movq	stdout(%rip), %rbx
	movq	%r14, %rdi
	callq	fileno
	movl	%eax, %edi
	callq	isatty
	testl	%eax, %eax
	je	.LBB19_52
# %bb.49:
	movq	stderr(%rip), %rdi
	movq	progName(%rip), %rdx
	movl	$.L.str.82, %esi
	xorl	%eax, %eax
	callq	fprintf
	movq	stderr(%rip), %rdi
	movq	progName(%rip), %rcx
	movl	$.L.str.65, %esi
	movq	%rcx, %rdx
	jmp	.LBB19_30
.LBB19_60:
	movl	$inName, %edi
	movl	$.L.str.66, %esi
	callq	fopen
	movq	%rax, %r14
	callq	fopen_output_safely
	testq	%rax, %rax
	je	.LBB19_61
# %bb.63:
	movq	%rax, %rbx
	testq	%r14, %r14
	jne	.LBB19_52
# %bb.64:
	movq	stderr(%rip), %r14
	movq	progName(%rip), %r15
	callq	__errno_location
	movl	(%rax), %edi
	callq	strerror
	movl	$.L.str.57, %esi
	movl	$inName, %ecx
	movq	%r14, %rdi
	movq	%r15, %rdx
	movq	%rax, %r8
	xorl	%eax, %eax
	callq	fprintf
	movq	%rbx, %rdi
	callq	fclose
	jmp	.LBB19_31
.LBB19_50:
	movl	$inName, %edi
	movl	$.L.str.66, %esi
	callq	fopen
	testq	%rax, %rax
	je	.LBB19_59
# %bb.51:
	movq	%rax, %r14
	movq	stdout(%rip), %rbx
.LBB19_52:
	cmpl	$0, verbosity(%rip)
	jg	.LBB19_53
.LBB19_54:
	movq	%rbx, outputHandleJustInCase(%rip)
	movb	$1, deleteOutputOnInterrupt(%rip)
	movq	%r14, %rdi
	movq	%rbx, %rsi
	callq	uncompressStream
	movq	$0, outputHandleJustInCase(%rip)
	testb	%al, %al
	je	.LBB19_66
# %bb.55:
	cmpl	$3, srcMode(%rip)
	jne	.LBB19_70
# %bb.56:
	callq	applySavedTimeInfoToOutputFile
	movb	$0, deleteOutputOnInterrupt(%rip)
	cmpb	$0, keepInputFiles(%rip)
	jne	.LBB19_70
# %bb.57:
	movl	$inName, %edi
	callq	remove
	testl	%eax, %eax
	jne	.LBB19_58
.LBB19_70:
	movb	$0, deleteOutputOnInterrupt(%rip)
	cmpl	$0, verbosity(%rip)
	jg	.LBB19_71
# %bb.74:
	addq	$152, %rsp
	popq	%rbx
	popq	%r14
	popq	%r15
	popq	%rbp
	.cfi_def_cfa %rsp, 8
	retq
.LBB19_33:
	.cfi_def_cfa %rbp, 16
	movq	stderr(%rip), %rdi
	movq	progName(%rip), %rdx
	movl	$.L.str.81, %esi
	movl	$inName, %ecx
	movl	$outName, %r8d
	xorl	%eax, %eax
	callq	fprintf
	movl	srcMode(%rip), %eax
	cmpl	$3, %eax
	je	.LBB19_35
	jmp	.LBB19_45
.LBB19_53:
	movq	stderr(%rip), %rdi
	movl	$.L.str.70, %esi
	movl	$inName, %edx
	xorl	%eax, %eax
	callq	fprintf
	callq	pad
	movq	stderr(%rip), %rdi
	callq	fflush
	jmp	.LBB19_54
.LBB19_66:
	movb	$1, unzFailsExist(%rip)
	movb	$0, deleteOutputOnInterrupt(%rip)
	cmpl	$3, srcMode(%rip)
	jne	.LBB19_68
# %bb.67:
	movl	$outName, %edi
	callq	remove
	testl	%eax, %eax
	jne	.LBB19_58
.LBB19_68:
	movb	$0, deleteOutputOnInterrupt(%rip)
	movl	$2, %edi
	callq	setExit
	cmpl	$0, verbosity(%rip)
	jle	.LBB19_73
# %bb.69:
	movq	stderr(%rip), %rcx
	movl	$.L.str.86, %edi
	movl	$18, %esi
	jmp	.LBB19_72
.LBB19_71:
	movq	stderr(%rip), %rcx
	movl	$.L.str.85, %edi
	movl	$5, %esi
.LBB19_72:
	movl	$1, %edx
	addq	$152, %rsp
	popq	%rbx
	popq	%r14
	popq	%r15
	popq	%rbp
	.cfi_def_cfa %rsp, 8
	jmp	fwrite                          # TAILCALL
.LBB19_19:
	.cfi_def_cfa %rbp, 16
	movq	stderr(%rip), %r14
	movq	progName(%rip), %rbx
	callq	__errno_location
	movl	(%rax), %edi
	callq	strerror
	movl	$.L.str.57, %esi
	jmp	.LBB19_20
.LBB19_73:
	movq	stderr(%rip), %rdi
	movq	progName(%rip), %rdx
	movl	$.L.str.87, %esi
	movl	$inName, %ecx
	xorl	%eax, %eax
	addq	$152, %rsp
	popq	%rbx
	popq	%r14
	popq	%r15
	popq	%rbp
	.cfi_def_cfa %rsp, 8
	jmp	fprintf                         # TAILCALL
.LBB19_61:
	.cfi_def_cfa %rbp, 16
	movq	stderr(%rip), %r15
	movq	progName(%rip), %rbx
	callq	__errno_location
	movl	(%rax), %edi
	callq	strerror
	movl	$.L.str.68, %esi
	movl	$outName, %ecx
	movq	%r15, %rdi
	movq	%rbx, %rdx
	movq	%rax, %r8
	xorl	%eax, %eax
	callq	fprintf
	testq	%r14, %r14
	je	.LBB19_31
# %bb.62:
	movq	%r14, %rdi
	callq	fclose
	jmp	.LBB19_31
.LBB19_59:
	movq	stderr(%rip), %r14
	movq	progName(%rip), %rbx
	callq	__errno_location
	movl	(%rax), %edi
	callq	strerror
	movl	$.L.str.83, %esi
.LBB19_20:
	movl	$inName, %ecx
	movq	%r14, %rdi
	movq	%rbx, %rdx
	movq	%rax, %r8
	xorl	%eax, %eax
	callq	fprintf
	jmp	.LBB19_31
.LBB19_37:
	movq	stderr(%rip), %rdi
	movq	progName(%rip), %rdx
	movl	$.L.str.61, %esi
	movl	$outName, %ecx
	jmp	.LBB19_30
.LBB19_23:
	movq	stderr(%rip), %rdi
	movq	progName(%rip), %rdx
	movl	$.L.str.59, %esi
.LBB19_29:
	movl	$inName, %ecx
.LBB19_30:
	xorl	%eax, %eax
	callq	fprintf
.LBB19_31:
	movl	$1, %edi
	addq	$152, %rsp
	popq	%rbx
	popq	%r14
	popq	%r15
	popq	%rbp
	.cfi_def_cfa %rsp, 8
	jmp	setExit                         # TAILCALL
.LBB19_42:
	.cfi_def_cfa %rbp, 16
	movq	stderr(%rip), %rdi
	movq	progName(%rip), %rdx
	cmpl	$1, %eax
	movl	$.L.str.4.13, %ecx
	movl	$.L.str.63, %r9d
	cmoveq	%rcx, %r9
	movl	$.L.str.62, %esi
	movl	$inName, %ecx
	movl	%eax, %r8d
	xorl	%eax, %eax
	callq	fprintf
	jmp	.LBB19_31
.LBB19_58:
	callq	ioError
.LBB19_2:
	movl	$.L.str.79, %edi
	callq	panic
.LBB19_65:
	movl	$.L.str.84, %edi
	callq	panic
.Lfunc_end19:
	.size	uncompress, .Lfunc_end19-uncompress
	.cfi_endproc
                                        # -- End function
	.p2align	4, 0x90                         # -- Begin function setExit
	.type	setExit,@function
setExit:                                # @setExit
	.cfi_startproc
# %bb.0:
	pushq	%rbp
	.cfi_def_cfa_offset 16
	.cfi_offset %rbp, -16
	movq	%rsp, %rbp
	.cfi_def_cfa_register %rbp
	cmpl	%edi, exitValue(%rip)
	jge	.LBB20_2
# %bb.1:
	movl	%edi, exitValue(%rip)
.LBB20_2:
	popq	%rbp
	.cfi_def_cfa %rsp, 8
	retq
.Lfunc_end20:
	.size	setExit, .Lfunc_end20-setExit
	.cfi_endproc
                                        # -- End function
	.p2align	4, 0x90                         # -- Begin function testf
	.type	testf,@function
testf:                                  # @testf
	.cfi_startproc
# %bb.0:
	pushq	%rbp
	.cfi_def_cfa_offset 16
	.cfi_offset %rbp, -16
	movq	%rsp, %rbp
	.cfi_def_cfa_register %rbp
	pushq	%r14
	pushq	%rbx
	subq	$144, %rsp
	.cfi_offset %rbx, -32
	.cfi_offset %r14, -24
	movq	%rdi, %rbx
	movb	$0, deleteOutputOnInterrupt(%rip)
	testq	%rdi, %rdi
	jne	.LBB21_2
# %bb.1:
	cmpl	$1, srcMode(%rip)
	jne	.LBB21_32
.LBB21_2:
	movl	$outName, %edi
	movl	$.L.str.6.15, %esi
	callq	copyFileName
	movl	srcMode(%rip), %eax
	cmpl	$3, %eax
	je	.LBB21_6
# %bb.3:
	cmpl	$2, %eax
	je	.LBB21_6
# %bb.4:
	cmpl	$1, %eax
	jne	.LBB21_8
# %bb.5:
	movl	$inName, %edi
	movl	$.L.str.54, %esi
	jmp	.LBB21_7
.LBB21_6:
	movl	$inName, %edi
	movq	%rbx, %rsi
.LBB21_7:                               # %thread-pre-splitthread-pre-split
	callq	copyFileName
	movl	srcMode(%rip), %eax
.LBB21_8:                               # %thread-pre-split
	cmpl	$1, %eax
	je	.LBB21_19
# %bb.9:
	movl	$inName, %edi
	callq	fileExists
	testb	%al, %al
	je	.LBB21_10
# %bb.12:
	cmpl	$1, srcMode(%rip)
	je	.LBB21_19
# %bb.13:
	leaq	-160(%rbp), %rsi
	movl	$inName, %edi
	callq	stat
	movl	$61440, %eax                    # imm = 0xF000
	andl	-136(%rbp), %eax
	cmpl	$16384, %eax                    # imm = 0x4000
	je	.LBB21_14
# %bb.17:
	movl	srcMode(%rip), %eax
	leal	-2(%rax), %ecx
	cmpl	$2, %ecx
	jae	.LBB21_18
# %bb.21:
	movl	$inName, %edi
	movl	$.L.str.66, %esi
	callq	fopen
	movq	%rax, %rbx
	testq	%rax, %rax
	jne	.LBB21_25
# %bb.22:
	movq	stderr(%rip), %r14
	movq	progName(%rip), %rbx
	callq	__errno_location
	movl	(%rax), %edi
	callq	strerror
	movl	$.L.str.83, %esi
	jmp	.LBB21_11
.LBB21_18:
	cmpl	$1, %eax
	jne	.LBB21_23
.LBB21_19:                              # %.thread10
	movq	stdin(%rip), %rdi
	callq	fileno
	movl	%eax, %edi
	callq	isatty
	testl	%eax, %eax
	jne	.LBB21_20
# %bb.24:
	movq	stdin(%rip), %rbx
.LBB21_25:
	cmpl	$0, verbosity(%rip)
	jg	.LBB21_26
.LBB21_27:
	movq	$0, outputHandleJustInCase(%rip)
	movq	%rbx, %rdi
	callq	testStream
	testb	%al, %al
	je	.LBB21_29
# %bb.28:
	cmpl	$0, verbosity(%rip)
	jg	.LBB21_33
.LBB21_29:
	testb	%al, %al
	jne	.LBB21_31
# %bb.30:
	movb	$1, testFailsExist(%rip)
.LBB21_31:
	addq	$144, %rsp
	popq	%rbx
	popq	%r14
	popq	%rbp
	.cfi_def_cfa %rsp, 8
	retq
.LBB21_26:
	.cfi_def_cfa %rbp, 16
	movq	stderr(%rip), %rdi
	movl	$.L.str.70, %esi
	movl	$inName, %edx
	xorl	%eax, %eax
	callq	fprintf
	callq	pad
	movq	stderr(%rip), %rdi
	callq	fflush
	jmp	.LBB21_27
.LBB21_33:                              # %.thread
	movq	stderr(%rip), %rcx
	movl	$.L.str.97, %edi
	movl	$3, %esi
	movl	$1, %edx
	addq	$144, %rsp
	popq	%rbx
	popq	%r14
	popq	%rbp
	.cfi_def_cfa %rsp, 8
	jmp	fwrite                          # TAILCALL
.LBB21_20:
	.cfi_def_cfa %rbp, 16
	movq	stderr(%rip), %rdi
	movq	progName(%rip), %rdx
	movl	$.L.str.82, %esi
	xorl	%eax, %eax
	callq	fprintf
	movq	stderr(%rip), %rdi
	movq	progName(%rip), %rcx
	movl	$.L.str.65, %esi
	movq	%rcx, %rdx
	jmp	.LBB21_15
.LBB21_10:
	movq	stderr(%rip), %r14
	movq	progName(%rip), %rbx
	callq	__errno_location
	movl	(%rax), %edi
	callq	strerror
	movl	$.L.str.95, %esi
.LBB21_11:
	movl	$inName, %ecx
	movq	%r14, %rdi
	movq	%rbx, %rdx
	movq	%rax, %r8
	xorl	%eax, %eax
	callq	fprintf
	jmp	.LBB21_16
.LBB21_14:
	movq	stderr(%rip), %rdi
	movq	progName(%rip), %rdx
	movl	$.L.str.59, %esi
	movl	$inName, %ecx
.LBB21_15:
	xorl	%eax, %eax
	callq	fprintf
.LBB21_16:
	movl	$1, %edi
	addq	$144, %rsp
	popq	%rbx
	popq	%r14
	popq	%rbp
	.cfi_def_cfa %rsp, 8
	jmp	setExit                         # TAILCALL
.LBB21_32:
	.cfi_def_cfa %rbp, 16
	movl	$.L.str.94, %edi
	callq	panic
.LBB21_23:
	movl	$.L.str.96, %edi
	callq	panic
.Lfunc_end21:
	.size	testf, .Lfunc_end21-testf
	.cfi_endproc
                                        # -- End function
	.p2align	4, 0x90                         # -- Begin function panic
	.type	panic,@function
panic:                                  # @panic
	.cfi_startproc
# %bb.0:
	pushq	%rbp
	.cfi_def_cfa_offset 16
	.cfi_offset %rbp, -16
	movq	%rsp, %rbp
	.cfi_def_cfa_register %rbp
	movq	%rdi, %rcx
	movq	stderr(%rip), %rdi
	movq	progName(%rip), %rdx
	movl	$.L.str.71, %esi
	xorl	%eax, %eax
	callq	fprintf
	callq	showFileNames
	movl	$3, %edi
	callq	cleanUpAndFail
.Lfunc_end22:
	.size	panic, .Lfunc_end22-panic
	.cfi_endproc
                                        # -- End function
	.p2align	4, 0x90                         # -- Begin function fileExists
	.type	fileExists,@function
fileExists:                             # @fileExists
	.cfi_startproc
# %bb.0:
	pushq	%rbp
	.cfi_def_cfa_offset 16
	.cfi_offset %rbp, -16
	movq	%rsp, %rbp
	.cfi_def_cfa_register %rbp
	pushq	%rbx
	pushq	%rax
	.cfi_offset %rbx, -24
	movl	$.L.str.66, %esi
	callq	fopen
	movq	%rax, %rbx
	testq	%rax, %rax
	je	.LBB23_2
# %bb.1:
	movq	%rbx, %rdi
	callq	fclose
.LBB23_2:
	testq	%rbx, %rbx
	setne	%al
	addq	$8, %rsp
	popq	%rbx
	popq	%rbp
	.cfi_def_cfa %rsp, 8
	retq
.Lfunc_end23:
	.size	fileExists, .Lfunc_end23-fileExists
	.cfi_endproc
                                        # -- End function
	.p2align	4, 0x90                         # -- Begin function pad
	.type	pad,@function
pad:                                    # @pad
	.cfi_startproc
# %bb.0:
	pushq	%rbp
	.cfi_def_cfa_offset 16
	.cfi_offset %rbp, -16
	movq	%rsp, %rbp
	.cfi_def_cfa_register %rbp
	pushq	%r14
	pushq	%rbx
	.cfi_offset %rbx, -32
	.cfi_offset %r14, -24
	movl	$inName, %edi
	callq	strlen
	cmpl	%eax, longestFileName(%rip)
	jle	.LBB24_3
# %bb.1:                                # %.lr.ph.preheader
	xorl	%ebx, %ebx
	.p2align	4, 0x90
.LBB24_2:                               # %.lr.ph
                                        # =>This Inner Loop Header: Depth=1
	movq	stderr(%rip), %rsi
	movl	$32, %edi
	callq	fputc@PLT
	movl	longestFileName(%rip), %r14d
	movl	$inName, %edi
	callq	strlen
	subl	%eax, %r14d
	addl	$1, %ebx
	cmpl	%r14d, %ebx
	jl	.LBB24_2
.LBB24_3:                               # %.loopexit
	popq	%rbx
	popq	%r14
	popq	%rbp
	.cfi_def_cfa %rsp, 8
	retq
.Lfunc_end24:
	.size	pad, .Lfunc_end24-pad
	.cfi_endproc
                                        # -- End function
	.p2align	4, 0x90                         # -- Begin function testStream
	.type	testStream,@function
testStream:                             # @testStream
	.cfi_startproc
# %bb.0:
	pushq	%rbp
	.cfi_def_cfa_offset 16
	.cfi_offset %rbp, -16
	movq	%rsp, %rbp
	.cfi_def_cfa_register %rbp
	pushq	%r15
	pushq	%r14
	pushq	%r13
	pushq	%r12
	pushq	%rbx
	subq	$10040, %rsp                    # imm = 0x2738
	.cfi_offset %rbx, -56
	.cfi_offset %r12, -48
	.cfi_offset %r13, -40
	.cfi_offset %r14, -32
	.cfi_offset %r15, -24
	movq	%rdi, %r14
	movl	$0, -48(%rbp)
	callq	ferror
	testl	%eax, %eax
	jne	.LBB25_36
# %bb.1:                                # %.preheader
	movl	verbosity(%rip), %edx
	movzbl	smallMode(%rip), %ecx
	leaq	-44(%rbp), %rdi
	leaq	-5072(%rbp), %r8
	xorl	%r13d, %r13d
	movq	%r14, %rsi
	xorl	%r9d, %r9d
	callq	BZ2_bzReadOpen
	movq	%rax, %rbx
	testq	%rax, %rax
	je	.LBB25_24
# %bb.2:                                # %.preheader
	cmpl	$0, -44(%rbp)
	jne	.LBB25_24
# %bb.3:                                # %.lr.ph55
	xorl	%r13d, %r13d
	leaq	-44(%rbp), %r12
	leaq	-10080(%rbp), %r15
.LBB25_4:                               # =>This Loop Header: Depth=1
                                        #     Child Loop BB25_5 Depth 2
                                        #     Child Loop BB25_14 Depth 2
                                        #     Child Loop BB25_17 Depth 2
	addl	$1, %r13d
	xorl	%eax, %eax
	.p2align	4, 0x90
.LBB25_5:                               #   Parent Loop BB25_4 Depth=1
                                        # =>  This Inner Loop Header: Depth=2
	testl	%eax, %eax
	jne	.LBB25_6
# %bb.9:                                #   in Loop: Header=BB25_5 Depth=2
	movq	%r12, %rdi
	movq	%rbx, %rsi
	movq	%r15, %rdx
	movl	$5000, %ecx                     # imm = 0x1388
	callq	BZ2_bzRead
	movl	-44(%rbp), %eax
	cmpl	$-5, %eax
	jne	.LBB25_5
	jmp	.LBB25_24
	.p2align	4, 0x90
.LBB25_6:                               #   in Loop: Header=BB25_4 Depth=1
	cmpl	$4, %eax
	jne	.LBB25_24
# %bb.7:                                #   in Loop: Header=BB25_4 Depth=1
	movq	%r12, %rdi
	movq	%rbx, %rsi
	leaq	-56(%rbp), %rdx
	leaq	-48(%rbp), %rcx
	callq	BZ2_bzReadGetUnused
	cmpl	$0, -44(%rbp)
	jne	.LBB25_8
# %bb.10:                               #   in Loop: Header=BB25_4 Depth=1
	movl	-48(%rbp), %edx
	testl	%edx, %edx
	jle	.LBB25_18
# %bb.11:                               # %.lr.ph
                                        #   in Loop: Header=BB25_4 Depth=1
	testq	%rdx, %rdx
	movl	$1, %eax
	cmoveq	%rax, %rdx
	movq	-56(%rbp), %rax
	leaq	-1(%rdx), %rsi
	movl	%edx, %edi
	andl	$3, %edi
	cmpq	$3, %rsi
	jae	.LBB25_13
# %bb.12:                               #   in Loop: Header=BB25_4 Depth=1
	xorl	%esi, %esi
	jmp	.LBB25_15
.LBB25_13:                              # %.lr.ph.new
                                        #   in Loop: Header=BB25_4 Depth=1
	andl	$-4, %edx
	xorl	%esi, %esi
	.p2align	4, 0x90
.LBB25_14:                              #   Parent Loop BB25_4 Depth=1
                                        # =>  This Inner Loop Header: Depth=2
	movzbl	(%rax,%rsi), %ecx
	movb	%cl, -5072(%rbp,%rsi)
	movzbl	1(%rax,%rsi), %ecx
	movb	%cl, -5071(%rbp,%rsi)
	movzbl	2(%rax,%rsi), %ecx
	movb	%cl, -5070(%rbp,%rsi)
	movzbl	3(%rax,%rsi), %ecx
	movb	%cl, -5069(%rbp,%rsi)
	addq	$4, %rsi
	cmpq	%rsi, %rdx
	jne	.LBB25_14
.LBB25_15:                              # %._crit_edge.loopexit.unr-lcssa
                                        #   in Loop: Header=BB25_4 Depth=1
	testq	%rdi, %rdi
	je	.LBB25_18
# %bb.16:                               # %.epil.preheader.preheader
                                        #   in Loop: Header=BB25_4 Depth=1
	leaq	(%rsi,%rbp), %rdx
	addq	$-5072, %rdx                    # imm = 0xEC30
	addq	%rsi, %rax
	xorl	%esi, %esi
	.p2align	4, 0x90
.LBB25_17:                              # %.epil.preheader
                                        #   Parent Loop BB25_4 Depth=1
                                        # =>  This Inner Loop Header: Depth=2
	movzbl	(%rax,%rsi), %ecx
	movb	%cl, (%rdx,%rsi)
	addq	$1, %rsi
	cmpq	%rsi, %rdi
	jne	.LBB25_17
.LBB25_18:                              # %._crit_edge
                                        #   in Loop: Header=BB25_4 Depth=1
	movq	%r12, %rdi
	movq	%rbx, %rsi
	callq	BZ2_bzReadClose
	cmpl	$0, -44(%rbp)
	jne	.LBB25_8
# %bb.19:                               #   in Loop: Header=BB25_4 Depth=1
	movl	-48(%rbp), %r9d
	testl	%r9d, %r9d
	jne	.LBB25_22
# %bb.20:                               #   in Loop: Header=BB25_4 Depth=1
	movq	%r14, %rdi
	callq	myfeof
	testb	%al, %al
	jne	.LBB25_29
# %bb.21:                               # %._crit_edge70
                                        #   in Loop: Header=BB25_4 Depth=1
	movl	-48(%rbp), %r9d
.LBB25_22:                              #   in Loop: Header=BB25_4 Depth=1
	movl	verbosity(%rip), %edx
	movzbl	smallMode(%rip), %ecx
	movq	%r12, %rdi
	movq	%r14, %rsi
	leaq	-5072(%rbp), %r8
	callq	BZ2_bzReadOpen
	movq	%rax, %rbx
	testq	%rax, %rax
	je	.LBB25_24
# %bb.23:                               #   in Loop: Header=BB25_4 Depth=1
	cmpl	$0, -44(%rbp)
	je	.LBB25_4
.LBB25_24:                              # %.loopexit
	leaq	-60(%rbp), %rdi
	movq	%rbx, %rsi
	callq	BZ2_bzReadClose
	cmpl	$0, verbosity(%rip)
	je	.LBB25_25
# %bb.26:
	movl	-44(%rbp), %eax
	cmpl	$-5, %eax
	jne	.LBB25_27
.LBB25_41:
	cmpq	%r14, stdin(%rip)
	je	.LBB25_43
# %bb.42:
	movq	%r14, %rdi
	callq	fclose
.LBB25_43:
	cmpl	$1, %r13d
	je	.LBB25_44
# %bb.45:
	movb	$1, %bl
	cmpb	$0, noisy(%rip)
	jne	.LBB25_46
.LBB25_34:
	movl	%ebx, %eax
	addq	$10040, %rsp                    # imm = 0x2738
	popq	%rbx
	popq	%r12
	popq	%r13
	popq	%r14
	popq	%r15
	popq	%rbp
	.cfi_def_cfa %rsp, 8
	retq
.LBB25_25:
	.cfi_def_cfa %rbp, 16
	movq	stderr(%rip), %rdi
	movq	progName(%rip), %rdx
	movl	$.L.str.99, %esi
	movl	$inName, %ecx
	xorl	%eax, %eax
	callq	fprintf
	movl	-44(%rbp), %eax
	cmpl	$-5, %eax
	je	.LBB25_41
.LBB25_27:
	addl	$9, %eax
	cmpl	$6, %eax
	ja	.LBB25_47
# %bb.28:
	jmpq	*.LJTI25_0(,%rax,8)
.LBB25_40:
	movq	stderr(%rip), %rcx
	movl	$.L.str.101, %edi
	movl	$23, %esi
	jmp	.LBB25_38
.LBB25_37:
	movq	stderr(%rip), %rcx
	movl	$.L.str.100, %edi
	movl	$35, %esi
	jmp	.LBB25_38
.LBB25_44:
	movq	stderr(%rip), %rcx
	movl	$.L.str.102, %edi
	movl	$45, %esi
.LBB25_38:
	movl	$1, %edx
	callq	fwrite
	xorl	%ebx, %ebx
	jmp	.LBB25_34
.LBB25_46:
	movq	stderr(%rip), %rcx
	movl	$.L.str.103, %edi
	movl	$35, %esi
.LBB25_33:
	movl	$1, %edx
	callq	fwrite
	jmp	.LBB25_34
.LBB25_29:
	movq	%r14, %rdi
	callq	ferror
	testl	%eax, %eax
	jne	.LBB25_36
# %bb.30:
	movq	%r14, %rdi
	callq	fclose
	cmpl	$-1, %eax
	je	.LBB25_36
# %bb.31:
	movb	$1, %bl
	cmpl	$2, verbosity(%rip)
	jl	.LBB25_34
# %bb.32:
	movq	stderr(%rip), %rcx
	movl	$.L.str.89, %edi
	movl	$5, %esi
	jmp	.LBB25_33
.LBB25_36:
	callq	ioError
.LBB25_35:
	callq	configError
.LBB25_47:
	movl	$.L.str.104, %edi
	callq	panic
.LBB25_39:
	callq	outOfMemory
.LBB25_8:
	movl	$.L.str.98, %edi
	callq	panic
.Lfunc_end25:
	.size	testStream, .Lfunc_end25-testStream
	.cfi_endproc
	.section	.rodata,"a",@progbits
	.p2align	3
.LJTI25_0:
	.quad	.LBB25_35
	.quad	.LBB25_47
	.quad	.LBB25_40
	.quad	.LBB25_36
	.quad	.LBB25_47
	.quad	.LBB25_37
	.quad	.LBB25_39
                                        # -- End function
	.text
	.p2align	4, 0x90                         # -- Begin function myfeof
	.type	myfeof,@function
myfeof:                                 # @myfeof
	.cfi_startproc
# %bb.0:
	pushq	%rbp
	.cfi_def_cfa_offset 16
	.cfi_offset %rbp, -16
	movq	%rsp, %rbp
	.cfi_def_cfa_register %rbp
	pushq	%rbx
	pushq	%rax
	.cfi_offset %rbx, -24
	movq	%rdi, %rbx
	callq	fgetc
	cmpl	$-1, %eax
	je	.LBB26_1
# %bb.2:
	movl	%eax, %edi
	movq	%rbx, %rsi
	callq	ungetc
	xorl	%eax, %eax
                                        # kill: def $al killed $al killed $eax
	addq	$8, %rsp
	popq	%rbx
	popq	%rbp
	.cfi_def_cfa %rsp, 8
	retq
.LBB26_1:
	.cfi_def_cfa %rbp, 16
	movb	$1, %al
                                        # kill: def $al killed $al killed $eax
	addq	$8, %rsp
	popq	%rbx
	popq	%rbp
	.cfi_def_cfa %rsp, 8
	retq
.Lfunc_end26:
	.size	myfeof, .Lfunc_end26-myfeof
	.cfi_endproc
                                        # -- End function
	.p2align	4, 0x90                         # -- Begin function configError
	.type	configError,@function
configError:                            # @configError
	.cfi_startproc
# %bb.0:
	pushq	%rbp
	.cfi_def_cfa_offset 16
	.cfi_offset %rbp, -16
	movq	%rsp, %rbp
	.cfi_def_cfa_register %rbp
	movq	stderr(%rip), %rcx
	movl	$.L.str.77, %edi
	movl	$235, %esi
	movl	$1, %edx
	callq	fwrite
	movl	$3, %edi
	callq	setExit
	movl	exitValue(%rip), %edi
	callq	exit
.Lfunc_end27:
	.size	configError, .Lfunc_end27-configError
	.cfi_endproc
                                        # -- End function
	.p2align	4, 0x90                         # -- Begin function ioError
	.type	ioError,@function
ioError:                                # @ioError
	.cfi_startproc
# %bb.0:
	pushq	%rbp
	.cfi_def_cfa_offset 16
	.cfi_offset %rbp, -16
	movq	%rsp, %rbp
	.cfi_def_cfa_register %rbp
	movq	stderr(%rip), %rdi
	movq	progName(%rip), %rdx
	movl	$.L.str.78, %esi
	xorl	%eax, %eax
	callq	fprintf
	movq	progName(%rip), %rdi
	callq	perror
	callq	showFileNames
	movl	$1, %edi
	callq	cleanUpAndFail
.Lfunc_end28:
	.size	ioError, .Lfunc_end28-ioError
	.cfi_endproc
                                        # -- End function
	.p2align	4, 0x90                         # -- Begin function outOfMemory
	.type	outOfMemory,@function
outOfMemory:                            # @outOfMemory
	.cfi_startproc
# %bb.0:
	pushq	%rbp
	.cfi_def_cfa_offset 16
	.cfi_offset %rbp, -16
	movq	%rsp, %rbp
	.cfi_def_cfa_register %rbp
	movq	stderr(%rip), %rdi
	movq	progName(%rip), %rdx
	movl	$.L.str.48, %esi
	xorl	%eax, %eax
	callq	fprintf
	callq	showFileNames
	movl	$1, %edi
	callq	cleanUpAndFail
.Lfunc_end29:
	.size	outOfMemory, .Lfunc_end29-outOfMemory
	.cfi_endproc
                                        # -- End function
	.p2align	4, 0x90                         # -- Begin function showFileNames
	.type	showFileNames,@function
showFileNames:                          # @showFileNames
	.cfi_startproc
# %bb.0:
	pushq	%rbp
	.cfi_def_cfa_offset 16
	.cfi_offset %rbp, -16
	movq	%rsp, %rbp
	.cfi_def_cfa_register %rbp
	cmpb	$0, noisy(%rip)
	jne	.LBB30_2
# %bb.1:
	popq	%rbp
	.cfi_def_cfa %rsp, 8
	retq
.LBB30_2:
	.cfi_def_cfa %rbp, 16
	movq	stderr(%rip), %rdi
	movl	$.L.str.38, %esi
	movl	$inName, %edx
	movl	$outName, %ecx
	xorl	%eax, %eax
	popq	%rbp
	.cfi_def_cfa %rsp, 8
	jmp	fprintf                         # TAILCALL
.Lfunc_end30:
	.size	showFileNames, .Lfunc_end30-showFileNames
	.cfi_endproc
                                        # -- End function
	.p2align	4, 0x90                         # -- Begin function cleanUpAndFail
	.type	cleanUpAndFail,@function
cleanUpAndFail:                         # @cleanUpAndFail
	.cfi_startproc
# %bb.0:
	pushq	%rbp
	.cfi_def_cfa_offset 16
	.cfi_offset %rbp, -16
	movq	%rsp, %rbp
	.cfi_def_cfa_register %rbp
	pushq	%rbx
	subq	$152, %rsp
	.cfi_offset %rbx, -24
	movl	%edi, %ebx
	cmpl	$3, srcMode(%rip)
	jne	.LBB31_12
# %bb.1:
	cmpl	$3, opMode(%rip)
	je	.LBB31_12
# %bb.2:
	cmpb	$0, deleteOutputOnInterrupt(%rip)
	je	.LBB31_12
# %bb.3:
	leaq	-152(%rbp), %rsi
	movl	$inName, %edi
	callq	stat
	testl	%eax, %eax
	jne	.LBB31_10
# %bb.4:
	cmpb	$0, noisy(%rip)
	jne	.LBB31_5
# %bb.6:
	movq	outputHandleJustInCase(%rip), %rdi
	testq	%rdi, %rdi
	jne	.LBB31_7
.LBB31_8:
	movl	$outName, %edi
	callq	remove
	testl	%eax, %eax
	jne	.LBB31_9
	jmp	.LBB31_12
.LBB31_10:
	movq	stderr(%rip), %rdi
	movq	progName(%rip), %rdx
	movl	$.L.str.41, %esi
	xorl	%eax, %eax
	callq	fprintf
	movq	stderr(%rip), %rdi
	movq	progName(%rip), %rdx
	movl	$.L.str.42, %esi
	xorl	%eax, %eax
	callq	fprintf
	movq	stderr(%rip), %rdi
	movq	progName(%rip), %rdx
	movl	$.L.str.43, %esi
	movl	$outName, %ecx
	xorl	%eax, %eax
	callq	fprintf
	movq	stderr(%rip), %rdi
	movq	progName(%rip), %rdx
	movl	$.L.str.44, %esi
	jmp	.LBB31_11
.LBB31_5:
	movq	stderr(%rip), %rdi
	movq	progName(%rip), %rdx
	movl	$.L.str.39, %esi
	movl	$outName, %ecx
	xorl	%eax, %eax
	callq	fprintf
	movq	outputHandleJustInCase(%rip), %rdi
	testq	%rdi, %rdi
	je	.LBB31_8
.LBB31_7:
	callq	fclose
	movl	$outName, %edi
	callq	remove
	testl	%eax, %eax
	je	.LBB31_12
.LBB31_9:
	movq	stderr(%rip), %rdi
	movq	progName(%rip), %rdx
	movl	$.L.str.40, %esi
.LBB31_11:
	xorl	%eax, %eax
	callq	fprintf
.LBB31_12:
	cmpb	$0, noisy(%rip)
	je	.LBB31_16
# %bb.13:
	movl	numFileNames(%rip), %r8d
	testl	%r8d, %r8d
	jle	.LBB31_16
# %bb.14:
	movl	%r8d, %r9d
	subl	numFilesProcessed(%rip), %r9d
	jle	.LBB31_16
# %bb.15:
	movq	stderr(%rip), %rdi
	movq	progName(%rip), %rcx
	movl	$.L.str.45, %esi
	movq	%rcx, %rdx
	xorl	%eax, %eax
	callq	fprintf
.LBB31_16:
	movl	%ebx, %edi
	callq	setExit
	movl	exitValue(%rip), %edi
	callq	exit
.Lfunc_end31:
	.size	cleanUpAndFail, .Lfunc_end31-cleanUpAndFail
	.cfi_endproc
                                        # -- End function
	.p2align	4, 0x90                         # -- Begin function mapSuffix
	.type	mapSuffix,@function
mapSuffix:                              # @mapSuffix
	.cfi_startproc
# %bb.0:
	pushq	%rbp
	.cfi_def_cfa_offset 16
	.cfi_offset %rbp, -16
	movq	%rsp, %rbp
	.cfi_def_cfa_register %rbp
	pushq	%r15
	pushq	%r14
	pushq	%rbx
	pushq	%rax
	.cfi_offset %rbx, -40
	.cfi_offset %r14, -32
	.cfi_offset %r15, -24
	movq	%rsi, %r14
	movq	%rdi, %r15
	movl	$outName, %edi
	movq	%r15, %rsi
	callq	hasSuffix
	testb	%al, %al
	je	.LBB32_1
# %bb.2:
	movl	$outName, %edi
	callq	strlen
	movq	%rax, %rbx
	movq	%r15, %rdi
	callq	strlen
	subq	%rax, %rbx
	movb	$0, outName(%rbx)
	movl	$outName, %edi
	movq	%r14, %rsi
	callq	strcat
	movb	$1, %al
	jmp	.LBB32_3
.LBB32_1:
	xorl	%eax, %eax
.LBB32_3:
                                        # kill: def $al killed $al killed $eax
	addq	$8, %rsp
	popq	%rbx
	popq	%r14
	popq	%r15
	popq	%rbp
	.cfi_def_cfa %rsp, 8
	retq
.Lfunc_end32:
	.size	mapSuffix, .Lfunc_end32-mapSuffix
	.cfi_endproc
                                        # -- End function
	.p2align	4, 0x90                         # -- Begin function notAStandardFile
	.type	notAStandardFile,@function
notAStandardFile:                       # @notAStandardFile
	.cfi_startproc
# %bb.0:
	pushq	%rbp
	.cfi_def_cfa_offset 16
	.cfi_offset %rbp, -16
	movq	%rsp, %rbp
	.cfi_def_cfa_register %rbp
	subq	$144, %rsp
	leaq	-144(%rbp), %rsi
	movl	$inName, %edi
	callq	lstat
	testl	%eax, %eax
	je	.LBB33_1
# %bb.2:
	movb	$1, %al
	addq	$144, %rsp
	popq	%rbp
	.cfi_def_cfa %rsp, 8
	retq
.LBB33_1:
	.cfi_def_cfa %rbp, 16
	movl	$61440, %eax                    # imm = 0xF000
	andl	-120(%rbp), %eax
	cmpl	$32768, %eax                    # imm = 0x8000
	setne	%al
	addq	$144, %rsp
	popq	%rbp
	.cfi_def_cfa %rsp, 8
	retq
.Lfunc_end33:
	.size	notAStandardFile, .Lfunc_end33-notAStandardFile
	.cfi_endproc
                                        # -- End function
	.p2align	4, 0x90                         # -- Begin function countHardLinks
	.type	countHardLinks,@function
countHardLinks:                         # @countHardLinks
	.cfi_startproc
# %bb.0:
	pushq	%rbp
	.cfi_def_cfa_offset 16
	.cfi_offset %rbp, -16
	movq	%rsp, %rbp
	.cfi_def_cfa_register %rbp
	subq	$144, %rsp
	leaq	-144(%rbp), %rsi
	movl	$inName, %edi
	callq	lstat
	movl	-128(%rbp), %edx
	addl	$-1, %edx
	xorl	%ecx, %ecx
	testl	%eax, %eax
	cmovel	%edx, %ecx
	movl	%ecx, %eax
	addq	$144, %rsp
	popq	%rbp
	.cfi_def_cfa %rsp, 8
	retq
.Lfunc_end34:
	.size	countHardLinks, .Lfunc_end34-countHardLinks
	.cfi_endproc
                                        # -- End function
	.p2align	4, 0x90                         # -- Begin function saveInputFileMetaInfo
	.type	saveInputFileMetaInfo,@function
saveInputFileMetaInfo:                  # @saveInputFileMetaInfo
	.cfi_startproc
# %bb.0:
	pushq	%rbp
	.cfi_def_cfa_offset 16
	.cfi_offset %rbp, -16
	movq	%rsp, %rbp
	.cfi_def_cfa_register %rbp
	movl	$inName, %edi
	movl	$fileMetaInfo, %esi
	callq	stat
	testl	%eax, %eax
	jne	.LBB35_2
# %bb.1:
	popq	%rbp
	.cfi_def_cfa %rsp, 8
	retq
.LBB35_2:
	.cfi_def_cfa %rbp, 16
	callq	ioError
.Lfunc_end35:
	.size	saveInputFileMetaInfo, .Lfunc_end35-saveInputFileMetaInfo
	.cfi_endproc
                                        # -- End function
	.p2align	4, 0x90                         # -- Begin function fopen_output_safely
	.type	fopen_output_safely,@function
fopen_output_safely:                    # @fopen_output_safely
	.cfi_startproc
# %bb.0:
	pushq	%rbp
	.cfi_def_cfa_offset 16
	.cfi_offset %rbp, -16
	movq	%rsp, %rbp
	.cfi_def_cfa_register %rbp
	pushq	%r14
	pushq	%rbx
	.cfi_offset %rbx, -32
	.cfi_offset %r14, -24
	xorl	%ebx, %ebx
	movl	$outName, %edi
	movl	$193, %esi
	movl	$384, %edx                      # imm = 0x180
	xorl	%eax, %eax
	callq	open
	cmpl	$-1, %eax
	je	.LBB36_3
# %bb.1:
	movl	%eax, %r14d
	movl	$.L.str.67, %esi
	movl	%eax, %edi
	callq	fdopen
	movq	%rax, %rbx
	testq	%rax, %rax
	jne	.LBB36_3
# %bb.2:
	movl	%r14d, %edi
	callq	close
	xorl	%ebx, %ebx
.LBB36_3:
	movq	%rbx, %rax
	popq	%rbx
	popq	%r14
	popq	%rbp
	.cfi_def_cfa %rsp, 8
	retq
.Lfunc_end36:
	.size	fopen_output_safely, .Lfunc_end36-fopen_output_safely
	.cfi_endproc
                                        # -- End function
	.p2align	4, 0x90                         # -- Begin function uncompressStream
	.type	uncompressStream,@function
uncompressStream:                       # @uncompressStream
	.cfi_startproc
# %bb.0:
	pushq	%rbp
	.cfi_def_cfa_offset 16
	.cfi_offset %rbp, -16
	movq	%rsp, %rbp
	.cfi_def_cfa_register %rbp
	pushq	%r15
	pushq	%r14
	pushq	%r13
	pushq	%r12
	pushq	%rbx
	subq	$10040, %rsp                    # imm = 0x2738
	.cfi_offset %rbx, -56
	.cfi_offset %r12, -48
	.cfi_offset %r13, -40
	.cfi_offset %r14, -32
	.cfi_offset %r15, -24
	movq	%rsi, %r12
	movq	%rdi, %r14
	movl	$0, -48(%rbp)
	movq	%rsi, %rdi
	callq	ferror
	testl	%eax, %eax
	jne	.LBB37_50
# %bb.1:
	movq	%r14, %rdi
	callq	ferror
	testl	%eax, %eax
	jne	.LBB37_50
# %bb.2:                                # %.preheader
	movl	verbosity(%rip), %edx
	movzbl	smallMode(%rip), %ecx
	leaq	-44(%rbp), %rdi
	leaq	-5072(%rbp), %r8
	movq	%r14, %rsi
	xorl	%r9d, %r9d
	callq	BZ2_bzReadOpen
	movq	%rax, %rbx
	testq	%rax, %rax
	je	.LBB37_3
# %bb.4:                                # %.preheader
	cmpl	$0, -44(%rbp)
	jne	.LBB37_3
# %bb.5:                                # %.lr.ph109
	xorl	%eax, %eax
	movq	%rax, -56(%rbp)                 # 8-byte Spill
	leaq	-44(%rbp), %r15
	leaq	-10080(%rbp), %r13
.LBB37_6:                               # =>This Loop Header: Depth=1
                                        #     Child Loop BB37_7 Depth 2
                                        #     Child Loop BB37_19 Depth 2
                                        #     Child Loop BB37_22 Depth 2
	movq	-56(%rbp), %rax                 # 8-byte Reload
	addl	$1, %eax
	movq	%rax, -56(%rbp)                 # 8-byte Spill
	.p2align	4, 0x90
.LBB37_7:                               #   Parent Loop BB37_6 Depth=1
                                        # =>  This Inner Loop Header: Depth=2
	movq	%r15, %rdi
	movq	%rbx, %rsi
	movq	%r13, %rdx
	movl	$5000, %ecx                     # imm = 0x1388
	callq	BZ2_bzRead
	movl	-44(%rbp), %ecx
	cmpl	$-5, %ecx
	je	.LBB37_43
# %bb.8:                                #   in Loop: Header=BB37_7 Depth=2
	testl	%eax, %eax
	jle	.LBB37_11
# %bb.9:                                #   in Loop: Header=BB37_7 Depth=2
	andl	$-5, %ecx
	jne	.LBB37_11
# %bb.10:                               #   in Loop: Header=BB37_7 Depth=2
	movl	%eax, %edx
	movl	$1, %esi
	movq	%r13, %rdi
	movq	%r12, %rcx
	callq	fwrite
.LBB37_11:                              #   in Loop: Header=BB37_7 Depth=2
	movq	%r12, %rdi
	callq	ferror
	testl	%eax, %eax
	jne	.LBB37_50
# %bb.12:                               #   in Loop: Header=BB37_7 Depth=2
	movl	-44(%rbp), %eax
	testl	%eax, %eax
	je	.LBB37_7
# %bb.13:                               #   in Loop: Header=BB37_6 Depth=1
	cmpl	$4, %eax
	jne	.LBB37_29
# %bb.14:                               #   in Loop: Header=BB37_6 Depth=1
	movq	%r15, %rdi
	movq	%rbx, %rsi
	leaq	-64(%rbp), %rdx
	leaq	-48(%rbp), %rcx
	callq	BZ2_bzReadGetUnused
	cmpl	$0, -44(%rbp)
	jne	.LBB37_63
# %bb.15:                               #   in Loop: Header=BB37_6 Depth=1
	movl	-48(%rbp), %edx
	testl	%edx, %edx
	jle	.LBB37_23
# %bb.16:                               # %.lr.ph
                                        #   in Loop: Header=BB37_6 Depth=1
	testq	%rdx, %rdx
	movl	$1, %eax
	cmoveq	%rax, %rdx
	movq	-64(%rbp), %rax
	leaq	-1(%rdx), %rsi
	movl	%edx, %edi
	andl	$3, %edi
	cmpq	$3, %rsi
	jae	.LBB37_18
# %bb.17:                               #   in Loop: Header=BB37_6 Depth=1
	xorl	%esi, %esi
	jmp	.LBB37_20
.LBB37_18:                              # %.lr.ph.new
                                        #   in Loop: Header=BB37_6 Depth=1
	andl	$-4, %edx
	xorl	%esi, %esi
	.p2align	4, 0x90
.LBB37_19:                              #   Parent Loop BB37_6 Depth=1
                                        # =>  This Inner Loop Header: Depth=2
	movzbl	(%rax,%rsi), %ecx
	movb	%cl, -5072(%rbp,%rsi)
	movzbl	1(%rax,%rsi), %ecx
	movb	%cl, -5071(%rbp,%rsi)
	movzbl	2(%rax,%rsi), %ecx
	movb	%cl, -5070(%rbp,%rsi)
	movzbl	3(%rax,%rsi), %ecx
	movb	%cl, -5069(%rbp,%rsi)
	addq	$4, %rsi
	cmpq	%rsi, %rdx
	jne	.LBB37_19
.LBB37_20:                              # %._crit_edge.loopexit.unr-lcssa
                                        #   in Loop: Header=BB37_6 Depth=1
	testq	%rdi, %rdi
	je	.LBB37_23
# %bb.21:                               # %.epil.preheader.preheader
                                        #   in Loop: Header=BB37_6 Depth=1
	leaq	(%rsi,%rbp), %rdx
	addq	$-5072, %rdx                    # imm = 0xEC30
	addq	%rsi, %rax
	xorl	%esi, %esi
	.p2align	4, 0x90
.LBB37_22:                              # %.epil.preheader
                                        #   Parent Loop BB37_6 Depth=1
                                        # =>  This Inner Loop Header: Depth=2
	movzbl	(%rax,%rsi), %ecx
	movb	%cl, (%rdx,%rsi)
	addq	$1, %rsi
	cmpq	%rsi, %rdi
	jne	.LBB37_22
.LBB37_23:                              # %._crit_edge
                                        #   in Loop: Header=BB37_6 Depth=1
	movq	%r15, %rdi
	movq	%rbx, %rsi
	callq	BZ2_bzReadClose
	cmpl	$0, -44(%rbp)
	jne	.LBB37_63
# %bb.24:                               #   in Loop: Header=BB37_6 Depth=1
	movl	-48(%rbp), %r9d
	testl	%r9d, %r9d
	jne	.LBB37_27
# %bb.25:                               #   in Loop: Header=BB37_6 Depth=1
	movq	%r14, %rdi
	callq	myfeof
	testb	%al, %al
	jne	.LBB37_32
# %bb.26:                               # %._crit_edge127
                                        #   in Loop: Header=BB37_6 Depth=1
	movl	-48(%rbp), %r9d
.LBB37_27:                              #   in Loop: Header=BB37_6 Depth=1
	movl	verbosity(%rip), %edx
	movzbl	smallMode(%rip), %ecx
	movq	%r15, %rdi
	movq	%r14, %rsi
	leaq	-5072(%rbp), %r8
	callq	BZ2_bzReadOpen
	movq	%rax, %rbx
	testq	%rax, %rax
	je	.LBB37_29
# %bb.28:                               #   in Loop: Header=BB37_6 Depth=1
	cmpl	$0, -44(%rbp)
	je	.LBB37_6
	jmp	.LBB37_29
.LBB37_3:
	xorl	%eax, %eax
	movq	%rax, -56(%rbp)                 # 8-byte Spill
.LBB37_29:                              # %.loopexit49
	leaq	-68(%rbp), %rdi
	movq	%rbx, %rsi
	callq	BZ2_bzReadClose
	movl	-44(%rbp), %eax
	cmpl	$-5, %eax
	jne	.LBB37_30
# %bb.54:
	cmpq	%r14, stdin(%rip)
	movq	-56(%rbp), %rbx                 # 8-byte Reload
	je	.LBB37_56
# %bb.55:
	movq	%r14, %rdi
	callq	fclose
.LBB37_56:
	cmpq	%r12, stdout(%rip)
	je	.LBB37_58
# %bb.57:
	movq	%r12, %rdi
	callq	fclose
.LBB37_58:
	cmpl	$1, %ebx
	jne	.LBB37_60
# %bb.59:
	xorl	%ebx, %ebx
	jmp	.LBB37_62
.LBB37_60:
	movb	$1, %bl
	cmpb	$0, noisy(%rip)
	je	.LBB37_62
# %bb.61:
	movq	stderr(%rip), %rdi
	movq	progName(%rip), %rdx
	movl	$.L.str.90, %esi
	movl	$inName, %ecx
	xorl	%eax, %eax
	callq	fprintf
	jmp	.LBB37_62
.LBB37_43:
	cmpb	$0, forceOverwrite(%rip)
	je	.LBB37_29
# %bb.44:
	movq	%r14, %rdi
	callq	rewind
	leaq	-10080(%rbp), %r15
	jmp	.LBB37_45
	.p2align	4, 0x90
.LBB37_49:                              #   in Loop: Header=BB37_45 Depth=1
	movq	%r12, %rdi
	callq	ferror
	testl	%eax, %eax
	jne	.LBB37_50
.LBB37_45:                              # =>This Inner Loop Header: Depth=1
	movq	%r14, %rdi
	callq	myfeof
	testb	%al, %al
	jne	.LBB37_32
# %bb.46:                               #   in Loop: Header=BB37_45 Depth=1
	movl	$1, %esi
	movl	$5000, %edx                     # imm = 0x1388
	movq	%r15, %rdi
	movq	%r14, %rcx
	callq	fread
	movq	%rax, %rbx
	movq	%r14, %rdi
	callq	ferror
	testl	%eax, %eax
	jne	.LBB37_50
# %bb.47:                               #   in Loop: Header=BB37_45 Depth=1
	testl	%ebx, %ebx
	jle	.LBB37_49
# %bb.48:                               #   in Loop: Header=BB37_45 Depth=1
	movslq	%ebx, %rdx
	movl	$1, %esi
	movq	%r15, %rdi
	movq	%r12, %rcx
	callq	fwrite
	jmp	.LBB37_49
.LBB37_32:                              # %.loopexit
	movq	%r14, %rdi
	callq	ferror
	testl	%eax, %eax
	jne	.LBB37_50
# %bb.33:
	cmpq	%r12, stdout(%rip)
	je	.LBB37_36
# %bb.34:
	movq	%r12, %rdi
	callq	fileno
	testl	%eax, %eax
	js	.LBB37_50
# %bb.35:
	movl	%eax, %edi
	callq	applySavedFileAttrToOutputFile
.LBB37_36:
	movq	%r14, %rdi
	callq	fclose
	cmpl	$-1, %eax
	je	.LBB37_50
# %bb.37:
	movq	%r12, %rdi
	callq	ferror
	testl	%eax, %eax
	jne	.LBB37_50
# %bb.38:
	movq	%r12, %rdi
	callq	fflush
	testl	%eax, %eax
	jne	.LBB37_50
# %bb.39:
	cmpq	%r12, stdout(%rip)
	je	.LBB37_41
# %bb.40:
	movq	%r12, %rdi
	callq	fclose
	movq	$0, outputHandleJustInCase(%rip)
	cmpl	$-1, %eax
	je	.LBB37_50
.LBB37_41:
	movq	$0, outputHandleJustInCase(%rip)
	movb	$1, %bl
	cmpl	$2, verbosity(%rip)
	jge	.LBB37_42
.LBB37_62:
	movl	%ebx, %eax
	addq	$10040, %rsp                    # imm = 0x2738
	popq	%rbx
	popq	%r12
	popq	%r13
	popq	%r14
	popq	%r15
	popq	%rbp
	.cfi_def_cfa %rsp, 8
	retq
.LBB37_42:
	.cfi_def_cfa %rbp, 16
	movq	stderr(%rip), %rcx
	movl	$.L.str.89, %edi
	movl	$5, %esi
	movl	$1, %edx
	callq	fwrite
	jmp	.LBB37_62
.LBB37_30:                              # %.loopexit49
	addl	$9, %eax
	cmpl	$6, %eax
	ja	.LBB37_65
# %bb.31:                               # %.loopexit49
	jmpq	*.LJTI37_0(,%rax,8)
.LBB37_64:
	callq	configError
.LBB37_50:                              # %.loopexit47
	callq	ioError
.LBB37_53:
	callq	compressedStreamEOF
.LBB37_51:
	callq	crcError
.LBB37_52:
	callq	outOfMemory
.LBB37_65:
	movl	$.L.str.91, %edi
	callq	panic
.LBB37_63:
	movl	$.L.str.88, %edi
	callq	panic
.Lfunc_end37:
	.size	uncompressStream, .Lfunc_end37-uncompressStream
	.cfi_endproc
	.section	.rodata,"a",@progbits
	.p2align	3
.LJTI37_0:
	.quad	.LBB37_64
	.quad	.LBB37_65
	.quad	.LBB37_53
	.quad	.LBB37_50
	.quad	.LBB37_65
	.quad	.LBB37_51
	.quad	.LBB37_52
                                        # -- End function
	.text
	.p2align	4, 0x90                         # -- Begin function applySavedTimeInfoToOutputFile
	.type	applySavedTimeInfoToOutputFile,@function
applySavedTimeInfoToOutputFile:         # @applySavedTimeInfoToOutputFile
	.cfi_startproc
# %bb.0:
	pushq	%rbp
	.cfi_def_cfa_offset 16
	.cfi_offset %rbp, -16
	movq	%rsp, %rbp
	.cfi_def_cfa_register %rbp
	subq	$16, %rsp
	movq	fileMetaInfo+72(%rip), %rax
	movq	%rax, -16(%rbp)
	movq	fileMetaInfo+88(%rip), %rax
	movq	%rax, -8(%rbp)
	leaq	-16(%rbp), %rsi
	movl	$outName, %edi
	callq	utime
	testl	%eax, %eax
	jne	.LBB38_2
# %bb.1:
	addq	$16, %rsp
	popq	%rbp
	.cfi_def_cfa %rsp, 8
	retq
.LBB38_2:
	.cfi_def_cfa %rbp, 16
	callq	ioError
.Lfunc_end38:
	.size	applySavedTimeInfoToOutputFile, .Lfunc_end38-applySavedTimeInfoToOutputFile
	.cfi_endproc
                                        # -- End function
	.p2align	4, 0x90                         # -- Begin function applySavedFileAttrToOutputFile
	.type	applySavedFileAttrToOutputFile,@function
applySavedFileAttrToOutputFile:         # @applySavedFileAttrToOutputFile
	.cfi_startproc
# %bb.0:
	pushq	%rbp
	.cfi_def_cfa_offset 16
	.cfi_offset %rbp, -16
	movq	%rsp, %rbp
	.cfi_def_cfa_register %rbp
	pushq	%rbx
	pushq	%rax
	.cfi_offset %rbx, -24
	movl	%edi, %ebx
	movl	fileMetaInfo+24(%rip), %esi
	callq	fchmod
	testl	%eax, %eax
	jne	.LBB39_1
# %bb.2:
	movl	fileMetaInfo+28(%rip), %esi
	movl	fileMetaInfo+32(%rip), %edx
	movl	%ebx, %edi
	addq	$8, %rsp
	popq	%rbx
	popq	%rbp
	.cfi_def_cfa %rsp, 8
	jmp	fchown                          # TAILCALL
.LBB39_1:
	.cfi_def_cfa %rbp, 16
	callq	ioError
.Lfunc_end39:
	.size	applySavedFileAttrToOutputFile, .Lfunc_end39-applySavedFileAttrToOutputFile
	.cfi_endproc
                                        # -- End function
	.p2align	4, 0x90                         # -- Begin function crcError
	.type	crcError,@function
crcError:                               # @crcError
	.cfi_startproc
# %bb.0:
	pushq	%rbp
	.cfi_def_cfa_offset 16
	.cfi_offset %rbp, -16
	movq	%rsp, %rbp
	.cfi_def_cfa_register %rbp
	movq	stderr(%rip), %rdi
	movq	progName(%rip), %rdx
	movl	$.L.str.92, %esi
	xorl	%eax, %eax
	callq	fprintf
	callq	showFileNames
	callq	cadvise
	movl	$2, %edi
	callq	cleanUpAndFail
.Lfunc_end40:
	.size	crcError, .Lfunc_end40-crcError
	.cfi_endproc
                                        # -- End function
	.p2align	4, 0x90                         # -- Begin function compressedStreamEOF
	.type	compressedStreamEOF,@function
compressedStreamEOF:                    # @compressedStreamEOF
	.cfi_startproc
# %bb.0:
	pushq	%rbp
	.cfi_def_cfa_offset 16
	.cfi_offset %rbp, -16
	movq	%rsp, %rbp
	.cfi_def_cfa_register %rbp
	cmpb	$0, noisy(%rip)
	je	.LBB41_2
# %bb.1:
	movq	stderr(%rip), %rdi
	movq	progName(%rip), %rdx
	movl	$.L.str.93, %esi
	xorl	%eax, %eax
	callq	fprintf
	movq	progName(%rip), %rdi
	callq	perror
	callq	showFileNames
	callq	cadvise
.LBB41_2:
	movl	$2, %edi
	callq	cleanUpAndFail
.Lfunc_end41:
	.size	compressedStreamEOF, .Lfunc_end41-compressedStreamEOF
	.cfi_endproc
                                        # -- End function
	.p2align	4, 0x90                         # -- Begin function cadvise
	.type	cadvise,@function
cadvise:                                # @cadvise
	.cfi_startproc
# %bb.0:
	pushq	%rbp
	.cfi_def_cfa_offset 16
	.cfi_offset %rbp, -16
	movq	%rsp, %rbp
	.cfi_def_cfa_register %rbp
	cmpb	$0, noisy(%rip)
	jne	.LBB42_2
# %bb.1:
	popq	%rbp
	.cfi_def_cfa %rsp, 8
	retq
.LBB42_2:
	.cfi_def_cfa %rbp, 16
	movq	stderr(%rip), %rcx
	movl	$.L.str.46, %edi
	movl	$240, %esi
	movl	$1, %edx
	popq	%rbp
	.cfi_def_cfa %rsp, 8
	jmp	fwrite                          # TAILCALL
.Lfunc_end42:
	.size	cadvise, .Lfunc_end42-cadvise
	.cfi_endproc
                                        # -- End function
	.p2align	4, 0x90                         # -- Begin function hasSuffix
	.type	hasSuffix,@function
hasSuffix:                              # @hasSuffix
	.cfi_startproc
# %bb.0:
	pushq	%rbp
	.cfi_def_cfa_offset 16
	.cfi_offset %rbp, -16
	movq	%rsp, %rbp
	.cfi_def_cfa_register %rbp
	pushq	%r15
	pushq	%r14
	pushq	%rbx
	pushq	%rax
	.cfi_offset %rbx, -40
	.cfi_offset %r14, -32
	.cfi_offset %r15, -24
	movq	%rsi, %r14
	movq	%rdi, %rbx
	callq	strlen
	movq	%rax, %r15
	movq	%r14, %rdi
	callq	strlen
	cmpl	%eax, %r15d
	jge	.LBB43_1
# %bb.2:
	xorl	%eax, %eax
	jmp	.LBB43_3
.LBB43_1:
	movslq	%r15d, %rcx
	addq	%rcx, %rbx
	cltq
	subq	%rax, %rbx
	movq	%rbx, %rdi
	movq	%r14, %rsi
	callq	strcmp
	testl	%eax, %eax
	sete	%al
.LBB43_3:
	addq	$8, %rsp
	popq	%rbx
	popq	%r14
	popq	%r15
	popq	%rbp
	.cfi_def_cfa %rsp, 8
	retq
.Lfunc_end43:
	.size	hasSuffix, .Lfunc_end43-hasSuffix
	.cfi_endproc
                                        # -- End function
	.section	.rodata.cst8,"aM",@progbits,8
	.p2align	3                               # -- Begin function compressStream
.LCPI44_0:
	.quad	0x4020000000000000              # double 8
.LCPI44_1:
	.quad	0x3ff0000000000000              # double 1
.LCPI44_2:
	.quad	0x4059000000000000              # double 100
	.text
	.p2align	4, 0x90
	.type	compressStream,@function
compressStream:                         # @compressStream
	.cfi_startproc
# %bb.0:
	pushq	%rbp
	.cfi_def_cfa_offset 16
	.cfi_offset %rbp, -16
	movq	%rsp, %rbp
	.cfi_def_cfa_register %rbp
	pushq	%r15
	pushq	%r14
	pushq	%r13
	pushq	%r12
	pushq	%rbx
	subq	$5160, %rsp                     # imm = 0x1428
	.cfi_offset %rbx, -56
	.cfi_offset %r12, -48
	.cfi_offset %r13, -40
	.cfi_offset %r14, -32
	.cfi_offset %r15, -24
	movq	%rsi, -56(%rbp)                 # 8-byte Spill
	movq	%rdi, %rbx
	callq	ferror
	testl	%eax, %eax
	jne	.LBB44_29
# %bb.1:
	movq	-56(%rbp), %rdi                 # 8-byte Reload
	callq	ferror
	testl	%eax, %eax
	jne	.LBB44_29
# %bb.2:
	movl	blockSize100k(%rip), %edx
	movl	verbosity(%rip), %ecx
	movl	workFactor(%rip), %r8d
	leaq	-44(%rbp), %rdi
	movq	-56(%rbp), %rsi                 # 8-byte Reload
	callq	BZ2_bzWriteOpen
	movq	%rax, %r15
	cmpl	$0, -44(%rbp)
	jne	.LBB44_11
# %bb.3:
	cmpl	$2, verbosity(%rip)
	jl	.LBB44_5
# %bb.4:
	movq	stderr(%rip), %rsi
	movl	$10, %edi
	callq	fputc@PLT
.LBB44_5:
	leaq	-5184(%rbp), %r12
	leaq	-44(%rbp), %r13
	jmp	.LBB44_6
	.p2align	4, 0x90
.LBB44_10:                              #   in Loop: Header=BB44_6 Depth=1
	cmpl	$0, -44(%rbp)
	jne	.LBB44_11
.LBB44_6:                               # =>This Inner Loop Header: Depth=1
	movq	%rbx, %rdi
	callq	myfeof
	testb	%al, %al
	jne	.LBB44_15
# %bb.7:                                #   in Loop: Header=BB44_6 Depth=1
	movl	$1, %esi
	movl	$5000, %edx                     # imm = 0x1388
	movq	%r12, %rdi
	movq	%rbx, %rcx
	callq	fread
	movq	%rax, %r14
	movq	%rbx, %rdi
	callq	ferror
	testl	%eax, %eax
	jne	.LBB44_29
# %bb.8:                                #   in Loop: Header=BB44_6 Depth=1
	testl	%r14d, %r14d
	jle	.LBB44_10
# %bb.9:                                #   in Loop: Header=BB44_6 Depth=1
	movq	%r13, %rdi
	movq	%r15, %rsi
	movq	%r12, %rdx
	movl	%r14d, %ecx
	callq	BZ2_bzWrite
	jmp	.LBB44_10
.LBB44_15:
	leaq	-60(%rbp), %rax
	movq	%rax, (%rsp)
	leaq	-44(%rbp), %rdi
	leaq	-72(%rbp), %rcx
	leaq	-68(%rbp), %r8
	leaq	-64(%rbp), %r9
	movq	%r15, %rsi
	xorl	%edx, %edx
	callq	BZ2_bzWriteClose64
	cmpl	$0, -44(%rbp)
	jne	.LBB44_11
# %bb.16:
	movq	-56(%rbp), %rdi                 # 8-byte Reload
	callq	ferror
	testl	%eax, %eax
	jne	.LBB44_29
# %bb.17:
	movq	-56(%rbp), %rdi                 # 8-byte Reload
	callq	fflush
	cmpl	$-1, %eax
	je	.LBB44_29
# %bb.18:
	movq	-56(%rbp), %rax                 # 8-byte Reload
	cmpq	%rax, stdout(%rip)
	je	.LBB44_21
# %bb.19:
	movq	-56(%rbp), %rdi                 # 8-byte Reload
	callq	fileno
	testl	%eax, %eax
	js	.LBB44_29
# %bb.20:
	movl	%eax, %edi
	callq	applySavedFileAttrToOutputFile
	movq	-56(%rbp), %rdi                 # 8-byte Reload
	callq	fclose
	movq	$0, outputHandleJustInCase(%rip)
	cmpl	$-1, %eax
	je	.LBB44_29
.LBB44_21:
	movq	$0, outputHandleJustInCase(%rip)
	movq	%rbx, %rdi
	callq	ferror
	testl	%eax, %eax
	jne	.LBB44_29
# %bb.22:
	movq	%rbx, %rdi
	callq	fclose
	cmpl	$-1, %eax
	je	.LBB44_29
# %bb.23:
	cmpl	$0, verbosity(%rip)
	jg	.LBB44_24
.LBB44_27:
	addq	$5160, %rsp                     # imm = 0x1428
	popq	%rbx
	popq	%r12
	popq	%r13
	popq	%r14
	popq	%r15
	popq	%rbp
	.cfi_def_cfa %rsp, 8
	retq
.LBB44_24:
	.cfi_def_cfa %rbp, 16
	movl	-72(%rbp), %esi
	movl	-68(%rbp), %edx
	movl	%edx, %eax
	orl	%esi, %eax
	jne	.LBB44_26
# %bb.25:
	movq	stderr(%rip), %rcx
	movl	$.L.str.74, %edi
	movl	$21, %esi
	movl	$1, %edx
	callq	fwrite
	jmp	.LBB44_27
.LBB44_26:
	leaq	-104(%rbp), %r14
	movq	%r14, %rdi
	callq	uInt64_from_UInt32s
	movl	-64(%rbp), %esi
	movl	-60(%rbp), %edx
	leaq	-96(%rbp), %rbx
	movq	%rbx, %rdi
	callq	uInt64_from_UInt32s
	movq	%r14, %rdi
	callq	uInt64_to_double
	movsd	%xmm0, -56(%rbp)                # 8-byte Spill
	movq	%rbx, %rdi
	callq	uInt64_to_double
	movsd	%xmm0, -80(%rbp)                # 8-byte Spill
	leaq	-176(%rbp), %r15
	movq	%r15, %rdi
	movq	%r14, %rsi
	callq	uInt64_toAscii
	leaq	-144(%rbp), %r14
	movq	%r14, %rdi
	movq	%rbx, %rsi
	callq	uInt64_toAscii
	movq	stderr(%rip), %rdi
	movsd	-56(%rbp), %xmm2                # 8-byte Reload
                                        # xmm2 = mem[0],zero
	movapd	%xmm2, %xmm0
	movsd	-80(%rbp), %xmm3                # 8-byte Reload
                                        # xmm3 = mem[0],zero
	divsd	%xmm3, %xmm0
	movsd	.LCPI44_0(%rip), %xmm1          # xmm1 = mem[0],zero
	mulsd	%xmm3, %xmm1
	divsd	%xmm2, %xmm1
	divsd	%xmm2, %xmm3
	movsd	.LCPI44_1(%rip), %xmm2          # xmm2 = mem[0],zero
	subsd	%xmm3, %xmm2
	mulsd	.LCPI44_2(%rip), %xmm2
	movl	$.L.str.75, %esi
	movq	%r15, %rdx
	movq	%r14, %rcx
	movb	$3, %al
	callq	fprintf
	jmp	.LBB44_27
.LBB44_11:                              # %.loopexit28
	leaq	-60(%rbp), %rax
	movq	%rax, (%rsp)
	leaq	-84(%rbp), %rdi
	leaq	-72(%rbp), %rcx
	leaq	-68(%rbp), %r8
	leaq	-64(%rbp), %r9
	movq	%r15, %rsi
	movl	$1, %edx
	callq	BZ2_bzWriteClose64
	movl	-44(%rbp), %eax
	cmpl	$-3, %eax
	je	.LBB44_28
# %bb.12:                               # %.loopexit28
	cmpl	$-6, %eax
	je	.LBB44_29
# %bb.13:                               # %.loopexit28
	cmpl	$-9, %eax
	jne	.LBB44_30
# %bb.14:
	callq	configError
.LBB44_29:                              # %.loopexit
	callq	ioError
.LBB44_28:
	callq	outOfMemory
.LBB44_30:
	movl	$.L.str.76, %edi
	callq	panic
.Lfunc_end44:
	.size	compressStream, .Lfunc_end44-compressStream
	.cfi_endproc
                                        # -- End function
	.p2align	4, 0x90                         # -- Begin function uInt64_from_UInt32s
	.type	uInt64_from_UInt32s,@function
uInt64_from_UInt32s:                    # @uInt64_from_UInt32s
	.cfi_startproc
# %bb.0:
	pushq	%rbp
	.cfi_def_cfa_offset 16
	.cfi_offset %rbp, -16
	movq	%rsp, %rbp
	.cfi_def_cfa_register %rbp
	movl	%esi, %eax
	movl	%edx, 4(%rdi)
	movl	%esi, %ecx
	shrl	$24, %ecx
	movb	%cl, 3(%rdi)
	movl	%esi, %ecx
	shrl	$16, %ecx
	movb	%cl, 2(%rdi)
	movb	%ah, 1(%rdi)
	movb	%al, (%rdi)
	popq	%rbp
	.cfi_def_cfa %rsp, 8
	retq
.Lfunc_end45:
	.size	uInt64_from_UInt32s, .Lfunc_end45-uInt64_from_UInt32s
	.cfi_endproc
                                        # -- End function
	.section	.rodata.cst8,"aM",@progbits,8
	.p2align	3                               # -- Begin function uInt64_to_double
.LCPI46_0:
	.quad	0x4070000000000000              # double 256
.LCPI46_1:
	.quad	0x40f0000000000000              # double 65536
.LCPI46_2:
	.quad	0x4170000000000000              # double 16777216
.LCPI46_3:
	.quad	0x41f0000000000000              # double 4294967296
.LCPI46_4:
	.quad	0x4270000000000000              # double 1099511627776
.LCPI46_5:
	.quad	0x42f0000000000000              # double 281474976710656
.LCPI46_6:
	.quad	0x4370000000000000              # double 72057594037927936
	.text
	.p2align	4, 0x90
	.type	uInt64_to_double,@function
uInt64_to_double:                       # @uInt64_to_double
	.cfi_startproc
# %bb.0:
	pushq	%rbp
	.cfi_def_cfa_offset 16
	.cfi_offset %rbp, -16
	movq	%rsp, %rbp
	.cfi_def_cfa_register %rbp
	movzbl	(%rdi), %eax
	cvtsi2sd	%eax, %xmm0
	movzbl	1(%rdi), %eax
	cvtsi2sd	%eax, %xmm1
	mulsd	.LCPI46_0(%rip), %xmm1
	movzbl	2(%rdi), %eax
	cvtsi2sd	%eax, %xmm2
	mulsd	.LCPI46_1(%rip), %xmm2
	addsd	%xmm0, %xmm1
	movzbl	3(%rdi), %eax
	xorps	%xmm0, %xmm0
	cvtsi2sd	%eax, %xmm0
	addsd	%xmm1, %xmm2
	mulsd	.LCPI46_2(%rip), %xmm0
	movzbl	4(%rdi), %eax
	xorps	%xmm1, %xmm1
	cvtsi2sd	%eax, %xmm1
	mulsd	.LCPI46_3(%rip), %xmm1
	addsd	%xmm2, %xmm0
	movzbl	5(%rdi), %eax
	xorps	%xmm2, %xmm2
	cvtsi2sd	%eax, %xmm2
	addsd	%xmm0, %xmm1
	mulsd	.LCPI46_4(%rip), %xmm2
	movzbl	6(%rdi), %eax
	cvtsi2sd	%eax, %xmm3
	mulsd	.LCPI46_5(%rip), %xmm3
	addsd	%xmm1, %xmm2
	movzbl	7(%rdi), %eax
	xorps	%xmm0, %xmm0
	cvtsi2sd	%eax, %xmm0
	addsd	%xmm2, %xmm3
	mulsd	.LCPI46_6(%rip), %xmm0
	addsd	%xmm3, %xmm0
	popq	%rbp
	.cfi_def_cfa %rsp, 8
	retq
.Lfunc_end46:
	.size	uInt64_to_double, .Lfunc_end46-uInt64_to_double
	.cfi_endproc
                                        # -- End function
	.p2align	4, 0x90                         # -- Begin function uInt64_toAscii
	.type	uInt64_toAscii,@function
uInt64_toAscii:                         # @uInt64_toAscii
	.cfi_startproc
# %bb.0:
	pushq	%rbp
	.cfi_def_cfa_offset 16
	.cfi_offset %rbp, -16
	movq	%rsp, %rbp
	.cfi_def_cfa_register %rbp
	pushq	%r15
	pushq	%r14
	pushq	%r13
	pushq	%r12
	pushq	%rbx
	subq	$56, %rsp
	.cfi_offset %rbx, -56
	.cfi_offset %r12, -48
	.cfi_offset %r13, -40
	.cfi_offset %r14, -32
	.cfi_offset %r15, -24
	movq	%rdi, -48(%rbp)                 # 8-byte Spill
	movabsq	$-4294967296, %rbx              # imm = 0xFFFFFFFF00000000
	movabsq	$-8589934592, %r13              # imm = 0xFFFFFFFE00000000
	movq	(%rsi), %rax
	movq	%rax, -56(%rbp)
	xorl	%r14d, %r14d
	xorl	%r15d, %r15d
	.p2align	4, 0x90
.LBB47_1:                               # =>This Inner Loop Header: Depth=1
	leaq	-56(%rbp), %r12
	movq	%r12, %rdi
	callq	uInt64_qrm10
	addb	$48, %al
	movb	%al, -96(%rbp,%r15)
	addq	$1, %r15
	movq	%r12, %rdi
	callq	uInt64_isZero
	movabsq	$4294967296, %rcx               # imm = 0x100000000
	addq	%rcx, %rbx
	addq	%rcx, %r14
	addq	%rcx, %r13
	testb	%al, %al
	je	.LBB47_1
# %bb.2:
	sarq	$32, %r14
	movq	-48(%rbp), %rdi                 # 8-byte Reload
	movb	$0, (%rdi,%r14)
	testl	%r15d, %r15d
	jle	.LBB47_10
# %bb.3:
	movl	%r15d, %eax
	testq	%rax, %rax
	je	.LBB47_10
# %bb.4:                                # %.lr.ph.preheader
	cmpl	$1, %eax
	jne	.LBB47_6
# %bb.5:
	xorl	%eax, %eax
	jmp	.LBB47_8
.LBB47_6:                               # %.lr.ph.preheader.new
	movl	%r15d, %r8d
	movl	%r15d, %eax
	andl	$1, %eax
	subq	%rax, %r8
	xorl	%eax, %eax
	movq	%rbx, %rdx
	movabsq	$-8589934592, %r9               # imm = 0xFFFFFFFE00000000
	.p2align	4, 0x90
.LBB47_7:                               # %.lr.ph
                                        # =>This Inner Loop Header: Depth=1
	movq	%rdx, %rsi
	sarq	$32, %rsi
	movzbl	-96(%rbp,%rsi), %ecx
	movb	%cl, (%rdi,%rax)
	movq	%r13, %rcx
	sarq	$32, %rcx
	movzbl	-96(%rbp,%rcx), %ecx
	movb	%cl, 1(%rdi,%rax)
	addq	$2, %rax
	addq	%r9, %r13
	addq	%r9, %rdx
	cmpq	%rax, %r8
	jne	.LBB47_7
.LBB47_8:                               # %._crit_edge.loopexit.unr-lcssa
	testb	$1, %r15b
	je	.LBB47_10
# %bb.9:                                # %.lr.ph.epil.preheader
	movabsq	$-4294967296, %rcx              # imm = 0xFFFFFFFF00000000
	imulq	%rax, %rcx
	addq	%rbx, %rcx
	sarq	$32, %rcx
	movb	-96(%rbp,%rcx), %cl
	movb	%cl, (%rdi,%rax)
.LBB47_10:                              # %._crit_edge
	addq	$56, %rsp
	popq	%rbx
	popq	%r12
	popq	%r13
	popq	%r14
	popq	%r15
	popq	%rbp
	.cfi_def_cfa %rsp, 8
	retq
.Lfunc_end47:
	.size	uInt64_toAscii, .Lfunc_end47-uInt64_toAscii
	.cfi_endproc
                                        # -- End function
	.p2align	4, 0x90                         # -- Begin function uInt64_qrm10
	.type	uInt64_qrm10,@function
uInt64_qrm10:                           # @uInt64_qrm10
	.cfi_startproc
# %bb.0:
	pushq	%rbp
	.cfi_def_cfa_offset 16
	.cfi_offset %rbp, -16
	movq	%rsp, %rbp
	.cfi_def_cfa_register %rbp
	movzbl	7(%rdi), %eax
	imull	$205, %eax, %ecx
	shrl	$11, %ecx
	movb	%cl, 7(%rdi)
	addl	%ecx, %ecx
	leal	(%rcx,%rcx,4), %ecx
	subb	%cl, %al
	movzbl	%al, %eax
	shll	$8, %eax
	movzbl	6(%rdi), %edx
	orl	%eax, %edx
	movl	$3435973837, %ecx               # imm = 0xCCCCCCCD
	movq	%rdx, %rax
	imulq	%rcx, %rax
	shrq	$35, %rax
	movb	%al, 6(%rdi)
	addl	%eax, %eax
	leal	(%rax,%rax,4), %eax
	subl	%eax, %edx
	shll	$8, %edx
	movzbl	5(%rdi), %eax
	orl	%edx, %eax
	movq	%rax, %rdx
	imulq	%rcx, %rdx
	shrq	$35, %rdx
	movb	%dl, 5(%rdi)
	addl	%edx, %edx
	leal	(%rdx,%rdx,4), %edx
	subl	%edx, %eax
	shll	$8, %eax
	movzbl	4(%rdi), %edx
	orl	%eax, %edx
	movq	%rdx, %rax
	imulq	%rcx, %rax
	shrq	$35, %rax
	movb	%al, 4(%rdi)
	addl	%eax, %eax
	leal	(%rax,%rax,4), %eax
	subl	%eax, %edx
	shll	$8, %edx
	movzbl	3(%rdi), %eax
	orl	%edx, %eax
	movq	%rax, %rdx
	imulq	%rcx, %rdx
	shrq	$35, %rdx
	movb	%dl, 3(%rdi)
	addl	%edx, %edx
	leal	(%rdx,%rdx,4), %edx
	subl	%edx, %eax
	shll	$8, %eax
	movzbl	2(%rdi), %edx
	orl	%eax, %edx
	movq	%rdx, %rax
	imulq	%rcx, %rax
	shrq	$35, %rax
	movb	%al, 2(%rdi)
	addl	%eax, %eax
	leal	(%rax,%rax,4), %eax
	subl	%eax, %edx
	shll	$8, %edx
	movzbl	1(%rdi), %esi
	orl	%edx, %esi
	movq	%rsi, %rax
	imulq	%rcx, %rax
	shrq	$35, %rax
	movb	%al, 1(%rdi)
	addl	%eax, %eax
	leal	(%rax,%rax,4), %eax
	subl	%eax, %esi
	shll	$8, %esi
	movzbl	(%rdi), %eax
	orl	%esi, %eax
	imulq	%rax, %rcx
	shrq	$35, %rcx
	movb	%cl, (%rdi)
	addl	%ecx, %ecx
	leal	(%rcx,%rcx,4), %ecx
	subl	%ecx, %eax
                                        # kill: def $eax killed $eax killed $rax
	popq	%rbp
	.cfi_def_cfa %rsp, 8
	retq
.Lfunc_end48:
	.size	uInt64_qrm10, .Lfunc_end48-uInt64_qrm10
	.cfi_endproc
                                        # -- End function
	.p2align	4, 0x90                         # -- Begin function uInt64_isZero
	.type	uInt64_isZero,@function
uInt64_isZero:                          # @uInt64_isZero
	.cfi_startproc
# %bb.0:
	pushq	%rbp
	.cfi_def_cfa_offset 16
	.cfi_offset %rbp, -16
	movq	%rsp, %rbp
	.cfi_def_cfa_register %rbp
	cmpb	$0, (%rdi)
	jne	.LBB49_8
# %bb.1:
	cmpb	$0, 1(%rdi)
	jne	.LBB49_8
# %bb.2:
	cmpb	$0, 2(%rdi)
	jne	.LBB49_8
# %bb.3:
	cmpb	$0, 3(%rdi)
	jne	.LBB49_8
# %bb.4:
	cmpb	$0, 4(%rdi)
	jne	.LBB49_8
# %bb.5:
	cmpb	$0, 5(%rdi)
	jne	.LBB49_8
# %bb.6:
	cmpb	$0, 6(%rdi)
	je	.LBB49_7
.LBB49_8:
	xorl	%eax, %eax
	popq	%rbp
	.cfi_def_cfa %rsp, 8
	retq
.LBB49_7:
	.cfi_def_cfa %rbp, 16
	cmpb	$0, 7(%rdi)
	sete	%al
	popq	%rbp
	.cfi_def_cfa %rsp, 8
	retq
.Lfunc_end49:
	.size	uInt64_isZero, .Lfunc_end49-uInt64_isZero
	.cfi_endproc
                                        # -- End function
	.p2align	4, 0x90                         # -- Begin function mkCell
	.type	mkCell,@function
mkCell:                                 # @mkCell
	.cfi_startproc
# %bb.0:
	pushq	%rbp
	.cfi_def_cfa_offset 16
	.cfi_offset %rbp, -16
	movq	%rsp, %rbp
	.cfi_def_cfa_register %rbp
	movl	$16, %edi
	callq	myMalloc
	xorps	%xmm0, %xmm0
	movups	%xmm0, (%rax)
	popq	%rbp
	.cfi_def_cfa %rsp, 8
	retq
.Lfunc_end50:
	.size	mkCell, .Lfunc_end50-mkCell
	.cfi_endproc
                                        # -- End function
	.p2align	4, 0x90                         # -- Begin function myMalloc
	.type	myMalloc,@function
myMalloc:                               # @myMalloc
	.cfi_startproc
# %bb.0:
	pushq	%rbp
	.cfi_def_cfa_offset 16
	.cfi_offset %rbp, -16
	movq	%rsp, %rbp
	.cfi_def_cfa_register %rbp
	movslq	%edi, %rdi
	callq	malloc
	testq	%rax, %rax
	je	.LBB51_2
# %bb.1:
	popq	%rbp
	.cfi_def_cfa %rsp, 8
	retq
.LBB51_2:
	.cfi_def_cfa %rbp, 16
	callq	outOfMemory
.Lfunc_end51:
	.size	myMalloc, .Lfunc_end51-myMalloc
	.cfi_endproc
                                        # -- End function
	.globl	BZ2_bz__AssertH__fail           # -- Begin function BZ2_bz__AssertH__fail
	.p2align	4, 0x90
	.type	BZ2_bz__AssertH__fail,@function
BZ2_bz__AssertH__fail:                  # @BZ2_bz__AssertH__fail
	.cfi_startproc
# %bb.0:
	pushq	%rbp
	.cfi_def_cfa_offset 16
	.cfi_offset %rbp, -16
	movq	%rsp, %rbp
	.cfi_def_cfa_register %rbp
	pushq	%rbx
	pushq	%rax
	.cfi_offset %rbx, -24
	movl	%edi, %ebx
	movq	stderr(%rip), %rdi
	movl	$.L.str.105, %esi
	movl	$.L.str.5.107, %ecx
	movl	%ebx, %edx
	xorl	%eax, %eax
	callq	fprintf
	cmpl	$1007, %ebx                     # imm = 0x3EF
	jne	.LBB52_2
# %bb.1:
	movq	stderr(%rip), %rcx
	movl	$.L.str.1.106, %edi
	movl	$1056, %esi                     # imm = 0x420
	movl	$1, %edx
	callq	fwrite
.LBB52_2:
	movl	$3, %edi
	callq	exit
.Lfunc_end52:
	.size	BZ2_bz__AssertH__fail, .Lfunc_end52-BZ2_bz__AssertH__fail
	.cfi_endproc
                                        # -- End function
	.globl	BZ2_bzlibVersion                # -- Begin function BZ2_bzlibVersion
	.p2align	4, 0x90
	.type	BZ2_bzlibVersion,@function
BZ2_bzlibVersion:                       # @BZ2_bzlibVersion
	.cfi_startproc
# %bb.0:
	pushq	%rbp
	.cfi_def_cfa_offset 16
	.cfi_offset %rbp, -16
	movq	%rsp, %rbp
	.cfi_def_cfa_register %rbp
	movl	$.L.str.5.107, %eax
	popq	%rbp
	.cfi_def_cfa %rsp, 8
	retq
.Lfunc_end53:
	.size	BZ2_bzlibVersion, .Lfunc_end53-BZ2_bzlibVersion
	.cfi_endproc
                                        # -- End function
	.globl	BZ2_bzCompressInit              # -- Begin function BZ2_bzCompressInit
	.p2align	4, 0x90
	.type	BZ2_bzCompressInit,@function
BZ2_bzCompressInit:                     # @BZ2_bzCompressInit
	.cfi_startproc
# %bb.0:
	pushq	%rbp
	.cfi_def_cfa_offset 16
	.cfi_offset %rbp, -16
	movq	%rsp, %rbp
	.cfi_def_cfa_register %rbp
	pushq	%r15
	pushq	%r14
	pushq	%r13
	pushq	%r12
	pushq	%rbx
	pushq	%rax
	.cfi_offset %rbx, -56
	.cfi_offset %r12, -48
	.cfi_offset %r13, -40
	.cfi_offset %r14, -32
	.cfi_offset %r15, -24
	movl	$-2, %r14d
	cmpl	$250, %ecx
	ja	.LBB54_18
# %bb.1:
	movq	%rdi, %rbx
	testq	%rdi, %rdi
	je	.LBB54_18
# %bb.2:
	movl	%esi, %r13d
	leal	-1(%r13), %eax
	cmpl	$8, %eax
	ja	.LBB54_18
# %bb.3:
	movl	%edx, %r12d
	testl	%ecx, %ecx
	movl	$30, %eax
	cmovnel	%ecx, %eax
	movl	%eax, -48(%rbp)                 # 4-byte Spill
	movq	56(%rbx), %rax
	testq	%rax, %rax
	je	.LBB54_4
# %bb.5:
	cmpq	$0, 64(%rbx)
	jne	.LBB54_7
.LBB54_6:
	movq	$default_bzfree, 64(%rbx)
.LBB54_7:
	movq	72(%rbx), %rdi
	movl	$55768, %esi                    # imm = 0xD9D8
	movl	$1, %edx
	callq	*%rax
	movl	$-3, %r14d
	testq	%rax, %rax
	je	.LBB54_18
# %bb.8:
	movq	%rax, %r15
	movl	%r12d, -44(%rbp)                # 4-byte Spill
	movq	%rbx, (%rax)
	xorps	%xmm0, %xmm0
	movups	%xmm0, 24(%rax)
	movq	$0, 40(%rax)
	movq	72(%rbx), %rdi
	imull	$400000, %r13d, %r12d           # imm = 0x61A80
	movl	%r12d, %esi
	movl	$1, %edx
	callq	*56(%rbx)
	movq	%rax, 24(%r15)
	movq	72(%rbx), %rdi
	addl	$136, %r12d
	movl	%r12d, %esi
	movl	$1, %edx
	callq	*56(%rbx)
	movq	%rax, 32(%r15)
	movq	72(%rbx), %rdi
	movl	$262148, %esi                   # imm = 0x40004
	movl	$1, %edx
	callq	*56(%rbx)
	movq	%rax, 40(%r15)
	movq	24(%r15), %rsi
	testq	%rsi, %rsi
	je	.LBB54_12
# %bb.9:
	testq	%rax, %rax
	je	.LBB54_11
# %bb.10:
	movq	32(%r15), %rax
	testq	%rax, %rax
	je	.LBB54_11
# %bb.17:
	imull	$100000, %r13d, %ecx            # imm = 0x186A0
	movl	$0, 660(%r15)
	movabsq	$8589934594, %rdx               # imm = 0x200000002
	movq	%rdx, 8(%r15)
	movl	$0, 652(%r15)
	movl	%r13d, 664(%r15)
	addl	$-19, %ecx
	movl	%ecx, 112(%r15)
	movl	-44(%rbp), %ecx                 # 4-byte Reload
	movl	%ecx, 656(%r15)
	movl	-48(%rbp), %ecx                 # 4-byte Reload
	movl	%ecx, 88(%r15)
	movq	%rax, 64(%r15)
	movq	%rsi, 72(%r15)
	movq	$0, 80(%r15)
	movq	%rsi, 56(%r15)
	movq	%r15, 48(%rbx)
	movq	$0, 12(%rbx)
	movq	$0, 36(%rbx)
	movq	%r15, %rdi
	callq	init_RL
	movq	%r15, %rdi
	callq	prepare_new_block
	xorl	%r14d, %r14d
	jmp	.LBB54_18
.LBB54_4:
	movq	$default_bzalloc, 56(%rbx)
	movl	$default_bzalloc, %eax
	cmpq	$0, 64(%rbx)
	jne	.LBB54_7
	jmp	.LBB54_6
.LBB54_11:
	movq	72(%rbx), %rdi
	callq	*64(%rbx)
.LBB54_12:                              # %.thread
	movq	32(%r15), %rsi
	testq	%rsi, %rsi
	je	.LBB54_14
# %bb.13:
	movq	72(%rbx), %rdi
	callq	*64(%rbx)
.LBB54_14:
	movq	40(%r15), %rsi
	testq	%rsi, %rsi
	je	.LBB54_16
# %bb.15:
	movq	72(%rbx), %rdi
	callq	*64(%rbx)
.LBB54_16:
	movq	72(%rbx), %rdi
	movq	%r15, %rsi
	callq	*64(%rbx)
.LBB54_18:
	movl	%r14d, %eax
	addq	$8, %rsp
	popq	%rbx
	popq	%r12
	popq	%r13
	popq	%r14
	popq	%r15
	popq	%rbp
	.cfi_def_cfa %rsp, 8
	retq
.Lfunc_end54:
	.size	BZ2_bzCompressInit, .Lfunc_end54-BZ2_bzCompressInit
	.cfi_endproc
                                        # -- End function
	.p2align	4, 0x90                         # -- Begin function default_bzalloc
	.type	default_bzalloc,@function
default_bzalloc:                        # @default_bzalloc
	.cfi_startproc
# %bb.0:
	pushq	%rbp
	.cfi_def_cfa_offset 16
	.cfi_offset %rbp, -16
	movq	%rsp, %rbp
	.cfi_def_cfa_register %rbp
	imull	%edx, %esi
	movslq	%esi, %rdi
	popq	%rbp
	.cfi_def_cfa %rsp, 8
	jmp	malloc                          # TAILCALL
.Lfunc_end55:
	.size	default_bzalloc, .Lfunc_end55-default_bzalloc
	.cfi_endproc
                                        # -- End function
	.p2align	4, 0x90                         # -- Begin function default_bzfree
	.type	default_bzfree,@function
default_bzfree:                         # @default_bzfree
	.cfi_startproc
# %bb.0:
	pushq	%rbp
	.cfi_def_cfa_offset 16
	.cfi_offset %rbp, -16
	movq	%rsp, %rbp
	.cfi_def_cfa_register %rbp
	testq	%rsi, %rsi
	je	.LBB56_1
# %bb.2:
	movq	%rsi, %rdi
	popq	%rbp
	.cfi_def_cfa %rsp, 8
	jmp	free                            # TAILCALL
.LBB56_1:
	.cfi_def_cfa %rbp, 16
	popq	%rbp
	.cfi_def_cfa %rsp, 8
	retq
.Lfunc_end56:
	.size	default_bzfree, .Lfunc_end56-default_bzfree
	.cfi_endproc
                                        # -- End function
	.p2align	4, 0x90                         # -- Begin function init_RL
	.type	init_RL,@function
init_RL:                                # @init_RL
	.cfi_startproc
# %bb.0:
	pushq	%rbp
	.cfi_def_cfa_offset 16
	.cfi_offset %rbp, -16
	movq	%rsp, %rbp
	.cfi_def_cfa_register %rbp
	movq	$256, 92(%rdi)                  # imm = 0x100
	popq	%rbp
	.cfi_def_cfa %rsp, 8
	retq
.Lfunc_end57:
	.size	init_RL, .Lfunc_end57-init_RL
	.cfi_endproc
                                        # -- End function
	.p2align	4, 0x90                         # -- Begin function prepare_new_block
	.type	prepare_new_block,@function
prepare_new_block:                      # @prepare_new_block
	.cfi_startproc
# %bb.0:
	pushq	%rbp
	.cfi_def_cfa_offset 16
	.cfi_offset %rbp, -16
	movq	%rsp, %rbp
	.cfi_def_cfa_register %rbp
	movl	$0, 108(%rdi)
	movq	$0, 116(%rdi)
	movl	$-1, 648(%rdi)
	xorps	%xmm0, %xmm0
	movups	%xmm0, 128(%rdi)
	movups	%xmm0, 144(%rdi)
	movups	%xmm0, 160(%rdi)
	movups	%xmm0, 176(%rdi)
	movups	%xmm0, 192(%rdi)
	movups	%xmm0, 208(%rdi)
	movups	%xmm0, 224(%rdi)
	movups	%xmm0, 240(%rdi)
	movups	%xmm0, 256(%rdi)
	movups	%xmm0, 272(%rdi)
	movups	%xmm0, 288(%rdi)
	movups	%xmm0, 304(%rdi)
	movups	%xmm0, 320(%rdi)
	movups	%xmm0, 336(%rdi)
	movups	%xmm0, 352(%rdi)
	movups	%xmm0, 368(%rdi)
	addl	$1, 660(%rdi)
	popq	%rbp
	.cfi_def_cfa %rsp, 8
	retq
.Lfunc_end58:
	.size	prepare_new_block, .Lfunc_end58-prepare_new_block
	.cfi_endproc
                                        # -- End function
	.globl	BZ2_bzCompress                  # -- Begin function BZ2_bzCompress
	.p2align	4, 0x90
	.type	BZ2_bzCompress,@function
BZ2_bzCompress:                         # @BZ2_bzCompress
	.cfi_startproc
# %bb.0:
	pushq	%rbp
	.cfi_def_cfa_offset 16
	.cfi_offset %rbp, -16
	movq	%rsp, %rbp
	.cfi_def_cfa_register %rbp
	pushq	%r14
	pushq	%rbx
	.cfi_offset %rbx, -32
	.cfi_offset %r14, -24
	movl	$-2, %r14d
	testq	%rdi, %rdi
	je	.LBB59_38
# %bb.1:
	movq	48(%rdi), %rbx
	testq	%rbx, %rbx
	je	.LBB59_38
# %bb.2:
	cmpq	%rdi, (%rbx)
	je	.LBB59_3
.LBB59_38:                              # %.loopexit
	movl	%r14d, %eax
	popq	%rbx
	popq	%r14
	popq	%rbp
	.cfi_def_cfa %rsp, 8
	retq
.LBB59_3:                               # %.preheader
	.cfi_def_cfa %rbp, 16
	testl	%esi, %esi
	je	.LBB59_16
# %bb.4:                                # %.preheader
	cmpl	$1, %esi
	je	.LBB59_20
# %bb.5:                                # %.preheader
	cmpl	$2, %esi
	jne	.LBB59_33
# %bb.6:                                # %.preheader.split.split.split.us.preheader
	movl	8(%rbx), %eax
	cmpl	$2, %eax
	jne	.LBB59_8
	.p2align	4, 0x90
.LBB59_32:                              # %.backedge.us58
                                        # =>This Inner Loop Header: Depth=1
	movl	8(%rdi), %eax
	movl	%eax, 16(%rbx)
	movl	$4, 8(%rbx)
	movl	$4, %eax
	cmpl	$2, %eax
	je	.LBB59_32
.LBB59_8:                               # %.preheader.split.split.split.us
	cmpl	$1, %eax
	je	.LBB59_23
# %bb.9:                                # %.preheader.split.split.split.us
	cmpl	$3, %eax
	je	.LBB59_10
# %bb.24:                               # %.preheader.split.split.us
	cmpl	$4, %eax
	jne	.LBB59_37
# %bb.25:                               # %.us-lcssa53.us
	movl	$-1, %r14d
	cmpl	$2, %esi
	jne	.LBB59_38
# %bb.26:
	movl	16(%rbx), %eax
	cmpl	8(%rdi), %eax
	jne	.LBB59_38
# %bb.27:
	callq	handle_compress
	testb	%al, %al
	je	.LBB59_38
# %bb.28:
	movl	$3, %r14d
	cmpl	$0, 16(%rbx)
	jne	.LBB59_38
# %bb.29:
	movq	%rbx, %rdi
	callq	isempty_RL
	testb	%al, %al
	je	.LBB59_38
# %bb.30:
	movl	120(%rbx), %eax
	cmpl	116(%rbx), %eax
	jl	.LBB59_38
# %bb.31:
	movl	$1, 8(%rbx)
	movl	$4, %r14d
	jmp	.LBB59_38
.LBB59_16:                              # %.preheader.split.us
	movl	8(%rbx), %eax
	movl	$-1, %r14d
	leal	-3(%rax), %ecx
	cmpl	$2, %ecx
	jb	.LBB59_38
# %bb.17:                               # %.preheader.split.us
	cmpl	$1, %eax
	je	.LBB59_38
# %bb.18:                               # %.preheader.split.us
	cmpl	$2, %eax
	jne	.LBB59_37
# %bb.19:                               # %.us-lcssa54.us
	callq	handle_compress
	xorl	%ecx, %ecx
	testb	%al, %al
	setne	%cl
	leal	(%rcx,%rcx,2), %r14d
	addl	$-2, %r14d
	jmp	.LBB59_38
.LBB59_20:                              # %.preheader.split.split.us.preheader
	movl	8(%rbx), %eax
	cmpl	$2, %eax
	jne	.LBB59_8
	.p2align	4, 0x90
.LBB59_22:                              # %.backedge.us55
                                        # =>This Inner Loop Header: Depth=1
	movl	8(%rdi), %eax
	movl	%eax, 16(%rbx)
	movl	$3, 8(%rbx)
	movl	$3, %eax
	cmpl	$2, %eax
	je	.LBB59_22
	jmp	.LBB59_8
.LBB59_33:                              # %.preheader.split.split.split
	movl	8(%rbx), %eax
	movl	$-1, %r14d
	leal	-3(%rax), %ecx
	cmpl	$2, %ecx
	jb	.LBB59_38
# %bb.34:                               # %.preheader.split.split.split
	cmpl	$1, %eax
	je	.LBB59_38
# %bb.35:                               # %.preheader.split.split.split
	cmpl	$2, %eax
	jne	.LBB59_37
# %bb.36:
	movl	$-2, %r14d
	jmp	.LBB59_38
.LBB59_37:                              # %.loopexit48
	xorl	%r14d, %r14d
	jmp	.LBB59_38
.LBB59_23:                              # %.loopexit.loopexit2
	movl	$-1, %r14d
	jmp	.LBB59_38
.LBB59_10:                              # %.us-lcssa.us
	movl	$-1, %r14d
	cmpl	$1, %esi
	jne	.LBB59_38
# %bb.11:
	movl	16(%rbx), %eax
	cmpl	8(%rdi), %eax
	jne	.LBB59_38
# %bb.12:
	callq	handle_compress
	movl	$2, %r14d
	cmpl	$0, 16(%rbx)
	jne	.LBB59_38
# %bb.13:
	movq	%rbx, %rdi
	callq	isempty_RL
	testb	%al, %al
	je	.LBB59_38
# %bb.14:
	movl	120(%rbx), %eax
	cmpl	116(%rbx), %eax
	jl	.LBB59_38
# %bb.15:
	movl	$2, 8(%rbx)
	movl	$1, %r14d
	jmp	.LBB59_38
.Lfunc_end59:
	.size	BZ2_bzCompress, .Lfunc_end59-BZ2_bzCompress
	.cfi_endproc
                                        # -- End function
	.p2align	4, 0x90                         # -- Begin function handle_compress
	.type	handle_compress,@function
handle_compress:                        # @handle_compress
	.cfi_startproc
# %bb.0:
	pushq	%rbp
	.cfi_def_cfa_offset 16
	.cfi_offset %rbp, -16
	movq	%rsp, %rbp
	.cfi_def_cfa_register %rbp
	pushq	%r15
	pushq	%r14
	pushq	%r12
	pushq	%rbx
	.cfi_offset %rbx, -48
	.cfi_offset %r12, -40
	.cfi_offset %r14, -32
	.cfi_offset %r15, -24
	movq	48(%rdi), %rbx
	xorl	%r12d, %r12d
	xorl	%r15d, %r15d
	jmp	.LBB60_1
	.p2align	4, 0x90
.LBB60_17:                              #   in Loop: Header=BB60_1 Depth=1
	movq	(%rbx), %rax
	cmpl	$0, 8(%rax)
	movl	%r14d, %r12d
	je	.LBB60_18
.LBB60_1:                               # =>This Inner Loop Header: Depth=1
	movl	12(%rbx), %eax
	cmpl	$2, %eax
	je	.LBB60_2
# %bb.3:                                #   in Loop: Header=BB60_1 Depth=1
	cmpl	$1, %eax
	jne	.LBB60_1
# %bb.4:                                #   in Loop: Header=BB60_1 Depth=1
	movq	%rbx, %rdi
	callq	copy_output_until_stop
	movl	%eax, %r14d
	orb	%r12b, %r14b
	movl	120(%rbx), %eax
	cmpl	116(%rbx), %eax
	jl	.LBB60_18
# %bb.5:                                #   in Loop: Header=BB60_1 Depth=1
	cmpl	$4, 8(%rbx)
	jne	.LBB60_8
# %bb.6:                                #   in Loop: Header=BB60_1 Depth=1
	cmpl	$0, 16(%rbx)
	jne	.LBB60_8
# %bb.7:                                #   in Loop: Header=BB60_1 Depth=1
	movq	%rbx, %rdi
	callq	isempty_RL
	testb	%al, %al
	jne	.LBB60_18
	.p2align	4, 0x90
.LBB60_8:                               #   in Loop: Header=BB60_1 Depth=1
	movq	%rbx, %rdi
	callq	prepare_new_block
	movl	$2, 12(%rbx)
	cmpl	$3, 8(%rbx)
	jne	.LBB60_11
# %bb.9:                                #   in Loop: Header=BB60_1 Depth=1
	cmpl	$0, 16(%rbx)
	jne	.LBB60_11
# %bb.10:                               #   in Loop: Header=BB60_1 Depth=1
	movq	%rbx, %rdi
	callq	isempty_RL
	testb	%al, %al
	je	.LBB60_11
	jmp	.LBB60_18
	.p2align	4, 0x90
.LBB60_2:                               #   in Loop: Header=BB60_1 Depth=1
	movl	%r12d, %r14d
.LBB60_11:                              # %.thread
                                        #   in Loop: Header=BB60_1 Depth=1
	movq	%rbx, %rdi
	callq	copy_input_until_stop
	orb	%al, %r15b
	cmpl	$2, 8(%rbx)
	je	.LBB60_14
# %bb.12:                               #   in Loop: Header=BB60_1 Depth=1
	cmpl	$0, 16(%rbx)
	je	.LBB60_13
.LBB60_14:                              #   in Loop: Header=BB60_1 Depth=1
	movl	108(%rbx), %eax
	cmpl	112(%rbx), %eax
	jl	.LBB60_17
# %bb.15:                               #   in Loop: Header=BB60_1 Depth=1
	movq	%rbx, %rdi
	xorl	%esi, %esi
	jmp	.LBB60_16
.LBB60_13:                              #   in Loop: Header=BB60_1 Depth=1
	movq	%rbx, %rdi
	callq	flush_RL
	xorl	%esi, %esi
	cmpl	$4, 8(%rbx)
	sete	%sil
	movq	%rbx, %rdi
.LBB60_16:                              #   in Loop: Header=BB60_1 Depth=1
	callq	BZ2_compressBlock
	movl	$1, 12(%rbx)
	movl	%r14d, %r12d
	jmp	.LBB60_1
.LBB60_18:
	orb	%r15b, %r14b
	setne	%al
	popq	%rbx
	popq	%r12
	popq	%r14
	popq	%r15
	popq	%rbp
	.cfi_def_cfa %rsp, 8
	retq
.Lfunc_end60:
	.size	handle_compress, .Lfunc_end60-handle_compress
	.cfi_endproc
                                        # -- End function
	.p2align	4, 0x90                         # -- Begin function isempty_RL
	.type	isempty_RL,@function
isempty_RL:                             # @isempty_RL
	.cfi_startproc
# %bb.0:
	pushq	%rbp
	.cfi_def_cfa_offset 16
	.cfi_offset %rbp, -16
	movq	%rsp, %rbp
	.cfi_def_cfa_register %rbp
	cmpl	$255, 92(%rdi)
	ja	.LBB61_3
# %bb.1:
	cmpl	$0, 96(%rdi)
	jle	.LBB61_3
# %bb.2:
	xorl	%eax, %eax
                                        # kill: def $al killed $al killed $eax
	popq	%rbp
	.cfi_def_cfa %rsp, 8
	retq
.LBB61_3:
	.cfi_def_cfa %rbp, 16
	movb	$1, %al
                                        # kill: def $al killed $al killed $eax
	popq	%rbp
	.cfi_def_cfa %rsp, 8
	retq
.Lfunc_end61:
	.size	isempty_RL, .Lfunc_end61-isempty_RL
	.cfi_endproc
                                        # -- End function
	.p2align	4, 0x90                         # -- Begin function copy_output_until_stop
	.type	copy_output_until_stop,@function
copy_output_until_stop:                 # @copy_output_until_stop
	.cfi_startproc
# %bb.0:
	pushq	%rbp
	.cfi_def_cfa_offset 16
	.cfi_offset %rbp, -16
	movq	%rsp, %rbp
	.cfi_def_cfa_register %rbp
	movq	(%rdi), %rcx
	cmpl	$0, 32(%rcx)
	je	.LBB62_8
# %bb.1:                                # %.lr.ph
	movl	120(%rdi), %edx
	cmpl	116(%rdi), %edx
	jge	.LBB62_8
	.p2align	4, 0x90
.LBB62_2:                               # %.lr.ph17
                                        # =>This Inner Loop Header: Depth=1
	movq	80(%rdi), %rax
	movslq	%edx, %rdx
	movzbl	(%rax,%rdx), %eax
	movq	24(%rcx), %rcx
	movb	%al, (%rcx)
	addl	$1, 120(%rdi)
	movq	(%rdi), %rax
	addl	$-1, 32(%rax)
	movq	(%rdi), %rax
	addq	$1, 24(%rax)
	movq	(%rdi), %rax
	addl	$1, 36(%rax)
	movq	(%rdi), %rcx
	cmpl	$0, 36(%rcx)
	jne	.LBB62_4
# %bb.3:                                #   in Loop: Header=BB62_2 Depth=1
	addl	$1, 40(%rcx)
	movq	(%rdi), %rcx
.LBB62_4:                               #   in Loop: Header=BB62_2 Depth=1
	movb	$1, %al
	cmpl	$0, 32(%rcx)
	je	.LBB62_6
# %bb.5:                                #   in Loop: Header=BB62_2 Depth=1
	movl	120(%rdi), %edx
	cmpl	116(%rdi), %edx
	jl	.LBB62_2
.LBB62_6:                               # %._crit_edge
                                        # kill: def $al killed $al killed $eax
	popq	%rbp
	.cfi_def_cfa %rsp, 8
	retq
.LBB62_8:
	.cfi_def_cfa %rbp, 16
	xorl	%eax, %eax
                                        # kill: def $al killed $al killed $eax
	popq	%rbp
	.cfi_def_cfa %rsp, 8
	retq
.Lfunc_end62:
	.size	copy_output_until_stop, .Lfunc_end62-copy_output_until_stop
	.cfi_endproc
                                        # -- End function
	.p2align	4, 0x90                         # -- Begin function copy_input_until_stop
	.type	copy_input_until_stop,@function
copy_input_until_stop:                  # @copy_input_until_stop
	.cfi_startproc
# %bb.0:
	pushq	%rbp
	.cfi_def_cfa_offset 16
	.cfi_offset %rbp, -16
	movq	%rsp, %rbp
	.cfi_def_cfa_register %rbp
	pushq	%r14
	pushq	%rbx
	.cfi_offset %rbx, -32
	.cfi_offset %r14, -24
	movq	%rdi, %rbx
	cmpl	$2, 8(%rdi)
	jne	.LBB63_16
# %bb.1:
	movl	108(%rbx), %ecx
	cmpl	112(%rbx), %ecx
	jge	.LBB63_32
# %bb.2:                                # %.lr.ph
	movq	(%rbx), %rdx
	cmpl	$0, 8(%rdx)
	je	.LBB63_32
	.p2align	4, 0x90
.LBB63_3:                               # %.lr.ph103
                                        # =>This Inner Loop Header: Depth=1
	movq	(%rdx), %rax
	movzbl	(%rax), %r14d
	movl	92(%rbx), %eax
	cmpl	%r14d, %eax
	jne	.LBB63_6
# %bb.4:                                #   in Loop: Header=BB63_3 Depth=1
	movl	96(%rbx), %ecx
	cmpl	$255, %ecx
	je	.LBB63_8
# %bb.5:                                #   in Loop: Header=BB63_3 Depth=1
	addl	$1, %ecx
	movl	%ecx, 96(%rbx)
	jmp	.LBB63_11
	.p2align	4, 0x90
.LBB63_6:                               #   in Loop: Header=BB63_3 Depth=1
	cmpl	$1, 96(%rbx)
	jne	.LBB63_8
# %bb.7:                                #   in Loop: Header=BB63_3 Depth=1
	movl	648(%rbx), %edx
	movl	%edx, %esi
	shll	$8, %esi
	shrl	$24, %edx
	movzbl	%al, %edi
	xorl	%edx, %edi
	xorl	BZ2_crc32Table(,%rdi,4), %esi
	movl	%esi, 648(%rbx)
	movb	$1, 128(%rbx,%rax)
	movq	64(%rbx), %rdx
	movslq	%ecx, %rcx
	movb	%al, (%rdx,%rcx)
	addl	$1, 108(%rbx)
	movl	%r14d, 92(%rbx)
	jmp	.LBB63_11
	.p2align	4, 0x90
.LBB63_8:                               #   in Loop: Header=BB63_3 Depth=1
	cmpl	$255, %eax
	ja	.LBB63_10
# %bb.9:                                #   in Loop: Header=BB63_3 Depth=1
	movq	%rbx, %rdi
	callq	add_pair_to_block
.LBB63_10:                              #   in Loop: Header=BB63_3 Depth=1
	movl	%r14d, 92(%rbx)
	movl	$1, 96(%rbx)
.LBB63_11:                              #   in Loop: Header=BB63_3 Depth=1
	movq	(%rbx), %rax
	addq	$1, (%rax)
	movq	(%rbx), %rax
	addl	$-1, 8(%rax)
	movq	(%rbx), %rax
	addl	$1, 12(%rax)
	movq	(%rbx), %rax
	cmpl	$0, 12(%rax)
	jne	.LBB63_13
# %bb.12:                               #   in Loop: Header=BB63_3 Depth=1
	addl	$1, 16(%rax)
.LBB63_13:                              #   in Loop: Header=BB63_3 Depth=1
	movl	108(%rbx), %ecx
	movb	$1, %al
	cmpl	112(%rbx), %ecx
	jge	.LBB63_15
# %bb.14:                               #   in Loop: Header=BB63_3 Depth=1
	movq	(%rbx), %rdx
	cmpl	$0, 8(%rdx)
	jne	.LBB63_3
.LBB63_15:                              # %.loopexit
                                        # kill: def $al killed $al killed $eax
	popq	%rbx
	popq	%r14
	popq	%rbp
	.cfi_def_cfa %rsp, 8
	retq
.LBB63_16:
	.cfi_def_cfa %rbp, 16
	movl	108(%rbx), %ecx
	cmpl	112(%rbx), %ecx
	jge	.LBB63_32
# %bb.17:                               # %.lr.ph91
	movq	(%rbx), %rdx
	cmpl	$0, 8(%rdx)
	je	.LBB63_32
# %bb.18:                               # %.lr.ph107.preheader
	cmpl	$0, 16(%rbx)
	je	.LBB63_32
	.p2align	4, 0x90
.LBB63_19:                              # %.lr.ph114
                                        # =>This Inner Loop Header: Depth=1
	movq	(%rdx), %rax
	movzbl	(%rax), %r14d
	movl	92(%rbx), %eax
	cmpl	%r14d, %eax
	jne	.LBB63_22
# %bb.20:                               #   in Loop: Header=BB63_19 Depth=1
	movl	96(%rbx), %ecx
	cmpl	$255, %ecx
	je	.LBB63_24
# %bb.21:                               #   in Loop: Header=BB63_19 Depth=1
	addl	$1, %ecx
	movl	%ecx, 96(%rbx)
	jmp	.LBB63_27
	.p2align	4, 0x90
.LBB63_22:                              #   in Loop: Header=BB63_19 Depth=1
	cmpl	$1, 96(%rbx)
	jne	.LBB63_24
# %bb.23:                               #   in Loop: Header=BB63_19 Depth=1
	movl	648(%rbx), %edx
	movl	%edx, %esi
	shll	$8, %esi
	shrl	$24, %edx
	movzbl	%al, %edi
	xorl	%edx, %edi
	xorl	BZ2_crc32Table(,%rdi,4), %esi
	movl	%esi, 648(%rbx)
	movb	$1, 128(%rbx,%rax)
	movq	64(%rbx), %rdx
	movslq	%ecx, %rcx
	movb	%al, (%rdx,%rcx)
	addl	$1, 108(%rbx)
	movl	%r14d, 92(%rbx)
	jmp	.LBB63_27
	.p2align	4, 0x90
.LBB63_24:                              #   in Loop: Header=BB63_19 Depth=1
	cmpl	$255, %eax
	ja	.LBB63_26
# %bb.25:                               #   in Loop: Header=BB63_19 Depth=1
	movq	%rbx, %rdi
	callq	add_pair_to_block
.LBB63_26:                              #   in Loop: Header=BB63_19 Depth=1
	movl	%r14d, 92(%rbx)
	movl	$1, 96(%rbx)
.LBB63_27:                              #   in Loop: Header=BB63_19 Depth=1
	movq	(%rbx), %rax
	addq	$1, (%rax)
	movq	(%rbx), %rax
	addl	$-1, 8(%rax)
	movq	(%rbx), %rax
	addl	$1, 12(%rax)
	movq	(%rbx), %rax
	cmpl	$0, 12(%rax)
	jne	.LBB63_29
# %bb.28:                               #   in Loop: Header=BB63_19 Depth=1
	addl	$1, 16(%rax)
.LBB63_29:                              #   in Loop: Header=BB63_19 Depth=1
	movl	16(%rbx), %edx
	movl	108(%rbx), %ecx
	addl	$-1, %edx
	movl	%edx, 16(%rbx)
	movb	$1, %al
	cmpl	112(%rbx), %ecx
	jge	.LBB63_15
# %bb.30:                               #   in Loop: Header=BB63_19 Depth=1
	testl	%edx, %edx
	je	.LBB63_15
# %bb.31:                               #   in Loop: Header=BB63_19 Depth=1
	movq	(%rbx), %rdx
	cmpl	$0, 8(%rdx)
	jne	.LBB63_19
	jmp	.LBB63_15
.LBB63_32:
	xorl	%eax, %eax
                                        # kill: def $al killed $al killed $eax
	popq	%rbx
	popq	%r14
	popq	%rbp
	.cfi_def_cfa %rsp, 8
	retq
.Lfunc_end63:
	.size	copy_input_until_stop, .Lfunc_end63-copy_input_until_stop
	.cfi_endproc
                                        # -- End function
	.p2align	4, 0x90                         # -- Begin function flush_RL
	.type	flush_RL,@function
flush_RL:                               # @flush_RL
	.cfi_startproc
# %bb.0:
	pushq	%rbp
	.cfi_def_cfa_offset 16
	.cfi_offset %rbp, -16
	movq	%rsp, %rbp
	.cfi_def_cfa_register %rbp
	pushq	%rbx
	pushq	%rax
	.cfi_offset %rbx, -24
	movq	%rdi, %rbx
	cmpl	$255, 92(%rdi)
	ja	.LBB64_2
# %bb.1:
	movq	%rbx, %rdi
	callq	add_pair_to_block
.LBB64_2:
	movq	%rbx, %rdi
	addq	$8, %rsp
	popq	%rbx
	popq	%rbp
	.cfi_def_cfa %rsp, 8
	jmp	init_RL                         # TAILCALL
.Lfunc_end64:
	.size	flush_RL, .Lfunc_end64-flush_RL
	.cfi_endproc
                                        # -- End function
	.p2align	4, 0x90                         # -- Begin function add_pair_to_block
	.type	add_pair_to_block,@function
add_pair_to_block:                      # @add_pair_to_block
	.cfi_startproc
# %bb.0:
	pushq	%rbp
	.cfi_def_cfa_offset 16
	.cfi_offset %rbp, -16
	movq	%rsp, %rbp
	.cfi_def_cfa_register %rbp
	movl	92(%rdi), %r8d
	movslq	96(%rdi), %r10
	testq	%r10, %r10
	jle	.LBB65_9
# %bb.1:                                # %.lr.ph
	movzbl	%r8b, %edx
	cmpl	$1, %r10d
	jne	.LBB65_3
# %bb.2:                                # %.lr.ph..epil.preheader_crit_edge
	movl	648(%rdi), %ecx
	jmp	.LBB65_8
.LBB65_3:                               # %.lr.ph.new
	movl	%r10d, %eax
	andl	$-2, %eax
	movl	648(%rdi), %ecx
	leal	-2(%rax), %r9d
	testb	$2, %r9b
	jne	.LBB65_5
# %bb.4:                                # %.prol.preheader
	movl	%ecx, %eax
	shll	$8, %eax
	shrl	$24, %ecx
	xorl	%edx, %ecx
	xorl	BZ2_crc32Table(,%rcx,4), %eax
	movl	%eax, 648(%rdi)
	movl	%eax, %ecx
	shll	$8, %ecx
	shrl	$24, %eax
	xorl	%edx, %eax
	xorl	BZ2_crc32Table(,%rax,4), %ecx
	movl	%ecx, 648(%rdi)
	movl	%r9d, %eax
.LBB65_5:                               # %.prol.loopexit
	testl	%r9d, %r9d
	je	.LBB65_7
	.p2align	4, 0x90
.LBB65_6:                               # %.lr.ph.new.new
                                        # =>This Inner Loop Header: Depth=1
	movl	%ecx, %esi
	shll	$8, %esi
	shrl	$24, %ecx
	xorl	%edx, %ecx
	xorl	BZ2_crc32Table(,%rcx,4), %esi
	movl	%esi, 648(%rdi)
	movl	%esi, %ecx
	shll	$8, %ecx
	shrl	$24, %esi
	xorl	%edx, %esi
	xorl	BZ2_crc32Table(,%rsi,4), %ecx
	movl	%ecx, 648(%rdi)
	movl	%ecx, %esi
	shll	$8, %esi
	shrl	$24, %ecx
	xorl	%edx, %ecx
	xorl	BZ2_crc32Table(,%rcx,4), %esi
	movl	%esi, 648(%rdi)
	movl	%esi, %ecx
	shll	$8, %ecx
	shrl	$24, %esi
	xorl	%edx, %esi
	xorl	BZ2_crc32Table(,%rsi,4), %ecx
	movl	%ecx, 648(%rdi)
	addl	$-4, %eax
	jne	.LBB65_6
.LBB65_7:                               # %._crit_edge.loopexit.unr-lcssa
	testb	$1, %r10b
	je	.LBB65_9
.LBB65_8:                               # %.epil.preheader
	movl	%ecx, %eax
	shll	$8, %eax
	shrl	$24, %ecx
	xorl	%edx, %ecx
	xorl	BZ2_crc32Table(,%rcx,4), %eax
	movl	%eax, 648(%rdi)
.LBB65_9:                               # %._crit_edge
	movb	$1, 128(%rdi,%r8)
	cmpl	$3, %r10d
	je	.LBB65_15
# %bb.10:                               # %._crit_edge
	cmpl	$2, %r10d
	je	.LBB65_13
# %bb.11:                               # %._crit_edge
	cmpl	$1, %r10d
	jne	.LBB65_16
# %bb.12:
	movq	64(%rdi), %rax
	movslq	108(%rdi), %rcx
	movb	%r8b, (%rax,%rcx)
	addl	$1, 108(%rdi)
	popq	%rbp
	.cfi_def_cfa %rsp, 8
	retq
.LBB65_15:
	.cfi_def_cfa %rbp, 16
	movq	64(%rdi), %rax
	movslq	108(%rdi), %rcx
	movb	%r8b, (%rax,%rcx)
	movslq	108(%rdi), %rax
	leaq	1(%rax), %rcx
	movl	%ecx, 108(%rdi)
	movq	64(%rdi), %rcx
	movb	%r8b, 1(%rcx,%rax)
	jmp	.LBB65_14
.LBB65_13:
	movq	64(%rdi), %rax
	movslq	108(%rdi), %rcx
	movb	%r8b, (%rax,%rcx)
.LBB65_14:
	movslq	108(%rdi), %rax
	leaq	1(%rax), %rcx
	movl	%ecx, 108(%rdi)
	movq	64(%rdi), %rcx
	movb	%r8b, 1(%rcx,%rax)
	addl	$1, 108(%rdi)
	popq	%rbp
	.cfi_def_cfa %rsp, 8
	retq
.LBB65_16:
	.cfi_def_cfa %rbp, 16
	movb	$1, 124(%r10,%rdi)
	movq	64(%rdi), %rax
	movslq	108(%rdi), %rcx
	movb	%r8b, (%rax,%rcx)
	movslq	108(%rdi), %rax
	leaq	1(%rax), %rcx
	movl	%ecx, 108(%rdi)
	movq	64(%rdi), %rcx
	movb	%r8b, 1(%rcx,%rax)
	movslq	108(%rdi), %rax
	leaq	1(%rax), %rcx
	movl	%ecx, 108(%rdi)
	movq	64(%rdi), %rcx
	movb	%r8b, 1(%rcx,%rax)
	movslq	108(%rdi), %rax
	leaq	1(%rax), %rcx
	movl	%ecx, 108(%rdi)
	movq	64(%rdi), %rcx
	movb	%r8b, 1(%rcx,%rax)
	movslq	108(%rdi), %rax
	leaq	1(%rax), %rcx
	movl	%ecx, 108(%rdi)
	movb	96(%rdi), %cl
	addb	$-4, %cl
	movq	64(%rdi), %rdx
	movb	%cl, 1(%rdx,%rax)
	addl	$1, 108(%rdi)
	popq	%rbp
	.cfi_def_cfa %rsp, 8
	retq
.Lfunc_end65:
	.size	add_pair_to_block, .Lfunc_end65-add_pair_to_block
	.cfi_endproc
                                        # -- End function
	.globl	BZ2_bzCompressEnd               # -- Begin function BZ2_bzCompressEnd
	.p2align	4, 0x90
	.type	BZ2_bzCompressEnd,@function
BZ2_bzCompressEnd:                      # @BZ2_bzCompressEnd
	.cfi_startproc
# %bb.0:
	pushq	%rbp
	.cfi_def_cfa_offset 16
	.cfi_offset %rbp, -16
	movq	%rsp, %rbp
	.cfi_def_cfa_register %rbp
	pushq	%r14
	pushq	%rbx
	.cfi_offset %rbx, -32
	.cfi_offset %r14, -24
	movl	$-2, %eax
	testq	%rdi, %rdi
	je	.LBB66_10
# %bb.1:
	movq	%rdi, %rbx
	movq	48(%rdi), %r14
	testq	%r14, %r14
	je	.LBB66_10
# %bb.2:
	cmpq	%rbx, (%r14)
	je	.LBB66_3
.LBB66_10:
	popq	%rbx
	popq	%r14
	popq	%rbp
	.cfi_def_cfa %rsp, 8
	retq
.LBB66_3:
	.cfi_def_cfa %rbp, 16
	movq	24(%r14), %rsi
	testq	%rsi, %rsi
	je	.LBB66_5
# %bb.4:
	movq	72(%rbx), %rdi
	callq	*64(%rbx)
.LBB66_5:
	movq	32(%r14), %rsi
	testq	%rsi, %rsi
	je	.LBB66_7
# %bb.6:
	movq	72(%rbx), %rdi
	callq	*64(%rbx)
.LBB66_7:
	movq	40(%r14), %rsi
	testq	%rsi, %rsi
	je	.LBB66_9
# %bb.8:
	movq	72(%rbx), %rdi
	callq	*64(%rbx)
.LBB66_9:
	movq	48(%rbx), %rsi
	movq	72(%rbx), %rdi
	callq	*64(%rbx)
	movq	$0, 48(%rbx)
	xorl	%eax, %eax
	popq	%rbx
	popq	%r14
	popq	%rbp
	.cfi_def_cfa %rsp, 8
	retq
.Lfunc_end66:
	.size	BZ2_bzCompressEnd, .Lfunc_end66-BZ2_bzCompressEnd
	.cfi_endproc
                                        # -- End function
	.globl	BZ2_bzDecompressInit            # -- Begin function BZ2_bzDecompressInit
	.p2align	4, 0x90
	.type	BZ2_bzDecompressInit,@function
BZ2_bzDecompressInit:                   # @BZ2_bzDecompressInit
	.cfi_startproc
# %bb.0:
	pushq	%rbp
	.cfi_def_cfa_offset 16
	.cfi_offset %rbp, -16
	movq	%rsp, %rbp
	.cfi_def_cfa_register %rbp
	pushq	%r15
	pushq	%r14
	pushq	%rbx
	pushq	%rax
	.cfi_offset %rbx, -40
	.cfi_offset %r14, -32
	.cfi_offset %r15, -24
	movl	$-2, %eax
	cmpl	$4, %esi
	ja	.LBB67_10
# %bb.1:
	movq	%rdi, %rbx
	testq	%rdi, %rdi
	je	.LBB67_10
# %bb.2:
	movl	%edx, %r14d
	cmpl	$1, %edx
	ja	.LBB67_10
# %bb.3:
	movl	%esi, %r15d
	movq	56(%rbx), %rax
	testq	%rax, %rax
	je	.LBB67_4
# %bb.5:
	cmpq	$0, 64(%rbx)
	je	.LBB67_6
.LBB67_7:
	movq	72(%rbx), %rdi
	movl	$64144, %esi                    # imm = 0xFA90
	movl	$1, %edx
	callq	*%rax
	testq	%rax, %rax
	je	.LBB67_8
# %bb.9:
	movq	%rbx, (%rax)
	movq	%rax, 48(%rbx)
	movl	$10, 8(%rax)
	movq	$0, 32(%rax)
	movl	$0, 3188(%rax)
	movq	$0, 12(%rbx)
	movq	$0, 36(%rbx)
	movb	%r14b, 44(%rax)
	movl	$0, 48(%rax)
	xorps	%xmm0, %xmm0
	movups	%xmm0, 3152(%rax)
	movq	$0, 3168(%rax)
	movl	%r15d, 52(%rax)
	xorl	%eax, %eax
	jmp	.LBB67_10
.LBB67_4:
	movq	$default_bzalloc, 56(%rbx)
	movl	$default_bzalloc, %eax
	cmpq	$0, 64(%rbx)
	jne	.LBB67_7
.LBB67_6:
	movq	$default_bzfree, 64(%rbx)
	jmp	.LBB67_7
.LBB67_8:
	movl	$-3, %eax
.LBB67_10:
	addq	$8, %rsp
	popq	%rbx
	popq	%r14
	popq	%r15
	popq	%rbp
	.cfi_def_cfa %rsp, 8
	retq
.Lfunc_end67:
	.size	BZ2_bzDecompressInit, .Lfunc_end67-BZ2_bzDecompressInit
	.cfi_endproc
                                        # -- End function
	.globl	BZ2_indexIntoF                  # -- Begin function BZ2_indexIntoF
	.p2align	4, 0x90
	.type	BZ2_indexIntoF,@function
BZ2_indexIntoF:                         # @BZ2_indexIntoF
	.cfi_startproc
# %bb.0:
	pushq	%rbp
	.cfi_def_cfa_offset 16
	.cfi_offset %rbp, -16
	movq	%rsp, %rbp
	.cfi_def_cfa_register %rbp
	xorl	%eax, %eax
	movl	$256, %r8d                      # imm = 0x100
	jmp	.LBB68_1
	.p2align	4, 0x90
.LBB68_3:                               #   in Loop: Header=BB68_1 Depth=1
	movl	%edx, %eax
	movl	%r8d, %ecx
	subl	%eax, %ecx
	cmpl	$1, %ecx
	je	.LBB68_5
.LBB68_1:                               # =>This Inner Loop Header: Depth=1
	leal	(%rax,%r8), %edx
	sarl	%edx
	movslq	%edx, %rcx
	cmpl	%edi, (%rsi,%rcx,4)
	jle	.LBB68_3
# %bb.2:                                #   in Loop: Header=BB68_1 Depth=1
	movl	%edx, %r8d
	movl	%r8d, %ecx
	subl	%eax, %ecx
	cmpl	$1, %ecx
	jne	.LBB68_1
.LBB68_5:
                                        # kill: def $eax killed $eax killed $rax
	popq	%rbp
	.cfi_def_cfa %rsp, 8
	retq
.Lfunc_end68:
	.size	BZ2_indexIntoF, .Lfunc_end68-BZ2_indexIntoF
	.cfi_endproc
                                        # -- End function
	.globl	BZ2_bzDecompress                # -- Begin function BZ2_bzDecompress
	.p2align	4, 0x90
	.type	BZ2_bzDecompress,@function
BZ2_bzDecompress:                       # @BZ2_bzDecompress
	.cfi_startproc
# %bb.0:
	pushq	%rbp
	.cfi_def_cfa_offset 16
	.cfi_offset %rbp, -16
	movq	%rsp, %rbp
	.cfi_def_cfa_register %rbp
	pushq	%rbx
	pushq	%rax
	.cfi_offset %rbx, -24
	movl	$-2, %eax
	testq	%rdi, %rdi
	je	.LBB69_25
# %bb.1:
	movq	48(%rdi), %rbx
	testq	%rbx, %rbx
	je	.LBB69_25
# %bb.2:
	cmpq	%rdi, (%rbx)
	je	.LBB69_3
.LBB69_25:                              # %.loopexit
	addq	$8, %rsp
	popq	%rbx
	popq	%rbp
	.cfi_def_cfa %rsp, 8
	retq
.LBB69_3:                               # %.preheader
	.cfi_def_cfa %rbp, 16
	movl	8(%rbx), %ecx
	.p2align	4, 0x90
.LBB69_4:                               # =>This Inner Loop Header: Depth=1
	cmpl	$2, %ecx
	je	.LBB69_7
# %bb.5:                                #   in Loop: Header=BB69_4 Depth=1
	cmpl	$1, %ecx
	je	.LBB69_6
# %bb.19:                               #   in Loop: Header=BB69_4 Depth=1
	cmpl	$10, %ecx
	jl	.LBB69_4
	jmp	.LBB69_20
	.p2align	4, 0x90
.LBB69_7:                               #   in Loop: Header=BB69_4 Depth=1
	cmpb	$0, 44(%rbx)
	je	.LBB69_9
# %bb.8:                                #   in Loop: Header=BB69_4 Depth=1
	movq	%rbx, %rdi
	callq	unRLE_obuf_to_output_SMALL
	movl	%eax, %ecx
	movl	$-4, %eax
	testb	%cl, %cl
	je	.LBB69_11
	jmp	.LBB69_25
.LBB69_9:                               #   in Loop: Header=BB69_4 Depth=1
	movq	%rbx, %rdi
	callq	unRLE_obuf_to_output_FAST
	movl	%eax, %ecx
	movl	$-4, %eax
	testb	%cl, %cl
	jne	.LBB69_25
.LBB69_11:                              #   in Loop: Header=BB69_4 Depth=1
	movl	64080(%rbx), %ecx
	addl	$1, %ecx
	xorl	%eax, %eax
	cmpl	%ecx, 1092(%rbx)
	jne	.LBB69_25
# %bb.12:                               #   in Loop: Header=BB69_4 Depth=1
	cmpl	$0, 16(%rbx)
	jne	.LBB69_25
# %bb.13:                               #   in Loop: Header=BB69_4 Depth=1
	movl	3184(%rbx), %ecx
	notl	%ecx
	movl	%ecx, 3184(%rbx)
	movl	52(%rbx), %eax
	cmpl	$3, %eax
	jge	.LBB69_14
# %bb.15:                               #   in Loop: Header=BB69_4 Depth=1
	cmpl	$2, %eax
	jge	.LBB69_16
.LBB69_17:                              #   in Loop: Header=BB69_4 Depth=1
	movl	3184(%rbx), %ecx
	movl	$-4, %eax
	cmpl	3176(%rbx), %ecx
	je	.LBB69_18
	jmp	.LBB69_25
.LBB69_14:                              #   in Loop: Header=BB69_4 Depth=1
	movq	stderr(%rip), %rdi
	movl	3176(%rbx), %edx
	movl	$.L.str.2.108, %esi
	xorl	%eax, %eax
	callq	fprintf
	movl	52(%rbx), %eax
	cmpl	$2, %eax
	jl	.LBB69_17
	.p2align	4, 0x90
.LBB69_16:                              #   in Loop: Header=BB69_4 Depth=1
	movq	stderr(%rip), %rsi
	movl	$93, %edi
	callq	fputc@PLT
	movl	3184(%rbx), %ecx
	movl	$-4, %eax
	cmpl	3176(%rbx), %ecx
	jne	.LBB69_25
.LBB69_18:                              # %.thread
                                        #   in Loop: Header=BB69_4 Depth=1
	movl	3188(%rbx), %eax
	roll	%eax
	xorl	%ecx, %eax
	movl	%eax, 3188(%rbx)
	movl	$14, 8(%rbx)
.LBB69_20:                              #   in Loop: Header=BB69_4 Depth=1
	movq	%rbx, %rdi
	callq	BZ2_decompress
	cmpl	$4, %eax
	je	.LBB69_21
# %bb.24:                               #   in Loop: Header=BB69_4 Depth=1
	movl	$2, %ecx
	cmpl	$2, 8(%rbx)
	je	.LBB69_4
	jmp	.LBB69_25
.LBB69_21:
	cmpl	$3, 52(%rbx)
	jge	.LBB69_22
.LBB69_23:
	movl	3188(%rbx), %eax
	xorl	%ecx, %ecx
	cmpl	3180(%rbx), %eax
	sete	%cl
	leal	-4(,%rcx,8), %eax
	addq	$8, %rsp
	popq	%rbx
	popq	%rbp
	.cfi_def_cfa %rsp, 8
	retq
.LBB69_6:
	.cfi_def_cfa %rbp, 16
	movl	$-1, %eax
	addq	$8, %rsp
	popq	%rbx
	popq	%rbp
	.cfi_def_cfa %rsp, 8
	retq
.LBB69_22:
	.cfi_def_cfa %rbp, 16
	movq	stderr(%rip), %rdi
	movl	3180(%rbx), %edx
	movl	3188(%rbx), %ecx
	movl	$.L.str.4.110, %esi
	xorl	%eax, %eax
	callq	fprintf
	jmp	.LBB69_23
.Lfunc_end69:
	.size	BZ2_bzDecompress, .Lfunc_end69-BZ2_bzDecompress
	.cfi_endproc
                                        # -- End function
	.p2align	4, 0x90                         # -- Begin function unRLE_obuf_to_output_SMALL
	.type	unRLE_obuf_to_output_SMALL,@function
unRLE_obuf_to_output_SMALL:             # @unRLE_obuf_to_output_SMALL
	.cfi_startproc
# %bb.0:
	pushq	%rbp
	.cfi_def_cfa_offset 16
	.cfi_offset %rbp, -16
	movq	%rsp, %rbp
	.cfi_def_cfa_register %rbp
	pushq	%r15
	pushq	%r14
	pushq	%r13
	pushq	%r12
	pushq	%rbx
	subq	$56, %rsp
	.cfi_offset %rbx, -56
	.cfi_offset %r12, -48
	.cfi_offset %r13, -40
	.cfi_offset %r14, -32
	.cfi_offset %r15, -24
	movq	%rdi, %rbx
	cmpb	$0, 20(%rdi)
	je	.LBB70_30
# %bb.1:                                # %.preheader254
	movq	(%rbx), %r14
	cmpl	$0, 32(%r14)
	je	.LBB70_52
# %bb.2:                                # %.lr.ph259.lr.ph
	leaq	1096(%rbx), %rsi
	jmp	.LBB70_4
	.p2align	4, 0x90
.LBB70_3:                               #   in Loop: Header=BB70_4 Depth=1
	cmpl	$0, 32(%r14)
	je	.LBB70_52
.LBB70_4:                               # =>This Inner Loop Header: Depth=1
	cmpl	$0, 16(%rbx)
	je	.LBB70_7
# %bb.5:                                #   in Loop: Header=BB70_4 Depth=1
	movzbl	12(%rbx), %eax
	movq	24(%r14), %rcx
	movb	%al, (%rcx)
	movl	3184(%rbx), %eax
	movl	%eax, %ecx
	shll	$8, %ecx
	shrl	$24, %eax
	movzbl	12(%rbx), %edx
	xorl	%eax, %edx
	xorl	BZ2_crc32Table(,%rdx,4), %ecx
	movl	%ecx, 3184(%rbx)
	addl	$-1, 16(%rbx)
	movq	(%rbx), %rax
	addq	$1, 24(%rax)
	movq	(%rbx), %rax
	addl	$-1, 32(%rax)
	movq	(%rbx), %rax
	addl	$1, 36(%rax)
	movq	(%rbx), %r14
	cmpl	$0, 36(%r14)
	jne	.LBB70_3
# %bb.6:                                #   in Loop: Header=BB70_4 Depth=1
	addl	$1, 40(%r14)
	movq	(%rbx), %r14
	jmp	.LBB70_3
.LBB70_7:                               #   in Loop: Header=BB70_4 Depth=1
	movl	1092(%rbx), %ecx
	movl	64080(%rbx), %edx
	leal	1(%rdx), %eax
	cmpl	%eax, %ecx
	je	.LBB70_52
# %bb.8:                                #   in Loop: Header=BB70_4 Depth=1
	jg	.LBB70_55
# %bb.9:                                #   in Loop: Header=BB70_4 Depth=1
	movq	%rdx, -72(%rbp)                 # 8-byte Spill
	movq	%rcx, -64(%rbp)                 # 8-byte Spill
	movl	$1, 16(%rbx)
	movl	60(%rbx), %r15d
	movl	64(%rbx), %eax
	movl	%eax, -48(%rbp)                 # 4-byte Spill
	movb	%al, 12(%rbx)
	movl	%r15d, %edi
	movq	%rsi, -56(%rbp)                 # 8-byte Spill
	callq	BZ2_indexIntoF
	movq	3168(%rbx), %rsi
	movq	%r15, %rcx
	shrq	%rcx
	movzbl	(%rsi,%rcx), %r13d
	leal	(,%r15,4), %ecx
	andb	$4, %cl
                                        # kill: def $cl killed $cl killed $ecx
	shrq	%cl, %r13
	movq	3160(%rbx), %rdi
	movzwl	(%rdi,%r15,2), %r12d
	andl	$15, %r13d
	shlq	$16, %r13
	orq	%r12, %r13
	movl	%r13d, 60(%rbx)
	movl	24(%rbx), %r15d
	testl	%r15d, %r15d
	jne	.LBB70_11
# %bb.10:                               #   in Loop: Header=BB70_4 Depth=1
	movslq	28(%rbx), %rcx
	movl	BZ2_rNums(,%rcx,4), %r15d
	addl	$1, %ecx
	cmpl	$512, %ecx                      # imm = 0x200
	movl	$0, %edx
	cmovel	%edx, %ecx
	movl	%ecx, 28(%rbx)
.LBB70_11:                              #   in Loop: Header=BB70_4 Depth=1
	addl	$-1, %r15d
	movl	%r15d, 24(%rbx)
	movq	-64(%rbp), %rcx                 # 8-byte Reload
	leal	1(%rcx), %edx
	movl	%edx, 1092(%rbx)
	cmpl	-72(%rbp), %ecx                 # 4-byte Folded Reload
	je	.LBB70_27
# %bb.12:                               #   in Loop: Header=BB70_4 Depth=1
	xorl	%ecx, %ecx
	cmpl	$1, %r15d
	sete	%cl
	movzbl	%al, %eax
	xorl	%ecx, %eax
	cmpl	-48(%rbp), %eax                 # 4-byte Folded Reload
	jne	.LBB70_26
# %bb.13:                               #   in Loop: Header=BB70_4 Depth=1
	movl	%edx, -44(%rbp)                 # 4-byte Spill
	movl	$2, 16(%rbx)
	movq	%rdi, -80(%rbp)                 # 8-byte Spill
	movl	%r13d, %edi
	movq	%rsi, -88(%rbp)                 # 8-byte Spill
	movq	-56(%rbp), %rsi                 # 8-byte Reload
	callq	BZ2_indexIntoF
	movq	-80(%rbp), %rcx                 # 8-byte Reload
	movzwl	(%rcx,%r13,2), %esi
	movl	%r13d, %ecx
	shrq	%rcx
	movq	-88(%rbp), %rdx                 # 8-byte Reload
	movzbl	(%rdx,%rcx), %r13d
	shll	$2, %r12d
	andb	$4, %r12b
	movl	%r12d, %ecx
	shrq	%cl, %r13
	andl	$15, %r13d
	shlq	$16, %r13
	orq	%rsi, %r13
	movl	%r13d, 60(%rbx)
	testl	%r15d, %r15d
	jne	.LBB70_15
# %bb.14:                               #   in Loop: Header=BB70_4 Depth=1
	movslq	28(%rbx), %rcx
	movl	BZ2_rNums(,%rcx,4), %r15d
	addl	$1, %ecx
	cmpl	$512, %ecx                      # imm = 0x200
	movl	$0, %edx
	cmovel	%edx, %ecx
	movl	%ecx, 28(%rbx)
.LBB70_15:                              #   in Loop: Header=BB70_4 Depth=1
	addl	$-1, %r15d
	movl	%r15d, 24(%rbx)
	movq	-64(%rbp), %rcx                 # 8-byte Reload
	leal	2(%rcx), %edx
	movl	%edx, 1092(%rbx)
	movl	-44(%rbp), %ecx                 # 4-byte Reload
	cmpl	-72(%rbp), %ecx                 # 4-byte Folded Reload
	je	.LBB70_27
# %bb.16:                               #   in Loop: Header=BB70_4 Depth=1
	xorl	%ecx, %ecx
	cmpl	$1, %r15d
	sete	%cl
	movzbl	%al, %eax
	xorl	%ecx, %eax
	cmpl	-48(%rbp), %eax                 # 4-byte Folded Reload
	jne	.LBB70_26
# %bb.17:                               #   in Loop: Header=BB70_4 Depth=1
	movl	%edx, -44(%rbp)                 # 4-byte Spill
	movl	$3, 16(%rbx)
	movl	%r13d, %edi
	movq	%rsi, %r12
	movq	-56(%rbp), %rsi                 # 8-byte Reload
	callq	BZ2_indexIntoF
	movq	-80(%rbp), %rdi                 # 8-byte Reload
	movq	-88(%rbp), %rsi                 # 8-byte Reload
	movzwl	(%rdi,%r13,2), %r8d
	movl	%r13d, %ecx
	shrq	%rcx
	movzbl	(%rsi,%rcx), %r13d
	shll	$2, %r12d
	andb	$4, %r12b
	movl	%r12d, %ecx
	shrq	%cl, %r13
	andl	$15, %r13d
	shlq	$16, %r13
	orq	%r8, %r13
	movl	%r13d, 60(%rbx)
	testl	%r15d, %r15d
	jne	.LBB70_19
# %bb.18:                               #   in Loop: Header=BB70_4 Depth=1
	movslq	28(%rbx), %rcx
	movl	BZ2_rNums(,%rcx,4), %r15d
	addl	$1, %ecx
	cmpl	$512, %ecx                      # imm = 0x200
	movl	$0, %edx
	cmovel	%edx, %ecx
	movl	%ecx, 28(%rbx)
.LBB70_19:                              #   in Loop: Header=BB70_4 Depth=1
	addl	$-1, %r15d
	movl	%r15d, 24(%rbx)
	movq	-64(%rbp), %rcx                 # 8-byte Reload
	addl	$3, %ecx
	movl	%ecx, 1092(%rbx)
	movl	-44(%rbp), %ecx                 # 4-byte Reload
	cmpl	-72(%rbp), %ecx                 # 4-byte Folded Reload
	je	.LBB70_27
# %bb.20:                               #   in Loop: Header=BB70_4 Depth=1
	xorl	%ecx, %ecx
	cmpl	$1, %r15d
	sete	%cl
	movzbl	%al, %eax
	xorl	%ecx, %eax
	cmpl	-48(%rbp), %eax                 # 4-byte Folded Reload
	jne	.LBB70_26
# %bb.21:                               #   in Loop: Header=BB70_4 Depth=1
	movl	%r13d, %edi
	movq	-56(%rbp), %rsi                 # 8-byte Reload
	movq	%r8, %r12
	callq	BZ2_indexIntoF
	movq	-80(%rbp), %rcx                 # 8-byte Reload
	movzwl	(%rcx,%r13,2), %edx
	movl	%r13d, %ecx
	shrq	%rcx
	movq	-88(%rbp), %rsi                 # 8-byte Reload
	movzbl	(%rsi,%rcx), %r13d
	shll	$2, %r12d
	andb	$4, %r12b
	movl	%r12d, %ecx
	shrq	%cl, %r13
	andl	$15, %r13d
	shlq	$16, %r13
	movq	%rdx, -72(%rbp)                 # 8-byte Spill
	orq	%rdx, %r13
	movl	%r13d, 60(%rbx)
	testl	%r15d, %r15d
	jne	.LBB70_23
# %bb.22:                               #   in Loop: Header=BB70_4 Depth=1
	movslq	28(%rbx), %rcx
	movl	BZ2_rNums(,%rcx,4), %r15d
	addl	$1, %ecx
	cmpl	$512, %ecx                      # imm = 0x200
	movl	$0, %edx
	cmovel	%edx, %ecx
	movl	%ecx, 28(%rbx)
.LBB70_23:                              #   in Loop: Header=BB70_4 Depth=1
	leal	-1(%r15), %ecx
	movl	%ecx, 24(%rbx)
	xorl	%edx, %edx
	cmpl	$1, %ecx
	sete	%dl
	movq	-64(%rbp), %r12                 # 8-byte Reload
	leal	4(%r12), %ecx
	movl	%ecx, 1092(%rbx)
	movzbl	%al, %eax
	xorl	%edx, %eax
	addl	$4, %eax
	movl	%eax, 16(%rbx)
	movl	%r13d, %edi
	movq	-56(%rbp), %rsi                 # 8-byte Reload
	callq	BZ2_indexIntoF
	movl	%eax, 64(%rbx)
	movq	-80(%rbp), %rcx                 # 8-byte Reload
	movzwl	(%rcx,%r13,2), %edx
	movl	%r13d, %ecx
	shrq	%rcx
	movq	-88(%rbp), %rsi                 # 8-byte Reload
	movzbl	(%rsi,%rcx), %esi
	movq	-72(%rbp), %rcx                 # 8-byte Reload
	shll	$2, %ecx
	andb	$4, %cl
                                        # kill: def $cl killed $cl killed $rcx
	shrl	%cl, %esi
	andl	$15, %esi
	shll	$16, %esi
	orl	%edx, %esi
	movl	%esi, 60(%rbx)
	addl	$-1, %r15d
	jne	.LBB70_25
# %bb.24:                               #   in Loop: Header=BB70_4 Depth=1
	movslq	28(%rbx), %rcx
	movl	BZ2_rNums(,%rcx,4), %r15d
	addl	$1, %ecx
	cmpl	$512, %ecx                      # imm = 0x200
	movl	$0, %edx
	cmovel	%edx, %ecx
	movl	%ecx, 28(%rbx)
.LBB70_25:                              #   in Loop: Header=BB70_4 Depth=1
	addl	$-1, %r15d
	movl	%r15d, 24(%rbx)
	xorl	%ecx, %ecx
	cmpl	$1, %r15d
	sete	%cl
	xorl	%eax, %ecx
	movl	%ecx, 64(%rbx)
	addl	$5, %r12d
	movl	%r12d, 1092(%rbx)
	jmp	.LBB70_27
.LBB70_26:                              #   in Loop: Header=BB70_4 Depth=1
	movl	%eax, 64(%rbx)
.LBB70_27:                              # %.backedge
                                        #   in Loop: Header=BB70_4 Depth=1
	xorl	%eax, %eax
	cmpl	$0, 32(%r14)
	movq	-56(%rbp), %rsi                 # 8-byte Reload
	jne	.LBB70_4
	jmp	.LBB70_53
.LBB70_30:                              # %.preheader
	movq	(%rbx), %r14
	cmpl	$0, 32(%r14)
	je	.LBB70_52
# %bb.31:                               # %.lr.ph.lr.ph
	leaq	1096(%rbx), %rax
	movq	%rax, -56(%rbp)                 # 8-byte Spill
	jmp	.LBB70_33
	.p2align	4, 0x90
.LBB70_32:                              #   in Loop: Header=BB70_33 Depth=1
	cmpl	$0, 32(%r14)
	je	.LBB70_52
.LBB70_33:                              # =>This Inner Loop Header: Depth=1
	cmpl	$0, 16(%rbx)
	je	.LBB70_36
# %bb.34:                               #   in Loop: Header=BB70_33 Depth=1
	movzbl	12(%rbx), %eax
	movq	24(%r14), %rcx
	movb	%al, (%rcx)
	movl	3184(%rbx), %eax
	movl	%eax, %ecx
	shll	$8, %ecx
	shrl	$24, %eax
	movzbl	12(%rbx), %edx
	xorl	%eax, %edx
	xorl	BZ2_crc32Table(,%rdx,4), %ecx
	movl	%ecx, 3184(%rbx)
	addl	$-1, 16(%rbx)
	movq	(%rbx), %rax
	addq	$1, 24(%rax)
	movq	(%rbx), %rax
	addl	$-1, 32(%rax)
	movq	(%rbx), %rax
	addl	$1, 36(%rax)
	movq	(%rbx), %r14
	cmpl	$0, 36(%r14)
	jne	.LBB70_32
# %bb.35:                               #   in Loop: Header=BB70_33 Depth=1
	addl	$1, 40(%r14)
	movq	(%rbx), %r14
	jmp	.LBB70_32
.LBB70_36:                              #   in Loop: Header=BB70_33 Depth=1
	movl	1092(%rbx), %ecx
	movl	64080(%rbx), %edx
	leal	1(%rdx), %eax
	cmpl	%eax, %ecx
	je	.LBB70_52
# %bb.37:                               #   in Loop: Header=BB70_33 Depth=1
	jg	.LBB70_55
# %bb.38:                               #   in Loop: Header=BB70_33 Depth=1
	movl	$1, 16(%rbx)
	movl	60(%rbx), %r15d
	movl	64(%rbx), %eax
	movl	%eax, -48(%rbp)                 # 4-byte Spill
	movb	%al, 12(%rbx)
	movl	%r15d, %edi
	movq	-56(%rbp), %rsi                 # 8-byte Reload
	movq	%rcx, -64(%rbp)                 # 8-byte Spill
	movq	%rdx, -72(%rbp)                 # 8-byte Spill
	callq	BZ2_indexIntoF
	movq	-64(%rbp), %rdx                 # 8-byte Reload
	movq	3160(%rbx), %rdi
	movq	3168(%rbx), %rsi
	movq	%r15, %rcx
	shrq	%rcx
	movzbl	(%rsi,%rcx), %r12d
	leal	(,%r15,4), %ecx
	andb	$4, %cl
                                        # kill: def $cl killed $cl killed $ecx
	shrq	%cl, %r12
	movzwl	(%rdi,%r15,2), %r13d
	andl	$15, %r12d
	shlq	$16, %r12
	orq	%r13, %r12
	movl	%r12d, 60(%rbx)
	leal	1(%rdx), %ecx
	movl	%ecx, 1092(%rbx)
	cmpl	-72(%rbp), %edx                 # 4-byte Folded Reload
	je	.LBB70_47
# %bb.39:                               #   in Loop: Header=BB70_33 Depth=1
	movzbl	%al, %eax
	movl	-48(%rbp), %edx                 # 4-byte Reload
	cmpl	%edx, %eax
	jne	.LBB70_45
# %bb.40:                               #   in Loop: Header=BB70_33 Depth=1
	movl	$2, 16(%rbx)
	movq	%rdi, -80(%rbp)                 # 8-byte Spill
	movl	%r12d, %edi
	movq	%rsi, -88(%rbp)                 # 8-byte Spill
	movq	-56(%rbp), %rsi                 # 8-byte Reload
	movl	%ecx, -44(%rbp)                 # 4-byte Spill
	callq	BZ2_indexIntoF
	movl	%r12d, %ecx
	shrq	%rcx
	movq	-88(%rbp), %rdx                 # 8-byte Reload
	movzbl	(%rdx,%rcx), %r15d
	movq	-72(%rbp), %rdx                 # 8-byte Reload
	shll	$2, %r13d
	andb	$4, %r13b
	movl	%r13d, %ecx
	shrq	%cl, %r15
	movq	-80(%rbp), %rcx                 # 8-byte Reload
	movzwl	(%rcx,%r12,2), %r13d
	andl	$15, %r15d
	shlq	$16, %r15
	orq	%r13, %r15
	movl	%r15d, 60(%rbx)
	movq	-64(%rbp), %rcx                 # 8-byte Reload
	leal	2(%rcx), %esi
	movl	%esi, 1092(%rbx)
	cmpl	%edx, -44(%rbp)                 # 4-byte Folded Reload
	je	.LBB70_47
# %bb.41:                               #   in Loop: Header=BB70_33 Depth=1
	movzbl	%al, %eax
	movl	-48(%rbp), %ecx                 # 4-byte Reload
	cmpl	%ecx, %eax
	jne	.LBB70_46
# %bb.42:                               #   in Loop: Header=BB70_33 Depth=1
	movl	$3, 16(%rbx)
	movl	%r15d, %edi
	movl	%esi, -44(%rbp)                 # 4-byte Spill
	movq	-56(%rbp), %rsi                 # 8-byte Reload
	callq	BZ2_indexIntoF
	movq	-80(%rbp), %rdi                 # 8-byte Reload
	movq	-88(%rbp), %rdx                 # 8-byte Reload
	movq	-64(%rbp), %r8                  # 8-byte Reload
	movl	%r15d, %ecx
	shrq	%rcx
	movzbl	(%rdx,%rcx), %r12d
	shll	$2, %r13d
	andb	$4, %r13b
	movl	%r13d, %ecx
	shrq	%cl, %r12
	movzwl	(%rdi,%r15,2), %r15d
	andl	$15, %r12d
	shlq	$16, %r12
	orq	%r15, %r12
	movl	%r12d, 60(%rbx)
	leal	3(%r8), %ecx
	movl	%ecx, 1092(%rbx)
	movq	-72(%rbp), %rcx                 # 8-byte Reload
	cmpl	%ecx, -44(%rbp)                 # 4-byte Folded Reload
	je	.LBB70_47
# %bb.43:                               #   in Loop: Header=BB70_33 Depth=1
	movzbl	%al, %eax
	cmpl	-48(%rbp), %eax                 # 4-byte Folded Reload
	jne	.LBB70_48
# %bb.44:                               #   in Loop: Header=BB70_33 Depth=1
	movl	%r12d, %edi
	movq	%rdx, %r13
	movq	-56(%rbp), %rsi                 # 8-byte Reload
	callq	BZ2_indexIntoF
	movl	%r12d, %ecx
	shrq	%rcx
	movzbl	(%r13,%rcx), %edx
	shll	$2, %r15d
	andb	$4, %r15b
	movl	%r15d, %ecx
	shrq	%cl, %rdx
	movq	-80(%rbp), %r13                 # 8-byte Reload
	movzwl	(%r13,%r12,2), %r15d
	andl	$15, %edx
	shlq	$16, %rdx
	movzwl	%r15w, %r12d
	orq	%rdx, %r12
	movl	%r12d, 60(%rbx)
	movq	-64(%rbp), %rcx                 # 8-byte Reload
	addl	$4, %ecx
	movl	%ecx, 1092(%rbx)
	movzbl	%al, %eax
	addl	$4, %eax
	movl	%eax, 16(%rbx)
	movl	%r12d, %edi
	movq	-56(%rbp), %rsi                 # 8-byte Reload
	callq	BZ2_indexIntoF
	movl	%eax, 64(%rbx)
	movzwl	(%r13,%r12,2), %eax
	shrq	%r12
	movq	-88(%rbp), %rcx                 # 8-byte Reload
	movzbl	(%rcx,%r12), %edx
	shll	$2, %r15d
	andb	$4, %r15b
	movl	%r15d, %ecx
	shrl	%cl, %edx
	andl	$15, %edx
	shll	$16, %edx
	orl	%eax, %edx
	movl	%edx, 60(%rbx)
	movq	-64(%rbp), %rax                 # 8-byte Reload
	addl	$5, %eax
	movl	%eax, 1092(%rbx)
	xorl	%eax, %eax
	cmpl	$0, 32(%r14)
	jne	.LBB70_33
	jmp	.LBB70_53
.LBB70_45:                              #   in Loop: Header=BB70_33 Depth=1
	movl	%eax, 64(%rbx)
	xorl	%eax, %eax
	cmpl	$0, 32(%r14)
	jne	.LBB70_33
	jmp	.LBB70_53
.LBB70_46:                              #   in Loop: Header=BB70_33 Depth=1
	movl	%eax, 64(%rbx)
.LBB70_47:                              # %.backedge228
                                        #   in Loop: Header=BB70_33 Depth=1
	xorl	%eax, %eax
	cmpl	$0, 32(%r14)
	jne	.LBB70_33
	jmp	.LBB70_53
